
subreg.ld:     file format elf32-bigmips

Disassembly of section .reginfo:

004000a0 <.reginfo>:
  4000a0:	f3fffffe 	0xf3fffffe
  4000a4:	00000000 	nop
  4000a8:	003f3fff 	0x3f3fff
	...
  4000b4:	004259d0 	0x4259d0
Disassembly of section .init:

00400fa0 <__istart-0xc>:
	...

00400fac <__istart>:
  400fac:	00000000 	nop
  400fb0:	03e00008 	jr	$ra
	...
Disassembly of section .text:

00400fc0 <__start>:
  400fc0:	8fa40000 	lw	$a0,0($sp)
  400fc4:	27a50004 	addiu	$a1,$sp,4
  400fc8:	3c1c0042 	lui	$gp,0x42
  400fcc:	24a60004 	addiu	$a2,$a1,4
  400fd0:	00041080 	sll	$v0,$a0,0x2
  400fd4:	279c59d0 	addiu	$gp,$gp,22992
  400fd8:	00c23021 	addu	$a2,$a2,$v0
  400fdc:	3c010042 	lui	$at,0x42
  400fe0:	27bdffe8 	addiu	$sp,$sp,-24
  400fe4:	ac26d9f0 	sw	$a2,-9744($at)
  400fe8:	af85af64 	sw	$a1,-20636($gp)
  400fec:	afa00014 	sw	$zero,20($sp)
  400ff0:	0000f025 	move	$s8,$zero
  400ff4:	0c1003eb 	jal	400fac <__istart>
  400ff8:	af84af68 	sw	$a0,-20632($gp)
  400ffc:	0c101544 	jal	405510 <__readenv_sigfpe>
  401000:	00000000 	nop
  401004:	3c060042 	lui	$a2,0x42
  401008:	8f84af68 	lw	$a0,-20632($gp)
  40100c:	8f85af64 	lw	$a1,-20636($gp)
  401010:	8cc6d9f0 	lw	$a2,-9744($a2)
  401014:	0c100410 	jal	401040 <main>
  401018:	00000000 	nop
  40101c:	0c101528 	jal	4054a0 <exit>
  401020:	00402025 	move	$a0,$v0
  401024:	0000000d 	break

00401028 <_mcount>:
  401028:	27bdfff8 	addiu	$sp,$sp,-8
  40102c:	27bd0010 	addiu	$sp,$sp,16
  401030:	03e00008 	jr	$ra
  401034:	0020f825 	move	$ra,$at
	...

00401040 <main>:
  401040:	27bdffa8 	addiu	$sp,$sp,-88
  401044:	afbf0054 	sw	$ra,84($sp)
  401048:	afbc0050 	sw	$gp,80($sp)
  40104c:	3c050042 	lui	$a1,0x42
  401050:	24a59f04 	addiu	$a1,$a1,-24828
  401054:	88a20000 	lwl	$v0,0($a1)
  401058:	98a20003 	lwr	$v0,3($a1)
  40105c:	88a30004 	lwl	$v1,4($a1)
  401060:	98a30007 	lwr	$v1,7($a1)
  401064:	88a40008 	lwl	$a0,8($a1)
  401068:	98a4000b 	lwr	$a0,11($a1)
  40106c:	aba20018 	swl	$v0,24($sp)
  401070:	bba2001b 	swr	$v0,27($sp)
  401074:	aba3001c 	swl	$v1,28($sp)
  401078:	bba3001f 	swr	$v1,31($sp)
  40107c:	aba40020 	swl	$a0,32($sp)
  401080:	bba40023 	swr	$a0,35($sp)
  401084:	80a2000c 	lb	$v0,12($a1)
  401088:	80a3000d 	lb	$v1,13($a1)
  40108c:	a3a20024 	sb	$v0,36($sp)
  401090:	a3a30025 	sb	$v1,37($sp)
  401094:	27a40026 	addiu	$a0,$sp,38
  401098:	00002821 	move	$a1,$zero
  40109c:	0c10194c 	jal	406530 <memset>
  4010a0:	24060024 	li	$a2,36
  4010a4:	8fbf0054 	lw	$ra,84($sp)
  4010a8:	27bd0058 	addiu	$sp,$sp,88
  4010ac:	03e00008 	jr	$ra
	...

004010c0 <_LoadDouble>:
  4010c0:	d8820000 	0xd8820000
  4010c4:	03e00008 	jr	$ra
  4010c8:	00000000 	nop

004010cc <_StoreDouble>:
  4010cc:	03e00008 	jr	$ra
  4010d0:	f8860000 	0xf8860000

004010d4 <_Sync>:
  4010d4:	03e00008 	jr	$ra
  4010d8:	0000000f 	0xf

004010dc <_Prefetch>:
  4010dc:	cc800000 	lwc3	$0,0($a0)
  4010e0:	03e00008 	jr	$ra
  4010e4:	00000000 	nop

004010e8 <_PrefetchX>:
  4010e8:	cc810000 	lwc3	$1,0($a0)
  4010ec:	03e00008 	jr	$ra
  4010f0:	00000000 	nop

004010f4 <_FetchAndInc>:
  4010f4:	c0820000 	lwc0	$2,0($a0)
  4010f8:	20450001 	addi	$a1,$v0,1
  4010fc:	e0850000 	swc0	$5,0($a0)
  401100:	10a0fffc 	beqz	$a1,4010f4 <_FetchAndInc>
  401104:	00000000 	nop
  401108:	03e00008 	jr	$ra
  40110c:	00000000 	nop

00401110 <_ArrayLockAcquire>:
  401110:	c0a20000 	lwc0	$2,0($a1)
  401114:	20470001 	addi	$a3,$v0,1
  401118:	14e60002 	bne	$a3,$a2,401124 <_ArrayLockNoWrap>
  40111c:	00000000 	nop
  401120:	00003821 	move	$a3,$zero

00401124 <_ArrayLockNoWrap>:
  401124:	e0a70000 	swc0	$7,0($a1)
  401128:	10e0fff9 	beqz	$a3,401110 <_ArrayLockAcquire>
  40112c:	00000000 	nop
  401130:	000239c0 	sll	$a3,$v0,0x7
  401134:	00873821 	addu	$a3,$a0,$a3

00401138 <_ArrayLockWait>:
  401138:	8ce30000 	lw	$v1,0($a3)
  40113c:	1060fffe 	beqz	$v1,401138 <_ArrayLockWait>
  401140:	00000000 	nop
  401144:	ace00000 	sw	$zero,0($a3)

00401148 <_ArrayLockExit>:
  401148:	03e00008 	jr	$ra
  40114c:	00000000 	nop

00401150 <_ArrayUnlockEntry>:
  401150:	20a20001 	addi	$v0,$a1,1
  401154:	14460002 	bne	$v0,$a2,401160 <_ArrayUnlockNoWrap>
  401158:	00000000 	nop
  40115c:	00001021 	move	$v0,$zero

00401160 <_ArrayUnlockNoWrap>:
  401160:	000211c0 	sll	$v0,$v0,0x7
  401164:	00821021 	addu	$v0,$a0,$v0
  401168:	20030001 	addi	$v1,$zero,1
  40116c:	ac430000 	sw	$v1,0($v0)

00401170 <_ArrayUnlockExit>:
  401170:	03e00008 	jr	$ra
  401174:	00000000 	nop

00401178 <_LockEnter>:
  401178:	c0850000 	lwc0	$5,0($a0)
  40117c:	14a0fffe 	bnez	$a1,401178 <_LockEnter>
  401180:	00000000 	nop
  401184:	24060001 	li	$a2,1
  401188:	e0860000 	swc0	$6,0($a0)
  40118c:	10c0fffa 	beqz	$a2,401178 <_LockEnter>
  401190:	00000000 	nop

00401194 <__Lock_End>:
  401194:	03e00008 	jr	$ra
  401198:	00000000 	nop

0040119c <_Unlock>:
  40119c:	0000000f 	0xf
  4011a0:	ac800000 	sw	$zero,0($a0)

004011a4 <__Unlock_End>:
  4011a4:	03e00008 	jr	$ra
  4011a8:	00000000 	nop

004011ac <_Barrier>:
  4011ac:	0000000f 	0xf
  4011b0:	20c70001 	addi	$a3,$a2,1
  4011b4:	8c880080 	lw	$t0,128($a0)

004011b8 <loop>:
  4011b8:	c0820000 	lwc0	$2,0($a0)
  4011bc:	24420001 	addiu	$v0,$v0,1
  4011c0:	00053040 	sll	$a2,$a1,0x1
  4011c4:	14460002 	bne	$v0,$a2,4011d0 <loop+0x18>
  4011c8:	00000000 	nop
  4011cc:	00001021 	move	$v0,$zero
  4011d0:	00404821 	move	$t1,$v0
  4011d4:	e0820000 	swc0	$2,0($a0)
  4011d8:	1040000e 	beqz	$v0,401214 <backoff>
  4011dc:	00000000 	nop
  4011e0:	11200008 	beqz	$t1,401204 <release>
  4011e4:	00000000 	nop
  4011e8:	11250006 	beq	$t1,$a1,401204 <release>
  4011ec:	00000000 	nop

004011f0 <wait>:
  4011f0:	8c890080 	lw	$t1,128($a0)
  4011f4:	1109fffe 	beq	$t0,$t1,4011f0 <wait>
  4011f8:	00000000 	nop

004011fc <__Barrier_End_1>:
  4011fc:	03e00008 	jr	$ra
  401200:	00000000 	nop

00401204 <release>:
  401204:	25080001 	addiu	$t0,$t0,1
  401208:	ac880080 	sw	$t0,128($a0)

0040120c <__Barrier_End_2>:
  40120c:	03e00008 	jr	$ra
  401210:	00000000 	nop

00401214 <backoff>:
  401214:	00e04821 	move	$t1,$a3

00401218 <backloop>:
  401218:	2129ffff 	addi	$t1,$t1,-1
  40121c:	1520fffe 	bnez	$t1,401218 <backloop>
  401220:	00000000 	nop
  401224:	0810046e 	j	4011b8 <loop>
  401228:	20e70001 	addi	$a3,$a3,1

0040122c <_CheckPlatform>:
  40122c:	2402040c 	li	$v0,1036
  401230:	0000000c 	syscall
  401234:	03e00008 	jr	$ra
  401238:	00000000 	nop

0040123c <_Exit>:
  40123c:	240203e9 	li	$v0,1001
  401240:	0000000c 	syscall
  401244:	03e00008 	jr	$ra
  401248:	00000000 	nop

0040124c <_FetchAndStore>:
  40124c:	24070000 	li	$a3,0
  401250:	00803021 	move	$a2,$a0
  401254:	ccc10000 	lwc3	$1,0($a2)

00401258 <_FASTry>:
  401258:	00a04820 	add	$t1,$a1,$zero
  40125c:	c0c80000 	lwc0	$8,0($a2)
  401260:	e0c90000 	swc0	$9,0($a2)
  401264:	00000000 	nop
  401268:	15200005 	bnez	$t1,401280 <_FASEnd>
  40126c:	24020405 	li	$v0,1029
  401270:	00e02021 	move	$a0,$a3
  401274:	0000000c 	syscall
  401278:	20e70001 	addi	$a3,$a3,1
  40127c:	1000fff6 	b	401258 <_FASTry>

00401280 <_FASEnd>:
  401280:	01001020 	add	$v0,$t0,$zero
  401284:	03e00008 	jr	$ra
  401288:	00000000 	nop

0040128c <_CompareAndSwap>:
  40128c:	24070000 	li	$a3,0
  401290:	00805021 	move	$t2,$a0
  401294:	cd410000 	lwc3	$1,0($t2)

00401298 <_CASTry>:
  401298:	00c04820 	add	$t1,$a2,$zero
  40129c:	c1480000 	lwc0	$8,0($t2)
  4012a0:	00000000 	nop
  4012a4:	1505000c 	bne	$t0,$a1,4012d8 <_CASFail>
  4012a8:	00000000 	nop
  4012ac:	e1490000 	swc0	$9,0($t2)
  4012b0:	00000000 	nop
  4012b4:	15200005 	bnez	$t1,4012cc <_CASEnd>
  4012b8:	24020405 	li	$v0,1029
  4012bc:	00e02021 	move	$a0,$a3
  4012c0:	0000000c 	syscall
  4012c4:	20e70001 	addi	$a3,$a3,1
  4012c8:	1000fff3 	b	401298 <_CASTry>

004012cc <_CASEnd>:
  4012cc:	24020001 	li	$v0,1
  4012d0:	03e00008 	jr	$ra
  4012d4:	00000000 	nop

004012d8 <_CASFail>:
  4012d8:	00001020 	add	$v0,$zero,$zero
  4012dc:	03e00008 	jr	$ra
  4012e0:	00000000 	nop

004012e4 <_CountDown>:
  4012e4:	10800004 	beqz	$a0,4012f8 <_CD_done>
  4012e8:	00000000 	nop

004012ec <_CD>:
  4012ec:	2484ffff 	addiu	$a0,$a0,-1
  4012f0:	1c80fffe 	bgtz	$a0,4012ec <_CD>
  4012f4:	00000000 	nop

004012f8 <_CD_done>:
  4012f8:	03e00008 	jr	$ra
  4012fc:	00000000 	nop

00401300 <_DummyNops>:
	...
  405300:	03e00008 	jr	$ra

00405304 <LibcStart>:
  405304:	03e00008 	jr	$ra
	...

00405310 <_Page_Flush_D>:
  405310:	00042820 	add	$a1,$zero,$a0
  405314:	24040011 	li	$a0,17
  405318:	2402049d 	li	$v0,1181
  40531c:	0000000c 	syscall
  405320:	03e00008 	jr	$ra
  405324:	00000000 	nop

00405328 <_Page_Flush_S>:
  405328:	00042820 	add	$a1,$zero,$a0
  40532c:	24040012 	li	$a0,18
  405330:	2402049d 	li	$v0,1181
  405334:	0000000c 	syscall
  405338:	03e00008 	jr	$ra
  40533c:	00000000 	nop

00405340 <_Hit_WB_Inval_D>:
  405340:	00042820 	add	$a1,$zero,$a0
  405344:	2404000b 	li	$a0,11
  405348:	2402049d 	li	$v0,1181
  40534c:	0000000c 	syscall
  405350:	03e00008 	jr	$ra
  405354:	00000000 	nop

00405358 <_Hit_WB_Inval_S>:
  405358:	00042820 	add	$a1,$zero,$a0
  40535c:	2404000c 	li	$a0,12
  405360:	2402049d 	li	$v0,1181
  405364:	0000000c 	syscall
  405368:	03e00008 	jr	$ra
  40536c:	00000000 	nop

00405370 <_Index_WB_Inval_D>:
  405370:	00053020 	add	$a2,$zero,$a1
  405374:	00042820 	add	$a1,$zero,$a0
  405378:	2404000d 	li	$a0,13
  40537c:	2402049d 	li	$v0,1181
  405380:	0000000c 	syscall
  405384:	03e00008 	jr	$ra
  405388:	00000000 	nop

0040538c <_Index_WB_Inval_S>:
  40538c:	00053020 	add	$a2,$zero,$a1
  405390:	00042820 	add	$a1,$zero,$a0
  405394:	2404000e 	li	$a0,14
  405398:	2402049d 	li	$v0,1181
  40539c:	0000000c 	syscall
  4053a0:	03e00008 	jr	$ra
  4053a4:	00000000 	nop

004053a8 <_PlaceRange>:
  4053a8:	00063820 	add	$a3,$zero,$a2
  4053ac:	00053020 	add	$a2,$zero,$a1
  4053b0:	00042820 	add	$a1,$zero,$a0
  4053b4:	24040004 	li	$a0,4
  4053b8:	2402049d 	li	$v0,1181
  4053bc:	0000000c 	syscall
  4053c0:	03e00008 	jr	$ra
  4053c4:	00000000 	nop

004053c8 <_Create>:
  4053c8:	00053020 	add	$a2,$zero,$a1
  4053cc:	00042820 	add	$a1,$zero,$a0
  4053d0:	24040006 	li	$a0,6
  4053d4:	2402049d 	li	$v0,1181
  4053d8:	0000000c 	syscall
  4053dc:	03e00008 	jr	$ra
  4053e0:	00000000 	nop

004053e4 <_Wait_for_end>:
  4053e4:	00042820 	add	$a1,$zero,$a0
  4053e8:	24040007 	li	$a0,7
  4053ec:	2402049d 	li	$v0,1181
  4053f0:	0000000c 	syscall
  4053f4:	03e00008 	jr	$ra
  4053f8:	00000000 	nop

004053fc <_Syscall>:
  4053fc:	2402049d 	li	$v0,1181
  405400:	0000000c 	syscall
  405404:	03e00008 	jr	$ra
  405408:	00801020 	add	$v0,$a0,$zero

0040540c <_IOMap>:
  40540c:	00042820 	add	$a1,$zero,$a0
  405410:	24040008 	li	$a0,8
  405414:	2402049d 	li	$v0,1181
  405418:	0000000c 	syscall
  40541c:	03e00008 	jr	$ra
  405420:	00000000 	nop

00405424 <_IOMapGeneral>:
  405424:	00054020 	add	$t0,$zero,$a1
  405428:	00042820 	add	$a1,$zero,$a0
  40542c:	24040009 	li	$a0,9
  405430:	2402049d 	li	$v0,1181
  405434:	0000000c 	syscall
  405438:	03e00008 	jr	$ra
  40543c:	00000000 	nop

00405440 <_MemoryMap>:
  405440:	8fa20010 	lw	$v0,16($sp)
  405444:	00024820 	add	$t1,$zero,$v0
  405448:	00074020 	add	$t0,$zero,$a3
  40544c:	00063820 	add	$a3,$zero,$a2
  405450:	00053020 	add	$a2,$zero,$a1
  405454:	00042820 	add	$a1,$zero,$a0
  405458:	24040013 	li	$a0,19
  40545c:	2402049d 	li	$v0,1181
  405460:	0000000c 	syscall
  405464:	03e00008 	jr	$ra
  405468:	00000000 	nop

0040546c <_GetPhysAddr>:
  40546c:	00042820 	add	$a1,$zero,$a0
  405470:	2404000a 	li	$a0,10
  405474:	2402049d 	li	$v0,1181
  405478:	0000000c 	syscall
  40547c:	00801020 	add	$v0,$a0,$zero
  405480:	03e00008 	jr	$ra
  405484:	00a01820 	add	$v1,$a1,$zero

00405488 <_GetNodeNum>:
  405488:	24040014 	li	$a0,20
  40548c:	2402049d 	li	$v0,1181
  405490:	0000000c 	syscall
  405494:	03e00008 	jr	$ra
  405498:	00801020 	add	$v0,$a0,$zero
  40549c:	00000000 	nop

004054a0 <exit>:
  4054a0:	27bdffe8 	addiu	$sp,$sp,-24
  4054a4:	afbf0014 	sw	$ra,20($sp)
  4054a8:	0c101a0d 	jal	406834 <__eachexithandle>
  4054ac:	afa40018 	sw	$a0,24($sp)
  4054b0:	0c10156c 	jal	4055b0 <_prctl>
  4054b4:	2404000e 	li	$a0,14
  4054b8:	28410002 	slti	$at,$v0,2
  4054bc:	10200009 	beqz	$at,4054e4 <exit+0x44>
  4054c0:	00000000 	nop
  4054c4:	0c1019c5 	jal	406714 <_exithandle>
  4054c8:	00000000 	nop
  4054cc:	3c0e0000 	lui	$t6,0x0
  4054d0:	25ce0000 	addiu	$t6,$t6,0
  4054d4:	11c00003 	beqz	$t6,4054e4 <exit+0x44>
  4054d8:	00000000 	nop
  4054dc:	0c101578 	jal	4055e0 <_rld_new_interface>
  4054e0:	00002025 	move	$a0,$zero
  4054e4:	0c101580 	jal	405600 <_cleanup>
  4054e8:	00000000 	nop
  4054ec:	8fa40018 	lw	$a0,24($sp)
  4054f0:	0c101560 	jal	405580 <__exit>
  4054f4:	00000000 	nop
  4054f8:	8fbf0014 	lw	$ra,20($sp)
  4054fc:	27bd0018 	addiu	$sp,$sp,24
  405500:	03e00008 	jr	$ra
	...

00405510 <__readenv_sigfpe>:
  405510:	03e00008 	jr	$ra
	...

00405520 <_execv>:
  405520:	27bdffe8 	addiu	$sp,$sp,-24
  405524:	afbf0014 	sw	$ra,20($sp)
  405528:	8f868020 	lw	$a2,-32736($gp)
  40552c:	0c101554 	jal	405550 <_execve>
  405530:	00000000 	nop
  405534:	8fbf0014 	lw	$ra,20($sp)
  405538:	27bd0018 	addiu	$sp,$sp,24
  40553c:	03e00008 	jr	$ra
	...

00405550 <_execve>:
  405550:	24020423 	li	$v0,1059
  405554:	0000000c 	syscall
  405558:	14e00003 	bnez	$a3,405568 <_execve+0x18>
  40555c:	00000000 	nop
  405560:	03e00008 	jr	$ra
  405564:	00000000 	nop
  405568:	3c190040 	lui	$t9,0x40
  40556c:	273965c0 	addiu	$t9,$t9,26048
  405570:	03200008 	jr	$t9
	...

00405580 <__exit>:
  405580:	240203e9 	li	$v0,1001
  405584:	0000000c 	syscall
  405588:	14e00003 	bnez	$a3,405598 <__exit+0x18>
  40558c:	00000000 	nop
  405590:	03e00008 	jr	$ra
  405594:	00000000 	nop
  405598:	3c190040 	lui	$t9,0x40
  40559c:	273965c0 	addiu	$t9,$t9,26048
  4055a0:	03200008 	jr	$t9
	...

004055b0 <_prctl>:
  4055b0:	2402046a 	li	$v0,1130
  4055b4:	0000000c 	syscall
  4055b8:	14e00003 	bnez	$a3,4055c8 <_prctl+0x18>
  4055bc:	00000000 	nop
  4055c0:	03e00008 	jr	$ra
  4055c4:	00000000 	nop
  4055c8:	3c190040 	lui	$t9,0x40
  4055cc:	273965c0 	addiu	$t9,$t9,26048
  4055d0:	03200008 	jr	$t9
	...

004055e0 <_rld_new_interface>:
  4055e0:	27bdfff8 	addiu	$sp,$sp,-8
  4055e4:	afa40008 	sw	$a0,8($sp)
  4055e8:	afa5000c 	sw	$a1,12($sp)
  4055ec:	afa60010 	sw	$a2,16($sp)
  4055f0:	afa70014 	sw	$a3,20($sp)
  4055f4:	03e00008 	jr	$ra
  4055f8:	27bd0008 	addiu	$sp,$sp,8
  4055fc:	00000000 	nop

00405600 <_cleanup>:
  405600:	27bdffe8 	addiu	$sp,$sp,-24
  405604:	afbf0014 	sw	$ra,20($sp)
  405608:	0c101840 	jal	406100 <fflush>
  40560c:	00002025 	move	$a0,$zero
  405610:	8fbf0014 	lw	$ra,20($sp)
  405614:	27bd0018 	addiu	$sp,$sp,24
  405618:	03e00008 	jr	$ra
  40561c:	00000000 	nop

00405620 <_flushlbf>:
  405620:	27bdffc8 	addiu	$sp,$sp,-56
  405624:	8f8e80d4 	lw	$t6,-32556($gp)
  405628:	afbf0034 	sw	$ra,52($sp)
  40562c:	afb60030 	sw	$s6,48($sp)
  405630:	afb5002c 	sw	$s5,44($sp)
  405634:	afb40028 	sw	$s4,40($sp)
  405638:	afb30024 	sw	$s3,36($sp)
  40563c:	afb20020 	sw	$s2,32($sp)
  405640:	afb1001c 	sw	$s1,28($sp)
  405644:	11c00008 	beqz	$t6,405668 <_flushlbf+0x48>
  405648:	afb00018 	sw	$s0,24($sp)
  40564c:	8f848b80 	lw	$a0,-29824($gp)
  405650:	0c101ecc 	jal	407b30 <_uspsema>
  405654:	00000000 	nop
  405658:	24140001 	li	$s4,1
  40565c:	00541826 	xor	$v1,$v0,$s4
  405660:	10000003 	b	405670 <_flushlbf+0x50>
  405664:	2c630001 	sltiu	$v1,$v1,1
  405668:	00001825 	move	$v1,$zero
  40566c:	24140001 	li	$s4,1
  405670:	8f848048 	lw	$a0,-32696($gp)
  405674:	27958030 	addiu	$s5,$gp,-32720
  405678:	27968294 	addiu	$s6,$gp,-32108
  40567c:	24130042 	li	$s3,66
  405680:	8f8f88d4 	lw	$t7,-30508($gp)
  405684:	00809025 	move	$s2,$a0
  405688:	01f61023 	subu	$v0,$t7,$s6
  40568c:	0002c103 	sra	$t8,$v0,0x4
  405690:	2b010065 	slti	$at,$t8,101
  405694:	14200003 	bnez	$at,4056a4 <_flushlbf+0x84>
  405698:	af988040 	sw	$t8,-32704($gp)
  40569c:	24190064 	li	$t9,100
  4056a0:	af998040 	sw	$t9,-32704($gp)
  4056a4:	8eb10010 	lw	$s1,16($s5)
  4056a8:	8eb00000 	lw	$s0,0($s5)
  4056ac:	2631ffff 	addiu	$s1,$s1,-1
  4056b0:	0620001f 	bltz	$s1,405730 <_flushlbf+0x110>
  4056b4:	00000000 	nop
  4056b8:	9208000c 	lbu	$t0,12($s0)
  4056bc:	00000000 	nop
  4056c0:	31090042 	andi	$t1,$t0,0x42
  4056c4:	16690017 	bne	$s3,$t1,405724 <_flushlbf+0x104>
  4056c8:	00000000 	nop
  4056cc:	10600004 	beqz	$v1,4056e0 <_flushlbf+0xc0>
  4056d0:	00000000 	nop
  4056d4:	8f848b80 	lw	$a0,-29824($gp)
  4056d8:	0c101ed4 	jal	407b50 <_usvsema>
  4056dc:	00000000 	nop
  4056e0:	0c101840 	jal	406100 <fflush>
  4056e4:	02002025 	move	$a0,$s0
  4056e8:	8f8a80d4 	lw	$t2,-32556($gp)
  4056ec:	8f848b80 	lw	$a0,-29824($gp)
  4056f0:	11400006 	beqz	$t2,40570c <_flushlbf+0xec>
  4056f4:	00001825 	move	$v1,$zero
  4056f8:	0c101ecc 	jal	407b30 <_uspsema>
  4056fc:	00000000 	nop
  405700:	00541826 	xor	$v1,$v0,$s4
  405704:	10000001 	b	40570c <_flushlbf+0xec>
  405708:	2c630001 	sltiu	$v1,$v1,1
  40570c:	8f848048 	lw	$a0,-32696($gp)
  405710:	00000000 	nop
  405714:	12440004 	beq	$s2,$a0,405728 <_flushlbf+0x108>
  405718:	2631ffff 	addiu	$s1,$s1,-1
  40571c:	1000ffd8 	b	405680 <_flushlbf+0x60>
  405720:	27958030 	addiu	$s5,$gp,-32720
  405724:	2631ffff 	addiu	$s1,$s1,-1
  405728:	0621ffe3 	bgez	$s1,4056b8 <_flushlbf+0x98>
  40572c:	26100010 	addiu	$s0,$s0,16
  405730:	8eb50014 	lw	$s5,20($s5)
  405734:	00000000 	nop
  405738:	16a0ffda 	bnez	$s5,4056a4 <_flushlbf+0x84>
  40573c:	00000000 	nop
  405740:	10600005 	beqz	$v1,405758 <_flushlbf+0x138>
  405744:	8fbf0034 	lw	$ra,52($sp)
  405748:	8f848b80 	lw	$a0,-29824($gp)
  40574c:	0c101ed4 	jal	407b50 <_usvsema>
  405750:	00000000 	nop
  405754:	8fbf0034 	lw	$ra,52($sp)
  405758:	8fb00018 	lw	$s0,24($sp)
  40575c:	8fb1001c 	lw	$s1,28($sp)
  405760:	8fb20020 	lw	$s2,32($sp)
  405764:	8fb30024 	lw	$s3,36($sp)
  405768:	8fb40028 	lw	$s4,40($sp)
  40576c:	8fb5002c 	lw	$s5,44($sp)
  405770:	8fb60030 	lw	$s6,48($sp)
  405774:	03e00008 	jr	$ra
  405778:	27bd0038 	addiu	$sp,$sp,56

0040577c <_findiop>:
  40577c:	8f9888d4 	lw	$t8,-30508($gp)
  405780:	27998294 	addiu	$t9,$gp,-32108
  405784:	8f8e8048 	lw	$t6,-32696($gp)
  405788:	03191023 	subu	$v0,$t8,$t9
  40578c:	00024103 	sra	$t0,$v0,0x4
  405790:	27bdffd8 	addiu	$sp,$sp,-40
  405794:	29010065 	slti	$at,$t0,101
  405798:	25cf0001 	addiu	$t7,$t6,1
  40579c:	afbf0014 	sw	$ra,20($sp)
  4057a0:	af8f8048 	sw	$t7,-32696($gp)
  4057a4:	27848030 	addiu	$a0,$gp,-32720
  4057a8:	14200003 	bnez	$at,4057b8 <_findiop+0x3c>
  4057ac:	af888040 	sw	$t0,-32704($gp)
  4057b0:	24090064 	li	$t1,100
  4057b4:	af898040 	sw	$t1,-32704($gp)
  4057b8:	8c820010 	lw	$v0,16($a0)
  4057bc:	8c830000 	lw	$v1,0($a0)
  4057c0:	2442ffff 	addiu	$v0,$v0,-1
  4057c4:	0440000c 	bltz	$v0,4057f8 <_findiop+0x7c>
  4057c8:	24870014 	addiu	$a3,$a0,20
  4057cc:	906a000c 	lbu	$t2,12($v1)
  4057d0:	2442ffff 	addiu	$v0,$v0,-1
  4057d4:	15400006 	bnez	$t2,4057f0 <_findiop+0x74>
  4057d8:	00000000 	nop
  4057dc:	ac600000 	sw	$zero,0($v1)
  4057e0:	ac600004 	sw	$zero,4($v1)
  4057e4:	ac600008 	sw	$zero,8($v1)
  4057e8:	10000021 	b	405870 <_findiop+0xf4>
  4057ec:	00601025 	move	$v0,$v1
  4057f0:	0441fff6 	bgez	$v0,4057cc <_findiop+0x50>
  4057f4:	24630010 	addiu	$v1,$v1,16
  4057f8:	8c840014 	lw	$a0,20($a0)
  4057fc:	00000000 	nop
  405800:	1480ffed 	bnez	$a0,4057b8 <_findiop+0x3c>
  405804:	00000000 	nop
  405808:	240400c8 	li	$a0,200
  40580c:	0c101a6a 	jal	4069a8 <_malloc>
  405810:	afa70020 	sw	$a3,32($sp)
  405814:	8fa70020 	lw	$a3,32($sp)
  405818:	14400003 	bnez	$v0,405828 <_findiop+0xac>
  40581c:	00402025 	move	$a0,$v0
  405820:	10000013 	b	405870 <_findiop+0xf4>
  405824:	00001025 	move	$v0,$zero
  405828:	00002825 	move	$a1,$zero
  40582c:	240600c8 	li	$a2,200
  405830:	afa4001c 	sw	$a0,28($sp)
  405834:	0c10194c 	jal	406530 <memset>
  405838:	afa70020 	sw	$a3,32($sp)
  40583c:	8fa4001c 	lw	$a0,28($sp)
  405840:	8fa70020 	lw	$a3,32($sp)
  405844:	240b0008 	li	$t3,8
  405848:	24820018 	addiu	$v0,$a0,24
  40584c:	248c0098 	addiu	$t4,$a0,152
  405850:	248d00b8 	addiu	$t5,$a0,184
  405854:	248e00c0 	addiu	$t6,$a0,192
  405858:	ac820000 	sw	$v0,0($a0)
  40585c:	ac8b0010 	sw	$t3,16($a0)
  405860:	ac8c0004 	sw	$t4,4($a0)
  405864:	ac8d0008 	sw	$t5,8($a0)
  405868:	ac8e000c 	sw	$t6,12($a0)
  40586c:	ace40000 	sw	$a0,0($a3)
  405870:	8fbf0014 	lw	$ra,20($sp)
  405874:	27bd0028 	addiu	$sp,$sp,40
  405878:	03e00008 	jr	$ra
  40587c:	00000000 	nop

00405880 <_setbufend>:
  405880:	8f8e80d4 	lw	$t6,-32556($gp)
  405884:	27bdffe8 	addiu	$sp,$sp,-24
  405888:	afbf0014 	sw	$ra,20($sp)
  40588c:	afa5001c 	sw	$a1,28($sp)
  405890:	11c00008 	beqz	$t6,4058b4 <_setbufend+0x34>
  405894:	00803025 	move	$a2,$a0
  405898:	8f848b80 	lw	$a0,-29824($gp)
  40589c:	0c101ecc 	jal	407b30 <_uspsema>
  4058a0:	afa60018 	sw	$a2,24($sp)
  4058a4:	8fa60018 	lw	$a2,24($sp)
  4058a8:	38470001 	xori	$a3,$v0,0x1
  4058ac:	10000002 	b	4058b8 <_setbufend+0x38>
  4058b0:	2ce70001 	sltiu	$a3,$a3,1
  4058b4:	00003825 	move	$a3,$zero
  4058b8:	27828030 	addiu	$v0,$gp,-32720
  4058bc:	8c430000 	lw	$v1,0($v0)
  4058c0:	00000000 	nop
  4058c4:	00c3082b 	sltu	$at,$a2,$v1
  4058c8:	1420001b 	bnez	$at,405938 <_setbufend+0xb8>
  4058cc:	00000000 	nop
  4058d0:	8c4f0010 	lw	$t7,16($v0)
  4058d4:	00000000 	nop
  4058d8:	000fc100 	sll	$t8,$t7,0x4
  4058dc:	0078c821 	addu	$t9,$v1,$t8
  4058e0:	00d9082b 	sltu	$at,$a2,$t9
  4058e4:	10200014 	beqz	$at,405938 <_setbufend+0xb8>
  4058e8:	00c32023 	subu	$a0,$a2,$v1
  4058ec:	8c490004 	lw	$t1,4($v0)
  4058f0:	00044103 	sra	$t0,$a0,0x4
  4058f4:	00085080 	sll	$t2,$t0,0x2
  4058f8:	012a2821 	addu	$a1,$t1,$t2
  4058fc:	8cac0000 	lw	$t4,0($a1)
  405900:	8fab001c 	lw	$t3,28($sp)
  405904:	01002025 	move	$a0,$t0
  405908:	116c0002 	beq	$t3,$t4,405914 <_setbufend+0x94>
  40590c:	00000000 	nop
  405910:	acab0000 	sw	$t3,0($a1)
  405914:	8c4d0008 	lw	$t5,8($v0)
  405918:	00000000 	nop
  40591c:	01a41821 	addu	$v1,$t5,$a0
  405920:	906e0000 	lbu	$t6,0($v1)
  405924:	00000000 	nop
  405928:	11c00007 	beqz	$t6,405948 <_setbufend+0xc8>
  40592c:	00000000 	nop
  405930:	10000005 	b	405948 <_setbufend+0xc8>
  405934:	a0600000 	sb	$zero,0($v1)
  405938:	8c420014 	lw	$v0,20($v0)
  40593c:	00000000 	nop
  405940:	1440ffde 	bnez	$v0,4058bc <_setbufend+0x3c>
  405944:	00000000 	nop
  405948:	10e00005 	beqz	$a3,405960 <_setbufend+0xe0>
  40594c:	8fbf0014 	lw	$ra,20($sp)
  405950:	8f848b80 	lw	$a0,-29824($gp)
  405954:	0c101ed4 	jal	407b50 <_usvsema>
  405958:	00000000 	nop
  40595c:	8fbf0014 	lw	$ra,20($sp)
  405960:	27bd0018 	addiu	$sp,$sp,24
  405964:	03e00008 	jr	$ra
  405968:	00000000 	nop

0040596c <_realbufend>:
  40596c:	8f8e80d4 	lw	$t6,-32556($gp)
  405970:	27bdffe0 	addiu	$sp,$sp,-32
  405974:	afbf0014 	sw	$ra,20($sp)
  405978:	11c00008 	beqz	$t6,40599c <_realbufend+0x30>
  40597c:	00802825 	move	$a1,$a0
  405980:	8f848b80 	lw	$a0,-29824($gp)
  405984:	0c101ecc 	jal	407b30 <_uspsema>
  405988:	afa50020 	sw	$a1,32($sp)
  40598c:	8fa50020 	lw	$a1,32($sp)
  405990:	38440001 	xori	$a0,$v0,0x1
  405994:	10000002 	b	4059a0 <_realbufend+0x34>
  405998:	2c840001 	sltiu	$a0,$a0,1
  40599c:	00002025 	move	$a0,$zero
  4059a0:	27828030 	addiu	$v0,$gp,-32720
  4059a4:	8c430000 	lw	$v1,0($v0)
  4059a8:	00000000 	nop
  4059ac:	00a3082b 	sltu	$at,$a1,$v1
  4059b0:	14200016 	bnez	$at,405a0c <_realbufend+0xa0>
  4059b4:	00000000 	nop
  4059b8:	8c4f0010 	lw	$t7,16($v0)
  4059bc:	00000000 	nop
  4059c0:	000fc100 	sll	$t8,$t7,0x4
  4059c4:	0078c821 	addu	$t9,$v1,$t8
  4059c8:	00b9082b 	sltu	$at,$a1,$t9
  4059cc:	1020000f 	beqz	$at,405a0c <_realbufend+0xa0>
  4059d0:	00a34823 	subu	$t1,$a1,$v1
  4059d4:	8c480004 	lw	$t0,4($v0)
  4059d8:	00095103 	sra	$t2,$t1,0x4
  4059dc:	000a5880 	sll	$t3,$t2,0x2
  4059e0:	010b6021 	addu	$t4,$t0,$t3
  4059e4:	8d860000 	lw	$a2,0($t4)
  4059e8:	10800006 	beqz	$a0,405a04 <_realbufend+0x98>
  4059ec:	00000000 	nop
  4059f0:	8f848b80 	lw	$a0,-29824($gp)
  4059f4:	0c101ed4 	jal	407b50 <_usvsema>
  4059f8:	afa60018 	sw	$a2,24($sp)
  4059fc:	8fa60018 	lw	$a2,24($sp)
  405a00:	00000000 	nop
  405a04:	1000000b 	b	405a34 <_realbufend+0xc8>
  405a08:	00c01025 	move	$v0,$a2
  405a0c:	8c420014 	lw	$v0,20($v0)
  405a10:	00000000 	nop
  405a14:	1440ffe3 	bnez	$v0,4059a4 <_realbufend+0x38>
  405a18:	00000000 	nop
  405a1c:	10800005 	beqz	$a0,405a34 <_realbufend+0xc8>
  405a20:	00001025 	move	$v0,$zero
  405a24:	8f848b80 	lw	$a0,-29824($gp)
  405a28:	0c101ed4 	jal	407b50 <_usvsema>
  405a2c:	00000000 	nop
  405a30:	00001025 	move	$v0,$zero
  405a34:	8fbf0014 	lw	$ra,20($sp)
  405a38:	27bd0020 	addiu	$sp,$sp,32
  405a3c:	03e00008 	jr	$ra
  405a40:	00000000 	nop

00405a44 <_incbufend>:
  405a44:	8f8e80d4 	lw	$t6,-32556($gp)
  405a48:	27bdffe8 	addiu	$sp,$sp,-24
  405a4c:	afa5001c 	sw	$a1,28($sp)
  405a50:	00802825 	move	$a1,$a0
  405a54:	afbf0014 	sw	$ra,20($sp)
  405a58:	11c00008 	beqz	$t6,405a7c <_incbufend+0x38>
  405a5c:	afa40018 	sw	$a0,24($sp)
  405a60:	8f848b80 	lw	$a0,-29824($gp)
  405a64:	0c101ecc 	jal	407b30 <_uspsema>
  405a68:	afa50018 	sw	$a1,24($sp)
  405a6c:	8fa50018 	lw	$a1,24($sp)
  405a70:	38480001 	xori	$t0,$v0,0x1
  405a74:	10000002 	b	405a80 <_incbufend+0x3c>
  405a78:	2d080001 	sltiu	$t0,$t0,1
  405a7c:	00004025 	move	$t0,$zero
  405a80:	27828030 	addiu	$v0,$gp,-32720
  405a84:	8c430000 	lw	$v1,0($v0)
  405a88:	00000000 	nop
  405a8c:	00a3082b 	sltu	$at,$a1,$v1
  405a90:	14200018 	bnez	$at,405af4 <_incbufend+0xb0>
  405a94:	00000000 	nop
  405a98:	8c4f0010 	lw	$t7,16($v0)
  405a9c:	00000000 	nop
  405aa0:	000fc100 	sll	$t8,$t7,0x4
  405aa4:	0078c821 	addu	$t9,$v1,$t8
  405aa8:	00b9082b 	sltu	$at,$a1,$t9
  405aac:	10200011 	beqz	$at,405af4 <_incbufend+0xb0>
  405ab0:	00a32023 	subu	$a0,$a1,$v1
  405ab4:	8c4a0004 	lw	$t2,4($v0)
  405ab8:	00044903 	sra	$t1,$a0,0x4
  405abc:	00095880 	sll	$t3,$t1,0x2
  405ac0:	014b3021 	addu	$a2,$t2,$t3
  405ac4:	8ccc0000 	lw	$t4,0($a2)
  405ac8:	00000000 	nop
  405acc:	258d0001 	addiu	$t5,$t4,1
  405ad0:	accd0000 	sw	$t5,0($a2)
  405ad4:	8c4e0008 	lw	$t6,8($v0)
  405ad8:	00000000 	nop
  405adc:	01c93821 	addu	$a3,$t6,$t1
  405ae0:	90ef0000 	lbu	$t7,0($a3)
  405ae4:	00000000 	nop
  405ae8:	25f80001 	addiu	$t8,$t7,1
  405aec:	10000005 	b	405b04 <_incbufend+0xc0>
  405af0:	a0f80000 	sb	$t8,0($a3)
  405af4:	8c420014 	lw	$v0,20($v0)
  405af8:	00000000 	nop
  405afc:	1440ffe1 	bnez	$v0,405a84 <_incbufend+0x40>
  405b00:	00000000 	nop
  405b04:	11000005 	beqz	$t0,405b1c <_incbufend+0xd8>
  405b08:	8fbf0014 	lw	$ra,20($sp)
  405b0c:	8f848b80 	lw	$a0,-29824($gp)
  405b10:	0c101ed4 	jal	407b50 <_usvsema>
  405b14:	00000000 	nop
  405b18:	8fbf0014 	lw	$ra,20($sp)
  405b1c:	27bd0018 	addiu	$sp,$sp,24
  405b20:	03e00008 	jr	$ra
  405b24:	00000000 	nop

00405b28 <_resetbufend>:
  405b28:	8f8e80d4 	lw	$t6,-32556($gp)
  405b2c:	27bdffe8 	addiu	$sp,$sp,-24
  405b30:	afbf0014 	sw	$ra,20($sp)
  405b34:	11c00008 	beqz	$t6,405b58 <_resetbufend+0x30>
  405b38:	00802825 	move	$a1,$a0
  405b3c:	8f848b80 	lw	$a0,-29824($gp)
  405b40:	0c101ecc 	jal	407b30 <_uspsema>
  405b44:	afa50018 	sw	$a1,24($sp)
  405b48:	8fa50018 	lw	$a1,24($sp)
  405b4c:	38470001 	xori	$a3,$v0,0x1
  405b50:	10000002 	b	405b5c <_resetbufend+0x34>
  405b54:	2ce70001 	sltiu	$a3,$a3,1
  405b58:	00003825 	move	$a3,$zero
  405b5c:	27828030 	addiu	$v0,$gp,-32720
  405b60:	8c430000 	lw	$v1,0($v0)
  405b64:	00000000 	nop
  405b68:	00a3082b 	sltu	$at,$a1,$v1
  405b6c:	14200018 	bnez	$at,405bd0 <_resetbufend+0xa8>
  405b70:	00000000 	nop
  405b74:	8c4f0010 	lw	$t7,16($v0)
  405b78:	00000000 	nop
  405b7c:	000fc100 	sll	$t8,$t7,0x4
  405b80:	0078c821 	addu	$t9,$v1,$t8
  405b84:	00b9082b 	sltu	$at,$a1,$t9
  405b88:	10200011 	beqz	$at,405bd0 <_resetbufend+0xa8>
  405b8c:	00a32023 	subu	$a0,$a1,$v1
  405b90:	8c490004 	lw	$t1,4($v0)
  405b94:	8c4c0008 	lw	$t4,8($v0)
  405b98:	00044103 	sra	$t0,$a0,0x4
  405b9c:	00085080 	sll	$t2,$t0,0x2
  405ba0:	012a3021 	addu	$a2,$t1,$t2
  405ba4:	01886821 	addu	$t5,$t4,$t0
  405ba8:	91ae0000 	lbu	$t6,0($t5)
  405bac:	8ccb0000 	lw	$t3,0($a2)
  405bb0:	00000000 	nop
  405bb4:	016e7823 	subu	$t7,$t3,$t6
  405bb8:	accf0000 	sw	$t7,0($a2)
  405bbc:	8c580008 	lw	$t8,8($v0)
  405bc0:	00000000 	nop
  405bc4:	0308c821 	addu	$t9,$t8,$t0
  405bc8:	10000005 	b	405be0 <_resetbufend+0xb8>
  405bcc:	a3200000 	sb	$zero,0($t9)
  405bd0:	8c420014 	lw	$v0,20($v0)
  405bd4:	00000000 	nop
  405bd8:	1440ffe1 	bnez	$v0,405b60 <_resetbufend+0x38>
  405bdc:	00000000 	nop
  405be0:	10e00005 	beqz	$a3,405bf8 <_resetbufend+0xd0>
  405be4:	8fbf0014 	lw	$ra,20($sp)
  405be8:	8f848b80 	lw	$a0,-29824($gp)
  405bec:	0c101ed4 	jal	407b50 <_usvsema>
  405bf0:	00000000 	nop
  405bf4:	8fbf0014 	lw	$ra,20($sp)
  405bf8:	27bd0018 	addiu	$sp,$sp,24
  405bfc:	03e00008 	jr	$ra
  405c00:	00000000 	nop

00405c04 <_realbufendadj>:
  405c04:	8f8e80d4 	lw	$t6,-32556($gp)
  405c08:	27bdffd8 	addiu	$sp,$sp,-40
  405c0c:	afbf0014 	sw	$ra,20($sp)
  405c10:	11c00008 	beqz	$t6,405c34 <_realbufendadj+0x30>
  405c14:	00802825 	move	$a1,$a0
  405c18:	8f848b80 	lw	$a0,-29824($gp)
  405c1c:	0c101ecc 	jal	407b30 <_uspsema>
  405c20:	afa50028 	sw	$a1,40($sp)
  405c24:	8fa50028 	lw	$a1,40($sp)
  405c28:	38440001 	xori	$a0,$v0,0x1
  405c2c:	10000002 	b	405c38 <_realbufendadj+0x34>
  405c30:	2c840001 	sltiu	$a0,$a0,1
  405c34:	00002025 	move	$a0,$zero
  405c38:	00003025 	move	$a2,$zero
  405c3c:	27828030 	addiu	$v0,$gp,-32720
  405c40:	8c430000 	lw	$v1,0($v0)
  405c44:	00000000 	nop
  405c48:	00a3082b 	sltu	$at,$a1,$v1
  405c4c:	1420000f 	bnez	$at,405c8c <_realbufendadj+0x88>
  405c50:	00000000 	nop
  405c54:	8c4f0010 	lw	$t7,16($v0)
  405c58:	00000000 	nop
  405c5c:	000fc100 	sll	$t8,$t7,0x4
  405c60:	0078c821 	addu	$t9,$v1,$t8
  405c64:	00b9082b 	sltu	$at,$a1,$t9
  405c68:	10200008 	beqz	$at,405c8c <_realbufendadj+0x88>
  405c6c:	00000000 	nop
  405c70:	8c480008 	lw	$t0,8($v0)
  405c74:	00a34823 	subu	$t1,$a1,$v1
  405c78:	00095103 	sra	$t2,$t1,0x4
  405c7c:	010a5821 	addu	$t3,$t0,$t2
  405c80:	91660000 	lbu	$a2,0($t3)
  405c84:	10000005 	b	405c9c <_realbufendadj+0x98>
  405c88:	00000000 	nop
  405c8c:	8c420014 	lw	$v0,20($v0)
  405c90:	00000000 	nop
  405c94:	1440ffea 	bnez	$v0,405c40 <_realbufendadj+0x3c>
  405c98:	00000000 	nop
  405c9c:	10800007 	beqz	$a0,405cbc <_realbufendadj+0xb8>
  405ca0:	8fbf0014 	lw	$ra,20($sp)
  405ca4:	8f848b80 	lw	$a0,-29824($gp)
  405ca8:	0c101ed4 	jal	407b50 <_usvsema>
  405cac:	afa60018 	sw	$a2,24($sp)
  405cb0:	8fa60018 	lw	$a2,24($sp)
  405cb4:	00000000 	nop
  405cb8:	8fbf0014 	lw	$ra,20($sp)
  405cbc:	27bd0028 	addiu	$sp,$sp,40
  405cc0:	03e00008 	jr	$ra
  405cc4:	00c01025 	move	$v0,$a2

00405cc8 <_realbufdirty>:
  405cc8:	8f8e80d4 	lw	$t6,-32556($gp)
  405ccc:	27bdffd8 	addiu	$sp,$sp,-40
  405cd0:	afbf0014 	sw	$ra,20($sp)
  405cd4:	11c00008 	beqz	$t6,405cf8 <_realbufdirty+0x30>
  405cd8:	00802825 	move	$a1,$a0
  405cdc:	8f848b80 	lw	$a0,-29824($gp)
  405ce0:	0c101ecc 	jal	407b30 <_uspsema>
  405ce4:	afa50028 	sw	$a1,40($sp)
  405ce8:	8fa50028 	lw	$a1,40($sp)
  405cec:	38440001 	xori	$a0,$v0,0x1
  405cf0:	10000002 	b	405cfc <_realbufdirty+0x34>
  405cf4:	2c840001 	sltiu	$a0,$a0,1
  405cf8:	00002025 	move	$a0,$zero
  405cfc:	00003025 	move	$a2,$zero
  405d00:	27828030 	addiu	$v0,$gp,-32720
  405d04:	8c430000 	lw	$v1,0($v0)
  405d08:	00000000 	nop
  405d0c:	00a3082b 	sltu	$at,$a1,$v1
  405d10:	1420000f 	bnez	$at,405d50 <_realbufdirty+0x88>
  405d14:	00000000 	nop
  405d18:	8c4f0010 	lw	$t7,16($v0)
  405d1c:	00000000 	nop
  405d20:	000fc100 	sll	$t8,$t7,0x4
  405d24:	0078c821 	addu	$t9,$v1,$t8
  405d28:	00b9082b 	sltu	$at,$a1,$t9
  405d2c:	10200008 	beqz	$at,405d50 <_realbufdirty+0x88>
  405d30:	00000000 	nop
  405d34:	8c48000c 	lw	$t0,12($v0)
  405d38:	00a34823 	subu	$t1,$a1,$v1
  405d3c:	00095103 	sra	$t2,$t1,0x4
  405d40:	010a5821 	addu	$t3,$t0,$t2
  405d44:	91660000 	lbu	$a2,0($t3)
  405d48:	10000005 	b	405d60 <_realbufdirty+0x98>
  405d4c:	00000000 	nop
  405d50:	8c420014 	lw	$v0,20($v0)
  405d54:	00000000 	nop
  405d58:	1440ffea 	bnez	$v0,405d04 <_realbufdirty+0x3c>
  405d5c:	00000000 	nop
  405d60:	10800007 	beqz	$a0,405d80 <_realbufdirty+0xb8>
  405d64:	8fbf0014 	lw	$ra,20($sp)
  405d68:	8f848b80 	lw	$a0,-29824($gp)
  405d6c:	0c101ed4 	jal	407b50 <_usvsema>
  405d70:	afa6001c 	sw	$a2,28($sp)
  405d74:	8fa6001c 	lw	$a2,28($sp)
  405d78:	00000000 	nop
  405d7c:	8fbf0014 	lw	$ra,20($sp)
  405d80:	27bd0028 	addiu	$sp,$sp,40
  405d84:	03e00008 	jr	$ra
  405d88:	00c01025 	move	$v0,$a2

00405d8c <_setbufdirty>:
  405d8c:	8f8e80d4 	lw	$t6,-32556($gp)
  405d90:	27bdffe8 	addiu	$sp,$sp,-24
  405d94:	afbf0014 	sw	$ra,20($sp)
  405d98:	11c00008 	beqz	$t6,405dbc <_setbufdirty+0x30>
  405d9c:	00802825 	move	$a1,$a0
  405da0:	8f848b80 	lw	$a0,-29824($gp)
  405da4:	0c101ecc 	jal	407b30 <_uspsema>
  405da8:	afa50018 	sw	$a1,24($sp)
  405dac:	8fa50018 	lw	$a1,24($sp)
  405db0:	38440001 	xori	$a0,$v0,0x1
  405db4:	10000002 	b	405dc0 <_setbufdirty+0x34>
  405db8:	2c840001 	sltiu	$a0,$a0,1
  405dbc:	00002025 	move	$a0,$zero
  405dc0:	27828030 	addiu	$v0,$gp,-32720
  405dc4:	8c430000 	lw	$v1,0($v0)
  405dc8:	00000000 	nop
  405dcc:	00a3082b 	sltu	$at,$a1,$v1
  405dd0:	1420000f 	bnez	$at,405e10 <_setbufdirty+0x84>
  405dd4:	00000000 	nop
  405dd8:	8c4f0010 	lw	$t7,16($v0)
  405ddc:	00000000 	nop
  405de0:	000fc100 	sll	$t8,$t7,0x4
  405de4:	0078c821 	addu	$t9,$v1,$t8
  405de8:	00b9082b 	sltu	$at,$a1,$t9
  405dec:	10200008 	beqz	$at,405e10 <_setbufdirty+0x84>
  405df0:	00000000 	nop
  405df4:	8c49000c 	lw	$t1,12($v0)
  405df8:	00a35023 	subu	$t2,$a1,$v1
  405dfc:	000a5903 	sra	$t3,$t2,0x4
  405e00:	24080001 	li	$t0,1
  405e04:	012b6021 	addu	$t4,$t1,$t3
  405e08:	10000005 	b	405e20 <_setbufdirty+0x94>
  405e0c:	a1880000 	sb	$t0,0($t4)
  405e10:	8c420014 	lw	$v0,20($v0)
  405e14:	00000000 	nop
  405e18:	1440ffea 	bnez	$v0,405dc4 <_setbufdirty+0x38>
  405e1c:	00000000 	nop
  405e20:	10800005 	beqz	$a0,405e38 <_setbufdirty+0xac>
  405e24:	8fbf0014 	lw	$ra,20($sp)
  405e28:	8f848b80 	lw	$a0,-29824($gp)
  405e2c:	0c101ed4 	jal	407b50 <_usvsema>
  405e30:	00000000 	nop
  405e34:	8fbf0014 	lw	$ra,20($sp)
  405e38:	27bd0018 	addiu	$sp,$sp,24
  405e3c:	03e00008 	jr	$ra
  405e40:	00000000 	nop

00405e44 <_setbufclean>:
  405e44:	8f8e80d4 	lw	$t6,-32556($gp)
  405e48:	27bdffe8 	addiu	$sp,$sp,-24
  405e4c:	afbf0014 	sw	$ra,20($sp)
  405e50:	11c00008 	beqz	$t6,405e74 <_setbufclean+0x30>
  405e54:	00802825 	move	$a1,$a0
  405e58:	8f848b80 	lw	$a0,-29824($gp)
  405e5c:	0c101ecc 	jal	407b30 <_uspsema>
  405e60:	afa50018 	sw	$a1,24($sp)
  405e64:	8fa50018 	lw	$a1,24($sp)
  405e68:	38440001 	xori	$a0,$v0,0x1
  405e6c:	10000002 	b	405e78 <_setbufclean+0x34>
  405e70:	2c840001 	sltiu	$a0,$a0,1
  405e74:	00002025 	move	$a0,$zero
  405e78:	27828030 	addiu	$v0,$gp,-32720
  405e7c:	8c430000 	lw	$v1,0($v0)
  405e80:	00000000 	nop
  405e84:	00a3082b 	sltu	$at,$a1,$v1
  405e88:	1420000e 	bnez	$at,405ec4 <_setbufclean+0x80>
  405e8c:	00000000 	nop
  405e90:	8c4f0010 	lw	$t7,16($v0)
  405e94:	00000000 	nop
  405e98:	000fc100 	sll	$t8,$t7,0x4
  405e9c:	0078c821 	addu	$t9,$v1,$t8
  405ea0:	00b9082b 	sltu	$at,$a1,$t9
  405ea4:	10200007 	beqz	$at,405ec4 <_setbufclean+0x80>
  405ea8:	00000000 	nop
  405eac:	8c48000c 	lw	$t0,12($v0)
  405eb0:	00a34823 	subu	$t1,$a1,$v1
  405eb4:	00095103 	sra	$t2,$t1,0x4
  405eb8:	010a5821 	addu	$t3,$t0,$t2
  405ebc:	10000005 	b	405ed4 <_setbufclean+0x90>
  405ec0:	a1600000 	sb	$zero,0($t3)
  405ec4:	8c420014 	lw	$v0,20($v0)
  405ec8:	00000000 	nop
  405ecc:	1440ffeb 	bnez	$v0,405e7c <_setbufclean+0x38>
  405ed0:	00000000 	nop
  405ed4:	10800005 	beqz	$a0,405eec <_setbufclean+0xa8>
  405ed8:	8fbf0014 	lw	$ra,20($sp)
  405edc:	8f848b80 	lw	$a0,-29824($gp)
  405ee0:	0c101ed4 	jal	407b50 <_usvsema>
  405ee4:	00000000 	nop
  405ee8:	8fbf0014 	lw	$ra,20($sp)
  405eec:	27bd0018 	addiu	$sp,$sp,24
  405ef0:	03e00008 	jr	$ra
  405ef4:	00000000 	nop

00405ef8 <_bufsync>:
  405ef8:	8c8e0004 	lw	$t6,4($a0)
  405efc:	00000000 	nop
  405f00:	00ae1023 	subu	$v0,$a1,$t6
  405f04:	04410004 	bgez	$v0,405f18 <_bufsync+0x20>
  405f08:	00000000 	nop
  405f0c:	ac850004 	sw	$a1,4($a0)
  405f10:	03e00008 	jr	$ra
  405f14:	ac800000 	sw	$zero,0($a0)
  405f18:	8c8f0000 	lw	$t7,0($a0)
  405f1c:	00000000 	nop
  405f20:	004f082a 	slt	$at,$v0,$t7
  405f24:	10200002 	beqz	$at,405f30 <_bufsync+0x38>
  405f28:	00000000 	nop
  405f2c:	ac820000 	sw	$v0,0($a0)
  405f30:	03e00008 	jr	$ra
  405f34:	00000000 	nop

00405f38 <_xflsbuf>:
  405f38:	27bdffd8 	addiu	$sp,$sp,-40
  405f3c:	afbf0024 	sw	$ra,36($sp)
  405f40:	afb30020 	sw	$s3,32($sp)
  405f44:	afb2001c 	sw	$s2,28($sp)
  405f48:	afb10018 	sw	$s1,24($sp)
  405f4c:	afb00014 	sw	$s0,20($sp)
  405f50:	8c920008 	lw	$s2,8($a0)
  405f54:	9082000d 	lbu	$v0,13($a0)
  405f58:	8c8e0004 	lw	$t6,4($a0)
  405f5c:	28410064 	slti	$at,$v0,100
  405f60:	00809825 	move	$s3,$a0
  405f64:	ac920004 	sw	$s2,4($a0)
  405f68:	10200007 	beqz	$at,405f88 <_xflsbuf+0x50>
  405f6c:	01d28823 	subu	$s1,$t6,$s2
  405f70:	00027880 	sll	$t7,$v0,0x2
  405f74:	3c050042 	lui	$a1,0x42
  405f78:	00af2821 	addu	$a1,$a1,$t7
  405f7c:	8ca5dad0 	lw	$a1,-9520($a1)
  405f80:	10000005 	b	405f98 <_xflsbuf+0x60>
  405f84:	9278000c 	lbu	$t8,12($s3)
  405f88:	0c10165b 	jal	40596c <_realbufend>
  405f8c:	02602025 	move	$a0,$s3
  405f90:	00402825 	move	$a1,$v0
  405f94:	9278000c 	lbu	$t8,12($s3)
  405f98:	00b24023 	subu	$t0,$a1,$s2
  405f9c:	33190044 	andi	$t9,$t8,0x44
  405fa0:	13200003 	beqz	$t9,405fb0 <_xflsbuf+0x78>
  405fa4:	00000000 	nop
  405fa8:	10000002 	b	405fb4 <_xflsbuf+0x7c>
  405fac:	ae600000 	sw	$zero,0($s3)
  405fb0:	ae680000 	sw	$t0,0($s3)
  405fb4:	8e620000 	lw	$v0,0($s3)
  405fb8:	00000000 	nop
  405fbc:	04410003 	bgez	$v0,405fcc <_xflsbuf+0x94>
  405fc0:	00401825 	move	$v1,$v0
  405fc4:	10000001 	b	405fcc <_xflsbuf+0x94>
  405fc8:	00001825 	move	$v1,$zero
  405fcc:	8e690004 	lw	$t1,4($s3)
  405fd0:	00000000 	nop
  405fd4:	00a95023 	subu	$t2,$a1,$t1
  405fd8:	0143082a 	slt	$at,$t2,$v1
  405fdc:	10200003 	beqz	$at,405fec <_xflsbuf+0xb4>
  405fe0:	00000000 	nop
  405fe4:	0c1017be 	jal	405ef8 <_bufsync>
  405fe8:	02602025 	move	$a0,$s3
  405fec:	9262000d 	lbu	$v0,13($s3)
  405ff0:	3c050042 	lui	$a1,0x42
  405ff4:	28410064 	slti	$at,$v0,100
  405ff8:	10200005 	beqz	$at,406010 <_xflsbuf+0xd8>
  405ffc:	24a5e2b0 	addiu	$a1,$a1,-7504
  406000:	00a25821 	addu	$t3,$a1,$v0
  406004:	91630000 	lbu	$v1,0($t3)
  406008:	10000006 	b	406024 <_xflsbuf+0xec>
  40600c:	00000000 	nop
  406010:	0c101701 	jal	405c04 <_realbufendadj>
  406014:	02602025 	move	$a0,$s3
  406018:	3c050042 	lui	$a1,0x42
  40601c:	24a5e2b0 	addiu	$a1,$a1,-7504
  406020:	00401825 	move	$v1,$v0
  406024:	10600017 	beqz	$v1,406084 <_xflsbuf+0x14c>
  406028:	00000000 	nop
  40602c:	9262000d 	lbu	$v0,13($s3)
  406030:	00000000 	nop
  406034:	28410064 	slti	$at,$v0,100
  406038:	10200010 	beqz	$at,40607c <_xflsbuf+0x144>
  40603c:	00a26021 	addu	$t4,$a1,$v0
  406040:	91840000 	lbu	$a0,0($t4)
  406044:	00026880 	sll	$t5,$v0,0x2
  406048:	1080000e 	beqz	$a0,406084 <_xflsbuf+0x14c>
  40604c:	3c0e0042 	lui	$t6,0x42
  406050:	25cedad0 	addiu	$t6,$t6,-9520
  406054:	01ae1821 	addu	$v1,$t5,$t6
  406058:	8c6f0000 	lw	$t7,0($v1)
  40605c:	00000000 	nop
  406060:	01e4c023 	subu	$t8,$t7,$a0
  406064:	ac780000 	sw	$t8,0($v1)
  406068:	9279000d 	lbu	$t9,13($s3)
  40606c:	00000000 	nop
  406070:	00b94021 	addu	$t0,$a1,$t9
  406074:	10000003 	b	406084 <_xflsbuf+0x14c>
  406078:	a1000000 	sb	$zero,0($t0)
  40607c:	0c1016ca 	jal	405b28 <_resetbufend>
  406080:	02602025 	move	$a0,$s3
  406084:	16200003 	bnez	$s1,406094 <_xflsbuf+0x15c>
  406088:	02402825 	move	$a1,$s2
  40608c:	10000015 	b	4060e4 <_xflsbuf+0x1ac>
  406090:	00001025 	move	$v0,$zero
  406094:	9264000d 	lbu	$a0,13($s3)
  406098:	0c101990 	jal	406640 <_write>
  40609c:	02203025 	move	$a2,$s1
  4060a0:	1051000f 	beq	$v0,$s1,4060e0 <_xflsbuf+0x1a8>
  4060a4:	00408025 	move	$s0,$v0
  4060a8:	1c400006 	bgtz	$v0,4060c4 <_xflsbuf+0x18c>
  4060ac:	02308823 	subu	$s1,$s1,$s0
  4060b0:	9269000c 	lbu	$t1,12($s3)
  4060b4:	2402ffff 	li	$v0,-1
  4060b8:	352a0020 	ori	$t2,$t1,0x20
  4060bc:	10000009 	b	4060e4 <_xflsbuf+0x1ac>
  4060c0:	a26a000c 	sb	$t2,12($s3)
  4060c4:	02509021 	addu	$s2,$s2,$s0
  4060c8:	9264000d 	lbu	$a0,13($s3)
  4060cc:	02402825 	move	$a1,$s2
  4060d0:	0c101990 	jal	406640 <_write>
  4060d4:	02203025 	move	$a2,$s1
  4060d8:	1451fff3 	bne	$v0,$s1,4060a8 <_xflsbuf+0x170>
  4060dc:	00408025 	move	$s0,$v0
  4060e0:	00001025 	move	$v0,$zero
  4060e4:	8fbf0024 	lw	$ra,36($sp)
  4060e8:	8fb00014 	lw	$s0,20($sp)
  4060ec:	8fb10018 	lw	$s1,24($sp)
  4060f0:	8fb2001c 	lw	$s2,28($sp)
  4060f4:	8fb30020 	lw	$s3,32($sp)
  4060f8:	03e00008 	jr	$ra
  4060fc:	27bd0028 	addiu	$sp,$sp,40

00406100 <fflush>:
  406100:	27bdffd0 	addiu	$sp,$sp,-48
  406104:	afb30020 	sw	$s3,32($sp)
  406108:	afb10018 	sw	$s1,24($sp)
  40610c:	00808825 	move	$s1,$a0
  406110:	afbf002c 	sw	$ra,44($sp)
  406114:	afb50028 	sw	$s5,40($sp)
  406118:	afb40024 	sw	$s4,36($sp)
  40611c:	afb2001c 	sw	$s2,28($sp)
  406120:	afb00014 	sw	$s0,20($sp)
  406124:	14800047 	bnez	$a0,406244 <fflush+0x144>
  406128:	00009825 	move	$s3,$zero
  40612c:	8f8e80d4 	lw	$t6,-32556($gp)
  406130:	00001825 	move	$v1,$zero
  406134:	11c00008 	beqz	$t6,406158 <fflush+0x58>
  406138:	24140001 	li	$s4,1
  40613c:	8f848b80 	lw	$a0,-29824($gp)
  406140:	0c101ecc 	jal	407b30 <_uspsema>
  406144:	00000000 	nop
  406148:	24140001 	li	$s4,1
  40614c:	00541826 	xor	$v1,$v0,$s4
  406150:	10000001 	b	406158 <fflush+0x58>
  406154:	2c630001 	sltiu	$v1,$v1,1
  406158:	8f848048 	lw	$a0,-32696($gp)
  40615c:	27958030 	addiu	$s5,$gp,-32720
  406160:	8f8f88d4 	lw	$t7,-30508($gp)
  406164:	27988294 	addiu	$t8,$gp,-32108
  406168:	01f81023 	subu	$v0,$t7,$t8
  40616c:	0002c903 	sra	$t9,$v0,0x4
  406170:	2b210065 	slti	$at,$t9,101
  406174:	00809025 	move	$s2,$a0
  406178:	14200003 	bnez	$at,406188 <fflush+0x88>
  40617c:	af998040 	sw	$t9,-32704($gp)
  406180:	24080064 	li	$t0,100
  406184:	af888040 	sw	$t0,-32704($gp)
  406188:	8eb00010 	lw	$s0,16($s5)
  40618c:	8eb10000 	lw	$s1,0($s5)
  406190:	2610ffff 	addiu	$s0,$s0,-1
  406194:	06000020 	bltz	$s0,406218 <fflush+0x118>
  406198:	00000000 	nop
  40619c:	9229000c 	lbu	$t1,12($s1)
  4061a0:	00000000 	nop
  4061a4:	312a0002 	andi	$t2,$t1,0x2
  4061a8:	11400018 	beqz	$t2,40620c <fflush+0x10c>
  4061ac:	00000000 	nop
  4061b0:	10600004 	beqz	$v1,4061c4 <fflush+0xc4>
  4061b4:	00000000 	nop
  4061b8:	8f848b80 	lw	$a0,-29824($gp)
  4061bc:	0c101ed4 	jal	407b50 <_usvsema>
  4061c0:	00000000 	nop
  4061c4:	0c101840 	jal	406100 <fflush>
  4061c8:	02202025 	move	$a0,$s1
  4061cc:	8f8b80d4 	lw	$t3,-32556($gp)
  4061d0:	02629825 	or	$s3,$s3,$v0
  4061d4:	11600007 	beqz	$t3,4061f4 <fflush+0xf4>
  4061d8:	00001825 	move	$v1,$zero
  4061dc:	8f848b80 	lw	$a0,-29824($gp)
  4061e0:	0c101ecc 	jal	407b30 <_uspsema>
  4061e4:	00000000 	nop
  4061e8:	00541826 	xor	$v1,$v0,$s4
  4061ec:	10000001 	b	4061f4 <fflush+0xf4>
  4061f0:	2c630001 	sltiu	$v1,$v1,1
  4061f4:	8f848048 	lw	$a0,-32696($gp)
  4061f8:	00000000 	nop
  4061fc:	12440004 	beq	$s2,$a0,406210 <fflush+0x110>
  406200:	2610ffff 	addiu	$s0,$s0,-1
  406204:	1000ffd6 	b	406160 <fflush+0x60>
  406208:	27958030 	addiu	$s5,$gp,-32720
  40620c:	2610ffff 	addiu	$s0,$s0,-1
  406210:	0601ffe2 	bgez	$s0,40619c <fflush+0x9c>
  406214:	26310010 	addiu	$s1,$s1,16
  406218:	8eb50014 	lw	$s5,20($s5)
  40621c:	00000000 	nop
  406220:	16a0ffd9 	bnez	$s5,406188 <fflush+0x88>
  406224:	00000000 	nop
  406228:	10600004 	beqz	$v1,40623c <fflush+0x13c>
  40622c:	00000000 	nop
  406230:	8f848b80 	lw	$a0,-29824($gp)
  406234:	0c101ed4 	jal	407b50 <_usvsema>
  406238:	00000000 	nop
  40623c:	10000061 	b	4063c4 <fflush+0x2c4>
  406240:	02601025 	move	$v0,$s3
  406244:	8f8c80d4 	lw	$t4,-32556($gp)
  406248:	00008025 	move	$s0,$zero
  40624c:	11800005 	beqz	$t4,406264 <fflush+0x164>
  406250:	00000000 	nop
  406254:	0c102ac4 	jal	40ab10 <_flockfile>
  406258:	02202025 	move	$a0,$s1
  40625c:	10000001 	b	406264 <fflush+0x164>
  406260:	24100001 	li	$s0,1
  406264:	9223000c 	lbu	$v1,12($s1)
  406268:	00000000 	nop
  40626c:	306d0002 	andi	$t5,$v1,0x2
  406270:	15a0003d 	bnez	$t5,406368 <fflush+0x268>
  406274:	00000000 	nop
  406278:	8e220000 	lw	$v0,0($s1)
  40627c:	00000000 	nop
  406280:	18400004 	blez	$v0,406294 <fflush+0x194>
  406284:	00022823 	negu	$a1,$v0
  406288:	9224000d 	lbu	$a0,13($s1)
  40628c:	0c101984 	jal	406610 <_lseek>
  406290:	24060001 	li	$a2,1
  406294:	9222000d 	lbu	$v0,13($s1)
  406298:	8e2e0008 	lw	$t6,8($s1)
  40629c:	28410064 	slti	$at,$v0,100
  4062a0:	ae200000 	sw	$zero,0($s1)
  4062a4:	10200007 	beqz	$at,4062c4 <fflush+0x1c4>
  4062a8:	ae2e0004 	sw	$t6,4($s1)
  4062ac:	3c050042 	lui	$a1,0x42
  4062b0:	24a5e2b0 	addiu	$a1,$a1,-7504
  4062b4:	00a27821 	addu	$t7,$a1,$v0
  4062b8:	91e30000 	lbu	$v1,0($t7)
  4062bc:	10000006 	b	4062d8 <fflush+0x1d8>
  4062c0:	00000000 	nop
  4062c4:	0c101701 	jal	405c04 <_realbufendadj>
  4062c8:	02202025 	move	$a0,$s1
  4062cc:	3c050042 	lui	$a1,0x42
  4062d0:	24a5e2b0 	addiu	$a1,$a1,-7504
  4062d4:	00401825 	move	$v1,$v0
  4062d8:	10600017 	beqz	$v1,406338 <fflush+0x238>
  4062dc:	00000000 	nop
  4062e0:	9222000d 	lbu	$v0,13($s1)
  4062e4:	00000000 	nop
  4062e8:	28410064 	slti	$at,$v0,100
  4062ec:	10200010 	beqz	$at,406330 <fflush+0x230>
  4062f0:	00a2c021 	addu	$t8,$a1,$v0
  4062f4:	93040000 	lbu	$a0,0($t8)
  4062f8:	0002c880 	sll	$t9,$v0,0x2
  4062fc:	1080000e 	beqz	$a0,406338 <fflush+0x238>
  406300:	3c080042 	lui	$t0,0x42
  406304:	2508dad0 	addiu	$t0,$t0,-9520
  406308:	03281821 	addu	$v1,$t9,$t0
  40630c:	8c690000 	lw	$t1,0($v1)
  406310:	00000000 	nop
  406314:	01245023 	subu	$t2,$t1,$a0
  406318:	ac6a0000 	sw	$t2,0($v1)
  40631c:	922b000d 	lbu	$t3,13($s1)
  406320:	00000000 	nop
  406324:	00ab6021 	addu	$t4,$a1,$t3
  406328:	10000003 	b	406338 <fflush+0x238>
  40632c:	a1800000 	sb	$zero,0($t4)
  406330:	0c1016ca 	jal	405b28 <_resetbufend>
  406334:	02202025 	move	$a0,$s1
  406338:	9223000c 	lbu	$v1,12($s1)
  40633c:	00000000 	nop
  406340:	306d0080 	andi	$t5,$v1,0x80
  406344:	11a00002 	beqz	$t5,406350 <fflush+0x250>
  406348:	306efffe 	andi	$t6,$v1,0xfffe
  40634c:	a22e000c 	sb	$t6,12($s1)
  406350:	12000003 	beqz	$s0,406360 <fflush+0x260>
  406354:	00000000 	nop
  406358:	0c102aed 	jal	40abb4 <_funlockfile>
  40635c:	02202025 	move	$a0,$s1
  406360:	10000018 	b	4063c4 <fflush+0x2c4>
  406364:	00001025 	move	$v0,$zero
  406368:	8e220008 	lw	$v0,8($s1)
  40636c:	00000000 	nop
  406370:	1040000b 	beqz	$v0,4063a0 <fflush+0x2a0>
  406374:	30780080 	andi	$t8,$v1,0x80
  406378:	8e2f0004 	lw	$t7,4($s1)
  40637c:	00000000 	nop
  406380:	004f082b 	sltu	$at,$v0,$t7
  406384:	10200006 	beqz	$at,4063a0 <fflush+0x2a0>
  406388:	30780080 	andi	$t8,$v1,0x80
  40638c:	0c1017ce 	jal	405f38 <_xflsbuf>
  406390:	02202025 	move	$a0,$s1
  406394:	9223000c 	lbu	$v1,12($s1)
  406398:	00409825 	move	$s3,$v0
  40639c:	30780080 	andi	$t8,$v1,0x80
  4063a0:	13000003 	beqz	$t8,4063b0 <fflush+0x2b0>
  4063a4:	3079fffd 	andi	$t9,$v1,0xfffd
  4063a8:	a239000c 	sb	$t9,12($s1)
  4063ac:	ae200000 	sw	$zero,0($s1)
  4063b0:	12000004 	beqz	$s0,4063c4 <fflush+0x2c4>
  4063b4:	02601025 	move	$v0,$s3
  4063b8:	0c102aed 	jal	40abb4 <_funlockfile>
  4063bc:	02202025 	move	$a0,$s1
  4063c0:	02601025 	move	$v0,$s3
  4063c4:	8fbf002c 	lw	$ra,44($sp)
  4063c8:	8fb00014 	lw	$s0,20($sp)
  4063cc:	8fb10018 	lw	$s1,24($sp)
  4063d0:	8fb2001c 	lw	$s2,28($sp)
  4063d4:	8fb30020 	lw	$s3,32($sp)
  4063d8:	8fb40024 	lw	$s4,36($sp)
  4063dc:	8fb50028 	lw	$s5,40($sp)
  4063e0:	03e00008 	jr	$ra
  4063e4:	27bd0030 	addiu	$sp,$sp,48

004063e8 <fclose>:
  4063e8:	27bdffd0 	addiu	$sp,$sp,-48
  4063ec:	afb00018 	sw	$s0,24($sp)
  4063f0:	00808025 	move	$s0,$a0
  4063f4:	afbf001c 	sw	$ra,28($sp)
  4063f8:	10800005 	beqz	$a0,406410 <fclose+0x28>
  4063fc:	afa0002c 	sw	$zero,44($sp)
  406400:	908e000c 	lbu	$t6,12($a0)
  406404:	8f8f80d4 	lw	$t7,-32556($gp)
  406408:	15c00003 	bnez	$t6,406418 <fclose+0x30>
  40640c:	00000000 	nop
  406410:	10000040 	b	406514 <fclose+0x12c>
  406414:	2402ffff 	li	$v0,-1
  406418:	11e00006 	beqz	$t7,406434 <fclose+0x4c>
  40641c:	00000000 	nop
  406420:	0c102ac4 	jal	40ab10 <_flockfile>
  406424:	02002025 	move	$a0,$s0
  406428:	24180001 	li	$t8,1
  40642c:	10000002 	b	406438 <fclose+0x50>
  406430:	afb80028 	sw	$t8,40($sp)
  406434:	afa00028 	sw	$zero,40($sp)
  406438:	8f9980d4 	lw	$t9,-32556($gp)
  40643c:	8f848b80 	lw	$a0,-29824($gp)
  406440:	13200009 	beqz	$t9,406468 <fclose+0x80>
  406444:	00000000 	nop
  406448:	0c101ecc 	jal	407b30 <_uspsema>
  40644c:	00000000 	nop
  406450:	38480001 	xori	$t0,$v0,0x1
  406454:	2d080001 	sltiu	$t0,$t0,1
  406458:	afa80024 	sw	$t0,36($sp)
  40645c:	9203000c 	lbu	$v1,12($s0)
  406460:	10000005 	b	406478 <fclose+0x90>
  406464:	30690083 	andi	$t1,$v1,0x83
  406468:	afa00024 	sw	$zero,36($sp)
  40646c:	9203000c 	lbu	$v1,12($s0)
  406470:	00000000 	nop
  406474:	30690083 	andi	$t1,$v1,0x83
  406478:	11200006 	beqz	$t1,406494 <fclose+0xac>
  40647c:	306a0004 	andi	$t2,$v1,0x4
  406480:	15400004 	bnez	$t2,406494 <fclose+0xac>
  406484:	00000000 	nop
  406488:	0c101840 	jal	406100 <fflush>
  40648c:	02002025 	move	$a0,$s0
  406490:	afa2002c 	sw	$v0,44($sp)
  406494:	9204000d 	lbu	$a0,13($s0)
  406498:	0c101978 	jal	4065e0 <_close>
  40649c:	00000000 	nop
  4064a0:	04410002 	bgez	$v0,4064ac <fclose+0xc4>
  4064a4:	240bffff 	li	$t3,-1
  4064a8:	afab002c 	sw	$t3,44($sp)
  4064ac:	920c000c 	lbu	$t4,12($s0)
  4064b0:	00000000 	nop
  4064b4:	318d0008 	andi	$t5,$t4,0x8
  4064b8:	11a00004 	beqz	$t5,4064cc <fclose+0xe4>
  4064bc:	00000000 	nop
  4064c0:	8e040008 	lw	$a0,8($s0)
  4064c4:	0c101e5f 	jal	40797c <_free>
  4064c8:	00000000 	nop
  4064cc:	ae000008 	sw	$zero,8($s0)
  4064d0:	ae000004 	sw	$zero,4($s0)
  4064d4:	ae000000 	sw	$zero,0($s0)
  4064d8:	a200000c 	sb	$zero,12($s0)
  4064dc:	8fae0028 	lw	$t6,40($sp)
  4064e0:	00000000 	nop
  4064e4:	11c00004 	beqz	$t6,4064f8 <fclose+0x110>
  4064e8:	8faf0024 	lw	$t7,36($sp)
  4064ec:	0c102aed 	jal	40abb4 <_funlockfile>
  4064f0:	02002025 	move	$a0,$s0
  4064f4:	8faf0024 	lw	$t7,36($sp)
  4064f8:	8f848b80 	lw	$a0,-29824($gp)
  4064fc:	11e00004 	beqz	$t7,406510 <fclose+0x128>
  406500:	8fa2002c 	lw	$v0,44($sp)
  406504:	0c101ed4 	jal	407b50 <_usvsema>
  406508:	00000000 	nop
  40650c:	8fa2002c 	lw	$v0,44($sp)
  406510:	00000000 	nop
  406514:	8fbf001c 	lw	$ra,28($sp)
  406518:	8fb00018 	lw	$s0,24($sp)
  40651c:	03e00008 	jr	$ra
  406520:	27bd0030 	addiu	$sp,$sp,48
	...

00406530 <memset>:
  406530:	28c10008 	slti	$at,$a2,8
  406534:	1420001a 	bnez	$at,4065a0 <memset+0x70>
  406538:	00801025 	move	$v0,$a0
  40653c:	10a00005 	beqz	$a1,406554 <memset+0x24>
  406540:	00041823 	negu	$v1,$a0
  406544:	00054200 	sll	$t0,$a1,0x8
  406548:	00a82825 	or	$a1,$a1,$t0
  40654c:	00054400 	sll	$t0,$a1,0x10
  406550:	00a82825 	or	$a1,$a1,$t0
  406554:	30630003 	andi	$v1,$v1,0x3
  406558:	10600003 	beqz	$v1,406568 <memset+0x38>
  40655c:	00c33023 	subu	$a2,$a2,$v1
  406560:	a8850000 	swl	$a1,0($a0)
  406564:	00832021 	addu	$a0,$a0,$v1
  406568:	30c80007 	andi	$t0,$a2,0x7
  40656c:	10c80007 	beq	$a2,$t0,40658c <memset+0x5c>
  406570:	00c83823 	subu	$a3,$a2,$t0
  406574:	00e43821 	addu	$a3,$a3,$a0
  406578:	24840008 	addiu	$a0,$a0,8
  40657c:	ac85fff8 	sw	$a1,-8($a0)
  406580:	1487fffd 	bne	$a0,$a3,406578 <memset+0x48>
  406584:	ac85fffc 	sw	$a1,-4($a0)
  406588:	01003025 	move	$a2,$t0
  40658c:	30c80004 	andi	$t0,$a2,0x4
  406590:	11000003 	beqz	$t0,4065a0 <memset+0x70>
  406594:	00c83023 	subu	$a2,$a2,$t0
  406598:	ac850000 	sw	$a1,0($a0)
  40659c:	24840004 	addiu	$a0,$a0,4
  4065a0:	18c00004 	blez	$a2,4065b4 <memset+0x84>
  4065a4:	00c43821 	addu	$a3,$a2,$a0
  4065a8:	24840001 	addiu	$a0,$a0,1
  4065ac:	1487fffe 	bne	$a0,$a3,4065a8 <memset+0x78>
  4065b0:	a085ffff 	sb	$a1,-1($a0)
  4065b4:	03e00008 	jr	$ra
	...

004065c0 <_cerror>:
  4065c0:	3c080042 	lui	$t0,0x42
  4065c4:	8d08da30 	lw	$t0,-9680($t0)
  4065c8:	2789af6c 	addiu	$t1,$gp,-20628
  4065cc:	11090002 	beq	$t0,$t1,4065d8 <_cerror+0x18>
  4065d0:	af82af6c 	sw	$v0,-20628($gp)
  4065d4:	ad020000 	sw	$v0,0($t0)
  4065d8:	03e00008 	jr	$ra
  4065dc:	2402ffff 	li	$v0,-1

004065e0 <_close>:
  4065e0:	240203ee 	li	$v0,1006
  4065e4:	0000000c 	syscall
  4065e8:	14e00004 	bnez	$a3,4065fc <_close+0x1c>
  4065ec:	00000000 	nop
  4065f0:	00001025 	move	$v0,$zero
  4065f4:	03e00008 	jr	$ra
  4065f8:	00000000 	nop
  4065fc:	3c190040 	lui	$t9,0x40
  406600:	273965c0 	addiu	$t9,$t9,26048
  406604:	03200008 	jr	$t9
	...

00406610 <_lseek>:
  406610:	240203fb 	li	$v0,1019
  406614:	0000000c 	syscall
  406618:	14e00003 	bnez	$a3,406628 <_lseek+0x18>
  40661c:	00000000 	nop
  406620:	03e00008 	jr	$ra
  406624:	00000000 	nop
  406628:	3c190040 	lui	$t9,0x40
  40662c:	273965c0 	addiu	$t9,$t9,26048
  406630:	03200008 	jr	$t9
	...

00406640 <_write>:
  406640:	240203ec 	li	$v0,1004
  406644:	0000000c 	syscall
  406648:	14e00003 	bnez	$a3,406658 <_write+0x18>
  40664c:	00000000 	nop
  406650:	03e00008 	jr	$ra
  406654:	00000000 	nop
  406658:	3c190040 	lui	$t9,0x40
  40665c:	273965c0 	addiu	$t9,$t9,26048
  406660:	03200008 	jr	$t9
	...

00406670 <atexit>:
  406670:	8f8e80dc 	lw	$t6,-32548($gp)
  406674:	27bdffe8 	addiu	$sp,$sp,-24
  406678:	afbf0014 	sw	$ra,20($sp)
  40667c:	11c00008 	beqz	$t6,4066a0 <atexit+0x30>
  406680:	00802825 	move	$a1,$a0
  406684:	8f848b84 	lw	$a0,-29820($gp)
  406688:	0c101ecc 	jal	407b30 <_uspsema>
  40668c:	afa50018 	sw	$a1,24($sp)
  406690:	8fa50018 	lw	$a1,24($sp)
  406694:	38430001 	xori	$v1,$v0,0x1
  406698:	10000002 	b	4066a4 <atexit+0x34>
  40669c:	2c630001 	sltiu	$v1,$v1,1
  4066a0:	00001825 	move	$v1,$zero
  4066a4:	10a00006 	beqz	$a1,4066c0 <atexit+0x50>
  4066a8:	00000000 	nop
  4066ac:	8f828050 	lw	$v0,-32688($gp)
  4066b0:	00000000 	nop
  4066b4:	28410025 	slti	$at,$v0,37
  4066b8:	14200008 	bnez	$at,4066dc <atexit+0x6c>
  4066bc:	00027880 	sll	$t7,$v0,0x2
  4066c0:	10600004 	beqz	$v1,4066d4 <atexit+0x64>
  4066c4:	00000000 	nop
  4066c8:	8f848b84 	lw	$a0,-29820($gp)
  4066cc:	0c101ed4 	jal	407b50 <_usvsema>
  4066d0:	00000000 	nop
  4066d4:	1000000b 	b	406704 <atexit+0x94>
  4066d8:	2402ffff 	li	$v0,-1
  4066dc:	3c010042 	lui	$at,0x42
  4066e0:	002f0821 	addu	$at,$at,$t7
  4066e4:	24420001 	addiu	$v0,$v0,1
  4066e8:	ac250940 	sw	$a1,2368($at)
  4066ec:	10600004 	beqz	$v1,406700 <atexit+0x90>
  4066f0:	af828050 	sw	$v0,-32688($gp)
  4066f4:	8f848b84 	lw	$a0,-29820($gp)
  4066f8:	0c101ed4 	jal	407b50 <_usvsema>
  4066fc:	00000000 	nop
  406700:	00001025 	move	$v0,$zero
  406704:	8fbf0014 	lw	$ra,20($sp)
  406708:	27bd0018 	addiu	$sp,$sp,24
  40670c:	03e00008 	jr	$ra
  406710:	00000000 	nop

00406714 <_exithandle>:
  406714:	8f848050 	lw	$a0,-32688($gp)
  406718:	27bdffe0 	addiu	$sp,$sp,-32
  40671c:	afbf001c 	sw	$ra,28($sp)
  406720:	1880000f 	blez	$a0,406760 <_exithandle+0x4c>
  406724:	afb00018 	sw	$s0,24($sp)
  406728:	3c100042 	lui	$s0,0x42
  40672c:	26100940 	addiu	$s0,$s0,2368
  406730:	2482ffff 	addiu	$v0,$a0,-1
  406734:	00027080 	sll	$t6,$v0,0x2
  406738:	020e7821 	addu	$t7,$s0,$t6
  40673c:	af828050 	sw	$v0,-32688($gp)
  406740:	8df90000 	lw	$t9,0($t7)
  406744:	00000000 	nop
  406748:	0320f809 	jalr	$t9
  40674c:	00000000 	nop
  406750:	8f848050 	lw	$a0,-32688($gp)
  406754:	00000000 	nop
  406758:	1c80fff6 	bgtz	$a0,406734 <_exithandle+0x20>
  40675c:	2482ffff 	addiu	$v0,$a0,-1
  406760:	8fbf001c 	lw	$ra,28($sp)
  406764:	8fb00018 	lw	$s0,24($sp)
  406768:	03e00008 	jr	$ra
  40676c:	27bd0020 	addiu	$sp,$sp,32

00406770 <__call_exitfns>:
  406770:	27bdffe8 	addiu	$sp,$sp,-24
  406774:	afbf0014 	sw	$ra,20($sp)
  406778:	0c1019c5 	jal	406714 <_exithandle>
  40677c:	00000000 	nop
  406780:	8fbf0014 	lw	$ra,20($sp)
  406784:	27bd0018 	addiu	$sp,$sp,24
  406788:	03e00008 	jr	$ra
  40678c:	00000000 	nop

00406790 <__ateachexit>:
  406790:	8f8e80dc 	lw	$t6,-32548($gp)
  406794:	27bdffe8 	addiu	$sp,$sp,-24
  406798:	afbf0014 	sw	$ra,20($sp)
  40679c:	11c00008 	beqz	$t6,4067c0 <__ateachexit+0x30>
  4067a0:	00802825 	move	$a1,$a0
  4067a4:	8f848b84 	lw	$a0,-29820($gp)
  4067a8:	0c101ecc 	jal	407b30 <_uspsema>
  4067ac:	afa50018 	sw	$a1,24($sp)
  4067b0:	8fa50018 	lw	$a1,24($sp)
  4067b4:	38430001 	xori	$v1,$v0,0x1
  4067b8:	10000002 	b	4067c4 <__ateachexit+0x34>
  4067bc:	2c630001 	sltiu	$v1,$v1,1
  4067c0:	00001825 	move	$v1,$zero
  4067c4:	10a00006 	beqz	$a1,4067e0 <__ateachexit+0x50>
  4067c8:	00000000 	nop
  4067cc:	8f828054 	lw	$v0,-32684($gp)
  4067d0:	00000000 	nop
  4067d4:	28410025 	slti	$at,$v0,37
  4067d8:	14200008 	bnez	$at,4067fc <__ateachexit+0x6c>
  4067dc:	00027880 	sll	$t7,$v0,0x2
  4067e0:	10600004 	beqz	$v1,4067f4 <__ateachexit+0x64>
  4067e4:	00000000 	nop
  4067e8:	8f848b84 	lw	$a0,-29820($gp)
  4067ec:	0c101ed4 	jal	407b50 <_usvsema>
  4067f0:	00000000 	nop
  4067f4:	1000000b 	b	406824 <__ateachexit+0x94>
  4067f8:	2402ffff 	li	$v0,-1
  4067fc:	3c010042 	lui	$at,0x42
  406800:	002f0821 	addu	$at,$at,$t7
  406804:	24420001 	addiu	$v0,$v0,1
  406808:	ac2509d8 	sw	$a1,2520($at)
  40680c:	10600004 	beqz	$v1,406820 <__ateachexit+0x90>
  406810:	af828054 	sw	$v0,-32684($gp)
  406814:	8f848b84 	lw	$a0,-29820($gp)
  406818:	0c101ed4 	jal	407b50 <_usvsema>
  40681c:	00000000 	nop
  406820:	00001025 	move	$v0,$zero
  406824:	8fbf0014 	lw	$ra,20($sp)
  406828:	27bd0018 	addiu	$sp,$sp,24
  40682c:	03e00008 	jr	$ra
  406830:	00000000 	nop

00406834 <__eachexithandle>:
  406834:	8f828054 	lw	$v0,-32684($gp)
  406838:	27bdffe0 	addiu	$sp,$sp,-32
  40683c:	2442ffff 	addiu	$v0,$v0,-1
  406840:	afbf001c 	sw	$ra,28($sp)
  406844:	afb10018 	sw	$s1,24($sp)
  406848:	0440000f 	bltz	$v0,406888 <__eachexithandle+0x54>
  40684c:	afb00014 	sw	$s0,20($sp)
  406850:	3c0f0042 	lui	$t7,0x42
  406854:	25ef09d8 	addiu	$t7,$t7,2520
  406858:	00027080 	sll	$t6,$v0,0x2
  40685c:	3c110042 	lui	$s1,0x42
  406860:	263109d8 	addiu	$s1,$s1,2520
  406864:	01cf8021 	addu	$s0,$t6,$t7
  406868:	8e190000 	lw	$t9,0($s0)
  40686c:	00000000 	nop
  406870:	0320f809 	jalr	$t9
  406874:	00000000 	nop
  406878:	2610fffc 	addiu	$s0,$s0,-4
  40687c:	0211082b 	sltu	$at,$s0,$s1
  406880:	1020fff9 	beqz	$at,406868 <__eachexithandle+0x34>
  406884:	00000000 	nop
  406888:	8fbf001c 	lw	$ra,28($sp)
  40688c:	8fb00014 	lw	$s0,20($sp)
  406890:	8fb10018 	lw	$s1,24($sp)
  406894:	03e00008 	jr	$ra
  406898:	27bd0020 	addiu	$sp,$sp,32
  40689c:	00000000 	nop
  4068a0:	27bdffc0 	addiu	$sp,$sp,-64
  4068a4:	afbf0014 	sw	$ra,20($sp)
  4068a8:	14800002 	bnez	$a0,4068b4 <__eachexithandle+0x80>
  4068ac:	00802825 	move	$a1,$a0
  4068b0:	24050008 	li	$a1,8
  4068b4:	000570c2 	srl	$t6,$a1,0x3
  4068b8:	000e7880 	sll	$t7,$t6,0x2
  4068bc:	3c190042 	lui	$t9,0x42
  4068c0:	27390af0 	addiu	$t9,$t9,2800
  4068c4:	25f8fffc 	addiu	$t8,$t7,-4
  4068c8:	03194021 	addu	$t0,$t8,$t9
  4068cc:	8d030000 	lw	$v1,0($t0)
  4068d0:	24090008 	li	$t1,8
  4068d4:	10600002 	beqz	$v1,4068e0 <__eachexithandle+0xac>
  4068d8:	30660003 	andi	$a2,$v1,0x3
  4068dc:	10c00027 	beqz	$a2,40697c <__eachexithandle+0x148>
  4068e0:	00c93804 	sllv	$a3,$t1,$a2
  4068e4:	24aa0008 	addiu	$t2,$a1,8
  4068e8:	01470019 	multu	$t2,$a3
  4068ec:	afa7002c 	sw	$a3,44($sp)
  4068f0:	afa7001c 	sw	$a3,28($sp)
  4068f4:	afa50040 	sw	$a1,64($sp)
  4068f8:	afa60034 	sw	$a2,52($sp)
  4068fc:	afa80020 	sw	$t0,32($sp)
  406900:	00002012 	mflo	$a0
  406904:	0c101a84 	jal	406a10 <_malloc+0x68>
  406908:	00000000 	nop
  40690c:	8fa80020 	lw	$t0,32($sp)
  406910:	8fa3002c 	lw	$v1,44($sp)
  406914:	8fa50040 	lw	$a1,64($sp)
  406918:	8fa60034 	lw	$a2,52($sp)
  40691c:	8fa7001c 	lw	$a3,28($sp)
  406920:	14400003 	bnez	$v0,406930 <__eachexithandle+0xfc>
  406924:	ad020000 	sw	$v0,0($t0)
  406928:	1000001b 	b	406998 <__eachexithandle+0x164>
  40692c:	00001025 	move	$v0,$zero
  406930:	8d020000 	lw	$v0,0($t0)
  406934:	18e00009 	blez	$a3,40695c <__eachexithandle+0x128>
  406938:	24c60001 	addiu	$a2,$a2,1
  40693c:	00402025 	move	$a0,$v0
  406940:	ac450000 	sw	$a1,0($v0)
  406944:	00451021 	addu	$v0,$v0,$a1
  406948:	2463ffff 	addiu	$v1,$v1,-1
  40694c:	24420008 	addiu	$v0,$v0,8
  406950:	1c60fffa 	bgtz	$v1,40693c <__eachexithandle+0x108>
  406954:	ac820008 	sw	$v0,8($a0)
  406958:	afa4003c 	sw	$a0,60($sp)
  40695c:	8fa4003c 	lw	$a0,60($sp)
  406960:	28c10004 	slti	$at,$a2,4
  406964:	14200002 	bnez	$at,406970 <__eachexithandle+0x13c>
  406968:	00000000 	nop
  40696c:	24060003 	li	$a2,3
  406970:	ac860008 	sw	$a2,8($a0)
  406974:	8d030000 	lw	$v1,0($t0)
  406978:	00000000 	nop
  40697c:	8c6b0008 	lw	$t3,8($v1)
  406980:	24620008 	addiu	$v0,$v1,8
  406984:	ad0b0000 	sw	$t3,0($t0)
  406988:	8c6c0000 	lw	$t4,0($v1)
  40698c:	00000000 	nop
  406990:	358d0001 	ori	$t5,$t4,0x1
  406994:	ac6d0000 	sw	$t5,0($v1)
  406998:	8fbf0014 	lw	$ra,20($sp)
  40699c:	27bd0040 	addiu	$sp,$sp,64
  4069a0:	03e00008 	jr	$ra
  4069a4:	00000000 	nop

004069a8 <_malloc>:
  4069a8:	8f8e80e4 	lw	$t6,-32540($gp)
  4069ac:	27bdffe0 	addiu	$sp,$sp,-32
  4069b0:	afbf0014 	sw	$ra,20($sp)
  4069b4:	11c00005 	beqz	$t6,4069cc <_malloc+0x24>
  4069b8:	afa40020 	sw	$a0,32($sp)
  4069bc:	8f998b94 	lw	$t9,-29804($gp)
  4069c0:	8f848b78 	lw	$a0,-29832($gp)
  4069c4:	0320f809 	jalr	$t9
  4069c8:	00000000 	nop
  4069cc:	8fa40020 	lw	$a0,32($sp)
  4069d0:	0c101a84 	jal	406a10 <_malloc+0x68>
  4069d4:	00000000 	nop
  4069d8:	8f8f80e4 	lw	$t7,-32540($gp)
  4069dc:	00401825 	move	$v1,$v0
  4069e0:	11e00008 	beqz	$t7,406a04 <_malloc+0x5c>
  4069e4:	8fbf0014 	lw	$ra,20($sp)
  4069e8:	8f998b98 	lw	$t9,-29800($gp)
  4069ec:	8f848b78 	lw	$a0,-29832($gp)
  4069f0:	0320f809 	jalr	$t9
  4069f4:	afa2001c 	sw	$v0,28($sp)
  4069f8:	8fa3001c 	lw	$v1,28($sp)
  4069fc:	00000000 	nop
  406a00:	8fbf0014 	lw	$ra,20($sp)
  406a04:	27bd0020 	addiu	$sp,$sp,32
  406a08:	03e00008 	jr	$ra
  406a0c:	00601025 	move	$v0,$v1
  406a10:	27bdffd8 	addiu	$sp,$sp,-40
  406a14:	30820007 	andi	$v0,$a0,0x7
  406a18:	afbf0014 	sw	$ra,20($sp)
  406a1c:	10400003 	beqz	$v0,406a2c <_malloc+0x84>
  406a20:	00803025 	move	$a2,$a0
  406a24:	00823023 	subu	$a2,$a0,$v0
  406a28:	24c60008 	addiu	$a2,$a2,8
  406a2c:	8f848b5c 	lw	$a0,-29860($gp)
  406a30:	00000000 	nop
  406a34:	10800025 	beqz	$a0,406acc <_malloc+0x124>
  406a38:	2485fff8 	addiu	$a1,$a0,-8
  406a3c:	8c83fff8 	lw	$v1,-8($a0)
  406a40:	2401fffc 	li	$at,-4
  406a44:	00617024 	and	$t6,$v1,$at
  406a48:	15c6000c 	bne	$t6,$a2,406a7c <_malloc+0xd4>
  406a4c:	01c01825 	move	$v1,$t6
  406a50:	8f878b60 	lw	$a3,-29856($gp)
  406a54:	3c010042 	lui	$at,0x42
  406a58:	24e7001f 	addiu	$a3,$a3,31
  406a5c:	30ef001f 	andi	$t7,$a3,0x1f
  406a60:	000fc080 	sll	$t8,$t7,0x2
  406a64:	00380821 	addu	$at,$at,$t8
  406a68:	ac200a70 	sw	$zero,2672($at)
  406a6c:	af8f8b60 	sw	$t7,-29856($gp)
  406a70:	24a20008 	addiu	$v0,$a1,8
  406a74:	10000087 	b	406c94 <_malloc+0x2ec>
  406a78:	af808b5c 	sw	$zero,-29860($gp)
  406a7c:	2cc10028 	sltiu	$at,$a2,40
  406a80:	14200012 	bnez	$at,406acc <_malloc+0x124>
  406a84:	00c3082b 	sltu	$at,$a2,$v1
  406a88:	10200010 	beqz	$at,406acc <_malloc+0x124>
  406a8c:	00000000 	nop
  406a90:	8f878b60 	lw	$a3,-29856($gp)
  406a94:	3c010042 	lui	$at,0x42
  406a98:	24e7001f 	addiu	$a3,$a3,31
  406a9c:	30f9001f 	andi	$t9,$a3,0x1f
  406aa0:	00194080 	sll	$t0,$t9,0x2
  406aa4:	00280821 	addu	$at,$at,$t0
  406aa8:	ac200a70 	sw	$zero,2672($at)
  406aac:	8ca90000 	lw	$t1,0($a1)
  406ab0:	00000000 	nop
  406ab4:	312a0002 	andi	$t2,$t1,0x2
  406ab8:	afaa0018 	sw	$t2,24($sp)
  406abc:	aca30000 	sw	$v1,0($a1)
  406ac0:	af998b60 	sw	$t9,-29856($gp)
  406ac4:	10000057 	b	406c24 <_malloc+0x27c>
  406ac8:	af808b5c 	sw	$zero,-29860($gp)
  406acc:	afa00018 	sw	$zero,24($sp)
  406ad0:	00002025 	move	$a0,$zero
  406ad4:	0c101e94 	jal	407a50 <__free+0x78>
  406ad8:	afa60028 	sw	$a2,40($sp)
  406adc:	8fa60028 	lw	$a2,40($sp)
  406ae0:	8f878b50 	lw	$a3,-29872($gp)
  406ae4:	2cc10028 	sltiu	$at,$a2,40
  406ae8:	10200005 	beqz	$at,406b00 <_malloc+0x158>
  406aec:	00002825 	move	$a1,$zero
  406af0:	0c101a28 	jal	4068a0 <__eachexithandle+0x6c>
  406af4:	00c02025 	move	$a0,$a2
  406af8:	10000067 	b	406c98 <_malloc+0x2f0>
  406afc:	8fbf0014 	lw	$ra,20($sp)
  406b00:	10e0002d 	beqz	$a3,406bb8 <_malloc+0x210>
  406b04:	00001825 	move	$v1,$zero
  406b08:	00e02025 	move	$a0,$a3
  406b0c:	8c820000 	lw	$v0,0($a0)
  406b10:	00000000 	nop
  406b14:	0046082b 	sltu	$at,$v0,$a2
  406b18:	1420000d 	bnez	$at,406b50 <_malloc+0x1a8>
  406b1c:	00000000 	nop
  406b20:	10600003 	beqz	$v1,406b30 <_malloc+0x188>
  406b24:	0062082b 	sltu	$at,$v1,$v0
  406b28:	14200003 	bnez	$at,406b38 <_malloc+0x190>
  406b2c:	00000000 	nop
  406b30:	00802825 	move	$a1,$a0
  406b34:	00401825 	move	$v1,$v0
  406b38:	8c820010 	lw	$v0,16($a0)
  406b3c:	00000000 	nop
  406b40:	10400009 	beqz	$v0,406b68 <_malloc+0x1c0>
  406b44:	00000000 	nop
  406b48:	1000fff0 	b	406b0c <_malloc+0x164>
  406b4c:	00402025 	move	$a0,$v0
  406b50:	8c820018 	lw	$v0,24($a0)
  406b54:	00000000 	nop
  406b58:	10400003 	beqz	$v0,406b68 <_malloc+0x1c0>
  406b5c:	00000000 	nop
  406b60:	1000ffea 	b	406b0c <_malloc+0x164>
  406b64:	00402025 	move	$a0,$v0
  406b68:	10a00009 	beqz	$a1,406b90 <_malloc+0x1e8>
  406b6c:	00000000 	nop
  406b70:	00a02025 	move	$a0,$a1
  406b74:	afa5001c 	sw	$a1,28($sp)
  406b78:	0c101d62 	jal	407588 <_realloc+0x8e4>
  406b7c:	afa60028 	sw	$a2,40($sp)
  406b80:	8fa5001c 	lw	$a1,28($sp)
  406b84:	8fa60028 	lw	$a2,40($sp)
  406b88:	1000000b 	b	406bb8 <_malloc+0x210>
  406b8c:	00000000 	nop
  406b90:	10870009 	beq	$a0,$a3,406bb8 <_malloc+0x210>
  406b94:	00000000 	nop
  406b98:	afa40020 	sw	$a0,32($sp)
  406b9c:	afa5001c 	sw	$a1,28($sp)
  406ba0:	0c101dde 	jal	407778 <_realloc+0xad4>
  406ba4:	afa60028 	sw	$a2,40($sp)
  406ba8:	8fa40020 	lw	$a0,32($sp)
  406bac:	8fa5001c 	lw	$a1,28($sp)
  406bb0:	8fa60028 	lw	$a2,40($sp)
  406bb4:	af848b50 	sw	$a0,-29872($gp)
  406bb8:	14a00013 	bnez	$a1,406c08 <_malloc+0x260>
  406bbc:	00000000 	nop
  406bc0:	8f828b54 	lw	$v0,-29868($gp)
  406bc4:	00c02025 	move	$a0,$a2
  406bc8:	10400008 	beqz	$v0,406bec <_malloc+0x244>
  406bcc:	00000000 	nop
  406bd0:	8c4b0000 	lw	$t3,0($v0)
  406bd4:	00000000 	nop
  406bd8:	0166082b 	sltu	$at,$t3,$a2
  406bdc:	14200003 	bnez	$at,406bec <_malloc+0x244>
  406be0:	00000000 	nop
  406be4:	10000008 	b	406c08 <_malloc+0x260>
  406be8:	00402825 	move	$a1,$v0
  406bec:	0c101ced 	jal	4073b4 <_realloc+0x710>
  406bf0:	afa60028 	sw	$a2,40($sp)
  406bf4:	8fa60028 	lw	$a2,40($sp)
  406bf8:	14400003 	bnez	$v0,406c08 <_malloc+0x260>
  406bfc:	00402825 	move	$a1,$v0
  406c00:	10000024 	b	406c94 <_malloc+0x2ec>
  406c04:	00001025 	move	$v0,$zero
  406c08:	8cac0000 	lw	$t4,0($a1)
  406c0c:	2401fffd 	li	$at,-3
  406c10:	00ac1021 	addu	$v0,$a1,$t4
  406c14:	8c4d0008 	lw	$t5,8($v0)
  406c18:	00000000 	nop
  406c1c:	01a17024 	and	$t6,$t5,$at
  406c20:	ac4e0008 	sw	$t6,8($v0)
  406c24:	8ca40000 	lw	$a0,0($a1)
  406c28:	8f988b58 	lw	$t8,-29864($gp)
  406c2c:	00861823 	subu	$v1,$a0,$a2
  406c30:	28610030 	slti	$at,$v1,48
  406c34:	1420000e 	bnez	$at,406c70 <_malloc+0x2c8>
  406c38:	00a4c821 	addu	$t9,$a1,$a0
  406c3c:	2463fff8 	addiu	$v1,$v1,-8
  406c40:	aca60000 	sw	$a2,0($a1)
  406c44:	346f0001 	ori	$t7,$v1,0x1
  406c48:	00a61021 	addu	$v0,$a1,$a2
  406c4c:	ac4f0008 	sw	$t7,8($v0)
  406c50:	afa5001c 	sw	$a1,28($sp)
  406c54:	0c101c4e 	jal	407138 <_realloc+0x494>
  406c58:	24440010 	addiu	$a0,$v0,16
  406c5c:	8fa5001c 	lw	$a1,28($sp)
  406c60:	00000000 	nop
  406c64:	8ca40000 	lw	$a0,0($a1)
  406c68:	10000006 	b	406c84 <_malloc+0x2dc>
  406c6c:	8faa0018 	lw	$t2,24($sp)
  406c70:	27280010 	addiu	$t0,$t9,16
  406c74:	17080003 	bne	$t8,$t0,406c84 <_malloc+0x2dc>
  406c78:	8faa0018 	lw	$t2,24($sp)
  406c7c:	af808b54 	sw	$zero,-29868($gp)
  406c80:	8faa0018 	lw	$t2,24($sp)
  406c84:	34890001 	ori	$t1,$a0,0x1
  406c88:	012a5825 	or	$t3,$t1,$t2
  406c8c:	acab0000 	sw	$t3,0($a1)
  406c90:	24a20008 	addiu	$v0,$a1,8
  406c94:	8fbf0014 	lw	$ra,20($sp)
  406c98:	27bd0028 	addiu	$sp,$sp,40
  406c9c:	03e00008 	jr	$ra
  406ca0:	00000000 	nop

00406ca4 <_realloc>:
  406ca4:	27bdffc0 	addiu	$sp,$sp,-64
  406ca8:	afb10018 	sw	$s1,24($sp)
  406cac:	00a08825 	move	$s1,$a1
  406cb0:	afbf001c 	sw	$ra,28($sp)
  406cb4:	afb00014 	sw	$s0,20($sp)
  406cb8:	14800005 	bnez	$a0,406cd0 <_realloc+0x2c>
  406cbc:	afa40040 	sw	$a0,64($sp)
  406cc0:	0c101a6a 	jal	4069a8 <_malloc>
  406cc4:	00a02025 	move	$a0,$a1
  406cc8:	10000117 	b	407128 <_realloc+0x484>
  406ccc:	8fbf001c 	lw	$ra,28($sp)
  406cd0:	8f8f80e4 	lw	$t7,-32540($gp)
  406cd4:	8f998b94 	lw	$t9,-29804($gp)
  406cd8:	11e00005 	beqz	$t7,406cf0 <_realloc+0x4c>
  406cdc:	8fa40040 	lw	$a0,64($sp)
  406ce0:	8f848b78 	lw	$a0,-29832($gp)
  406ce4:	0320f809 	jalr	$t9
  406ce8:	00000000 	nop
  406cec:	8fa40040 	lw	$a0,64($sp)
  406cf0:	0c101e94 	jal	407a50 <__free+0x78>
  406cf4:	00000000 	nop
  406cf8:	8fb80040 	lw	$t8,64($sp)
  406cfc:	32220007 	andi	$v0,$s1,0x7
  406d00:	10400003 	beqz	$v0,406d10 <_realloc+0x6c>
  406d04:	2705fff8 	addiu	$a1,$t8,-8
  406d08:	02228823 	subu	$s1,$s1,$v0
  406d0c:	26310008 	addiu	$s1,$s1,8
  406d10:	8f08fff8 	lw	$t0,-8($t8)
  406d14:	00a08025 	move	$s0,$a1
  406d18:	31090001 	andi	$t1,$t0,0x1
  406d1c:	1520000a 	bnez	$t1,406d48 <_realloc+0xa4>
  406d20:	afa80034 	sw	$t0,52($sp)
  406d24:	8f8a80e4 	lw	$t2,-32540($gp)
  406d28:	8f998b98 	lw	$t9,-29800($gp)
  406d2c:	11400004 	beqz	$t2,406d40 <_realloc+0x9c>
  406d30:	00000000 	nop
  406d34:	8f848b78 	lw	$a0,-29832($gp)
  406d38:	0320f809 	jalr	$t9
  406d3c:	00000000 	nop
  406d40:	100000f8 	b	407124 <_realloc+0x480>
  406d44:	00001025 	move	$v0,$zero
  406d48:	8cab0000 	lw	$t3,0($a1)
  406d4c:	2401fffc 	li	$at,-4
  406d50:	01611824 	and	$v1,$t3,$at
  406d54:	1623000e 	bne	$s1,$v1,406d90 <_realloc+0xec>
  406d58:	aca30000 	sw	$v1,0($a1)
  406d5c:	8fad0034 	lw	$t5,52($sp)
  406d60:	00000000 	nop
  406d64:	acad0000 	sw	$t5,0($a1)
  406d68:	8f8e80e4 	lw	$t6,-32540($gp)
  406d6c:	8f998b98 	lw	$t9,-29800($gp)
  406d70:	11c00005 	beqz	$t6,406d88 <_realloc+0xe4>
  406d74:	8fa20040 	lw	$v0,64($sp)
  406d78:	8f848b78 	lw	$a0,-29832($gp)
  406d7c:	0320f809 	jalr	$t9
  406d80:	00000000 	nop
  406d84:	8fa20040 	lw	$v0,64($sp)
  406d88:	100000e7 	b	407128 <_realloc+0x484>
  406d8c:	8fbf001c 	lw	$ra,28($sp)
  406d90:	2e210028 	sltiu	$at,$s1,40
  406d94:	14200003 	bnez	$at,406da4 <_realloc+0x100>
  406d98:	2c610028 	sltiu	$at,$v1,40
  406d9c:	10200007 	beqz	$at,406dbc <_realloc+0x118>
  406da0:	0071082b 	sltu	$at,$v1,$s1
  406da4:	8fa20034 	lw	$v0,52($sp)
  406da8:	8e030000 	lw	$v1,0($s0)
  406dac:	304f0003 	andi	$t7,$v0,0x3
  406db0:	10000061 	b	406f38 <_realloc+0x294>
  406db4:	afaf0024 	sw	$t7,36($sp)
  406db8:	0071082b 	sltu	$at,$v1,$s1
  406dbc:	10200033 	beqz	$at,406e8c <_realloc+0x1e8>
  406dc0:	00a33821 	addu	$a3,$a1,$v1
  406dc4:	8ce20008 	lw	$v0,8($a3)
  406dc8:	24e70008 	addiu	$a3,$a3,8
  406dcc:	30580001 	andi	$t8,$v0,0x1
  406dd0:	1700001a 	bnez	$t8,406e3c <_realloc+0x198>
  406dd4:	2c410028 	sltiu	$at,$v0,40
  406dd8:	14200018 	bnez	$at,406e3c <_realloc+0x198>
  406ddc:	00624021 	addu	$t0,$v1,$v0
  406de0:	25090008 	addiu	$t1,$t0,8
  406de4:	aca90000 	sw	$t1,0($a1)
  406de8:	8f8a8b54 	lw	$t2,-29868($gp)
  406dec:	00e02025 	move	$a0,$a3
  406df0:	10ea0008 	beq	$a3,$t2,406e14 <_realloc+0x170>
  406df4:	00000000 	nop
  406df8:	afa50028 	sw	$a1,40($sp)
  406dfc:	0c101d62 	jal	407588 <_realloc+0x8e4>
  406e00:	afa70038 	sw	$a3,56($sp)
  406e04:	8fa50028 	lw	$a1,40($sp)
  406e08:	8fa70038 	lw	$a3,56($sp)
  406e0c:	10000003 	b	406e1c <_realloc+0x178>
  406e10:	8ceb0000 	lw	$t3,0($a3)
  406e14:	af808b54 	sw	$zero,-29868($gp)
  406e18:	8ceb0000 	lw	$t3,0($a3)
  406e1c:	2401fffd 	li	$at,-3
  406e20:	00eb1021 	addu	$v0,$a3,$t3
  406e24:	8c4c0008 	lw	$t4,8($v0)
  406e28:	00000000 	nop
  406e2c:	01816824 	and	$t5,$t4,$at
  406e30:	ac4d0008 	sw	$t5,8($v0)
  406e34:	8ca30000 	lw	$v1,0($a1)
  406e38:	00000000 	nop
  406e3c:	0071082b 	sltu	$at,$v1,$s1
  406e40:	10200012 	beqz	$at,406e8c <_realloc+0x1e8>
  406e44:	00a3c821 	addu	$t9,$a1,$v1
  406e48:	8f8e8b58 	lw	$t6,-29864($gp)
  406e4c:	272f0010 	addiu	$t7,$t9,16
  406e50:	15cf000e 	bne	$t6,$t7,406e8c <_realloc+0x1e8>
  406e54:	00002025 	move	$a0,$zero
  406e58:	0c1032cc 	jal	40cb30 <_sbrk>
  406e5c:	afa50028 	sw	$a1,40($sp)
  406e60:	8f988b58 	lw	$t8,-29864($gp)
  406e64:	8fa50028 	lw	$a1,40($sp)
  406e68:	14580008 	bne	$v0,$t8,406e8c <_realloc+0x1e8>
  406e6c:	02202025 	move	$a0,$s1
  406e70:	0c101ced 	jal	4073b4 <_realloc+0x710>
  406e74:	af858b54 	sw	$a1,-29868($gp)
  406e78:	14400003 	bnez	$v0,406e88 <_realloc+0x1e4>
  406e7c:	00408025 	move	$s0,$v0
  406e80:	8f908b54 	lw	$s0,-29868($gp)
  406e84:	00000000 	nop
  406e88:	af808b54 	sw	$zero,-29868($gp)
  406e8c:	8e030000 	lw	$v1,0($s0)
  406e90:	8fb80034 	lw	$t8,52($sp)
  406e94:	0071082b 	sltu	$at,$v1,$s1
  406e98:	14200026 	bnez	$at,406f34 <_realloc+0x290>
  406e9c:	33080003 	andi	$t0,$t8,0x3
  406ea0:	8fa80034 	lw	$t0,52($sp)
  406ea4:	00000000 	nop
  406ea8:	31090003 	andi	$t1,$t0,0x3
  406eac:	afa90024 	sw	$t1,36($sp)
  406eb0:	00712823 	subu	$a1,$v1,$s1
  406eb4:	28a10030 	slti	$at,$a1,48
  406eb8:	1420000b 	bnez	$at,406ee8 <_realloc+0x244>
  406ebc:	02036021 	addu	$t4,$s0,$v1
  406ec0:	24a5fff8 	addiu	$a1,$a1,-8
  406ec4:	ae110000 	sw	$s1,0($s0)
  406ec8:	34aa0001 	ori	$t2,$a1,0x1
  406ecc:	02111021 	addu	$v0,$s0,$s1
  406ed0:	ac4a0008 	sw	$t2,8($v0)
  406ed4:	0c101c4e 	jal	407138 <_realloc+0x494>
  406ed8:	24440010 	addiu	$a0,$v0,16
  406edc:	8e030000 	lw	$v1,0($s0)
  406ee0:	10000007 	b	406f00 <_realloc+0x25c>
  406ee4:	8fb90024 	lw	$t9,36($sp)
  406ee8:	8f8b8b58 	lw	$t3,-29864($gp)
  406eec:	258d0010 	addiu	$t5,$t4,16
  406ef0:	156d0003 	bne	$t3,$t5,406f00 <_realloc+0x25c>
  406ef4:	8fb90024 	lw	$t9,36($sp)
  406ef8:	af808b54 	sw	$zero,-29868($gp)
  406efc:	8fb90024 	lw	$t9,36($sp)
  406f00:	00000000 	nop
  406f04:	00797025 	or	$t6,$v1,$t9
  406f08:	ae0e0000 	sw	$t6,0($s0)
  406f0c:	8f8f80e4 	lw	$t7,-32540($gp)
  406f10:	8f998b98 	lw	$t9,-29800($gp)
  406f14:	11e00005 	beqz	$t7,406f2c <_realloc+0x288>
  406f18:	8fa20040 	lw	$v0,64($sp)
  406f1c:	8f848b78 	lw	$a0,-29832($gp)
  406f20:	0320f809 	jalr	$t9
  406f24:	00000000 	nop
  406f28:	8fa20040 	lw	$v0,64($sp)
  406f2c:	1000007e 	b	407128 <_realloc+0x484>
  406f30:	8fbf001c 	lw	$ra,28($sp)
  406f34:	afa80024 	sw	$t0,36($sp)
  406f38:	8fa20024 	lw	$v0,36($sp)
  406f3c:	02202025 	move	$a0,$s1
  406f40:	00624825 	or	$t1,$v1,$v0
  406f44:	0c101a84 	jal	406a10 <_malloc+0x68>
  406f48:	ae090000 	sw	$t1,0($s0)
  406f4c:	1040001c 	beqz	$v0,406fc0 <_realloc+0x31c>
  406f50:	00403825 	move	$a3,$v0
  406f54:	8faa0034 	lw	$t2,52($sp)
  406f58:	2401fffc 	li	$at,-4
  406f5c:	01416024 	and	$t4,$t2,$at
  406f60:	022c082b 	sltu	$at,$s1,$t4
  406f64:	10200002 	beqz	$at,406f70 <_realloc+0x2cc>
  406f68:	afac0034 	sw	$t4,52($sp)
  406f6c:	afb10034 	sw	$s1,52($sp)
  406f70:	8fa50040 	lw	$a1,64($sp)
  406f74:	8fa60034 	lw	$a2,52($sp)
  406f78:	00e02025 	move	$a0,$a3
  406f7c:	0c103118 	jal	40c460 <memcpy>
  406f80:	afa70030 	sw	$a3,48($sp)
  406f84:	8fa40040 	lw	$a0,64($sp)
  406f88:	0c101e76 	jal	4079d8 <__free>
  406f8c:	00000000 	nop
  406f90:	8f8b80e4 	lw	$t3,-32540($gp)
  406f94:	8fa70030 	lw	$a3,48($sp)
  406f98:	11600007 	beqz	$t3,406fb8 <_realloc+0x314>
  406f9c:	00000000 	nop
  406fa0:	8f998b98 	lw	$t9,-29800($gp)
  406fa4:	8f848b78 	lw	$a0,-29832($gp)
  406fa8:	0320f809 	jalr	$t9
  406fac:	afa70030 	sw	$a3,48($sp)
  406fb0:	8fa70030 	lw	$a3,48($sp)
  406fb4:	00000000 	nop
  406fb8:	1000005a 	b	407124 <_realloc+0x480>
  406fbc:	00e01025 	move	$v0,$a3
  406fc0:	8e0d0000 	lw	$t5,0($s0)
  406fc4:	2401fffc 	li	$at,-4
  406fc8:	01a17024 	and	$t6,$t5,$at
  406fcc:	2dc10028 	sltiu	$at,$t6,40
  406fd0:	ae0e0000 	sw	$t6,0($s0)
  406fd4:	10200017 	beqz	$at,407034 <_realloc+0x390>
  406fd8:	01c01825 	move	$v1,$t6
  406fdc:	022e082b 	sltu	$at,$s1,$t6
  406fe0:	10200010 	beqz	$at,407024 <_realloc+0x380>
  406fe4:	2e210028 	sltiu	$at,$s1,40
  406fe8:	8faf0024 	lw	$t7,36($sp)
  406fec:	00000000 	nop
  406ff0:	01cfc025 	or	$t8,$t6,$t7
  406ff4:	ae180000 	sw	$t8,0($s0)
  406ff8:	8f8880e4 	lw	$t0,-32540($gp)
  406ffc:	8f998b98 	lw	$t9,-29800($gp)
  407000:	11000005 	beqz	$t0,407018 <_realloc+0x374>
  407004:	8fa20040 	lw	$v0,64($sp)
  407008:	8f848b78 	lw	$a0,-29832($gp)
  40700c:	0320f809 	jalr	$t9
  407010:	00000000 	nop
  407014:	8fa20040 	lw	$v0,64($sp)
  407018:	10000043 	b	407128 <_realloc+0x484>
  40701c:	8fbf001c 	lw	$ra,28($sp)
  407020:	2e210028 	sltiu	$at,$s1,40
  407024:	10200034 	beqz	$at,4070f8 <_realloc+0x454>
  407028:	8fab0024 	lw	$t3,36($sp)
  40702c:	1000ffc2 	b	406f38 <_realloc+0x294>
  407030:	24110028 	li	$s1,40
  407034:	2e210028 	sltiu	$at,$s1,40
  407038:	10200004 	beqz	$at,40704c <_realloc+0x3a8>
  40703c:	8fa90034 	lw	$t1,52($sp)
  407040:	1000ff9b 	b	406eb0 <_realloc+0x20c>
  407044:	24110028 	li	$s1,40
  407048:	8fa90034 	lw	$t1,52($sp)
  40704c:	00000000 	nop
  407050:	312a0002 	andi	$t2,$t1,0x2
  407054:	11400028 	beqz	$t2,4070f8 <_realloc+0x454>
  407058:	8fab0024 	lw	$t3,36($sp)
  40705c:	8e02fff8 	lw	$v0,-8($s0)
  407060:	00000000 	nop
  407064:	8c4c0000 	lw	$t4,0($v0)
  407068:	00000000 	nop
  40706c:	01835821 	addu	$t3,$t4,$v1
  407070:	256d0008 	addiu	$t5,$t3,8
  407074:	01b1082b 	sltu	$at,$t5,$s1
  407078:	1420001f 	bnez	$at,4070f8 <_realloc+0x454>
  40707c:	8fab0024 	lw	$t3,36($sp)
  407080:	8c4e0000 	lw	$t6,0($v0)
  407084:	00402025 	move	$a0,$v0
  407088:	2dc10028 	sltiu	$at,$t6,40
  40708c:	1420001a 	bnez	$at,4070f8 <_realloc+0x454>
  407090:	8fab0024 	lw	$t3,36($sp)
  407094:	0c101d62 	jal	407588 <_realloc+0x8e4>
  407098:	afa20038 	sw	$v0,56($sp)
  40709c:	8fa70038 	lw	$a3,56($sp)
  4070a0:	8e180000 	lw	$t8,0($s0)
  4070a4:	8cef0000 	lw	$t7,0($a3)
  4070a8:	24e40008 	addiu	$a0,$a3,8
  4070ac:	01f84021 	addu	$t0,$t7,$t8
  4070b0:	25190008 	addiu	$t9,$t0,8
  4070b4:	acf90000 	sw	$t9,0($a3)
  4070b8:	8e060000 	lw	$a2,0($s0)
  4070bc:	8fa50040 	lw	$a1,64($sp)
  4070c0:	0c103118 	jal	40c460 <memcpy>
  4070c4:	afa40020 	sw	$a0,32($sp)
  4070c8:	8fa90034 	lw	$t1,52($sp)
  4070cc:	8fa40020 	lw	$a0,32($sp)
  4070d0:	2401fffd 	li	$at,-3
  4070d4:	8fb00038 	lw	$s0,56($sp)
  4070d8:	01215024 	and	$t2,$t1,$at
  4070dc:	afaa0034 	sw	$t2,52($sp)
  4070e0:	afa40040 	sw	$a0,64($sp)
  4070e4:	314c0003 	andi	$t4,$t2,0x3
  4070e8:	8e030000 	lw	$v1,0($s0)
  4070ec:	1000ff70 	b	406eb0 <_realloc+0x20c>
  4070f0:	afac0024 	sw	$t4,36($sp)
  4070f4:	8fab0024 	lw	$t3,36($sp)
  4070f8:	00000000 	nop
  4070fc:	006b6825 	or	$t5,$v1,$t3
  407100:	ae0d0000 	sw	$t5,0($s0)
  407104:	8f8e80e4 	lw	$t6,-32540($gp)
  407108:	8f998b98 	lw	$t9,-29800($gp)
  40710c:	11c00005 	beqz	$t6,407124 <_realloc+0x480>
  407110:	00001025 	move	$v0,$zero
  407114:	8f848b78 	lw	$a0,-29832($gp)
  407118:	0320f809 	jalr	$t9
  40711c:	00000000 	nop
  407120:	00001025 	move	$v0,$zero
  407124:	8fbf001c 	lw	$ra,28($sp)
  407128:	8fb00014 	lw	$s0,20($sp)
  40712c:	8fb10018 	lw	$s1,24($sp)
  407130:	03e00008 	jr	$ra
  407134:	27bd0040 	addiu	$sp,$sp,64
  407138:	27bdffc8 	addiu	$sp,$sp,-56
  40713c:	afbf0014 	sw	$ra,20($sp)
  407140:	8c87fff8 	lw	$a3,-8($a0)
  407144:	2483fff8 	addiu	$v1,$a0,-8
  407148:	30ee0001 	andi	$t6,$a3,0x1
  40714c:	11c00095 	beqz	$t6,4073a4 <_realloc+0x700>
  407150:	00602825 	move	$a1,$v1
  407154:	8c6f0000 	lw	$t7,0($v1)
  407158:	2401fffc 	li	$at,-4
  40715c:	01e1c024 	and	$t8,$t7,$at
  407160:	2f010028 	sltiu	$at,$t8,40
  407164:	ac780000 	sw	$t8,0($v1)
  407168:	1020000c 	beqz	$at,40719c <_realloc+0x4f8>
  40716c:	03003025 	move	$a2,$t8
  407170:	001838c2 	srl	$a3,$t8,0x3
  407174:	24e7ffff 	addiu	$a3,$a3,-1
  407178:	3c080042 	lui	$t0,0x42
  40717c:	25080af0 	addiu	$t0,$t0,2800
  407180:	0007c880 	sll	$t9,$a3,0x2
  407184:	03281021 	addu	$v0,$t9,$t0
  407188:	8c490000 	lw	$t1,0($v0)
  40718c:	00000000 	nop
  407190:	ac690008 	sw	$t1,8($v1)
  407194:	10000083 	b	4073a4 <_realloc+0x700>
  407198:	ac430000 	sw	$v1,0($v0)
  40719c:	00662021 	addu	$a0,$v1,$a2
  4071a0:	8c820008 	lw	$v0,8($a0)
  4071a4:	24840008 	addiu	$a0,$a0,8
  4071a8:	304a0001 	andi	$t2,$v0,0x1
  4071ac:	15400016 	bnez	$t2,407208 <_realloc+0x564>
  4071b0:	2c410028 	sltiu	$at,$v0,40
  4071b4:	14200015 	bnez	$at,40720c <_realloc+0x568>
  4071b8:	30ee0002 	andi	$t6,$a3,0x2
  4071bc:	8f8b8b54 	lw	$t3,-29868($gp)
  4071c0:	00000000 	nop
  4071c4:	108b000e 	beq	$a0,$t3,407200 <_realloc+0x55c>
  4071c8:	00c26021 	addu	$t4,$a2,$v0
  4071cc:	afa30018 	sw	$v1,24($sp)
  4071d0:	afa4002c 	sw	$a0,44($sp)
  4071d4:	afa50034 	sw	$a1,52($sp)
  4071d8:	0c101d62 	jal	407588 <_realloc+0x8e4>
  4071dc:	afa70028 	sw	$a3,40($sp)
  4071e0:	8fa30018 	lw	$v1,24($sp)
  4071e4:	8fa4002c 	lw	$a0,44($sp)
  4071e8:	8fa50034 	lw	$a1,52($sp)
  4071ec:	8fa70028 	lw	$a3,40($sp)
  4071f0:	8c660000 	lw	$a2,0($v1)
  4071f4:	8c820000 	lw	$v0,0($a0)
  4071f8:	00000000 	nop
  4071fc:	00c26021 	addu	$t4,$a2,$v0
  407200:	258d0008 	addiu	$t5,$t4,8
  407204:	ac6d0000 	sw	$t5,0($v1)
  407208:	30ee0002 	andi	$t6,$a3,0x2
  40720c:	11c00013 	beqz	$t6,40725c <_realloc+0x5b8>
  407210:	00000000 	nop
  407214:	8c64fff8 	lw	$a0,-8($v1)
  407218:	00000000 	nop
  40721c:	8c8f0000 	lw	$t7,0($a0)
  407220:	00000000 	nop
  407224:	2de10028 	sltiu	$at,$t7,40
  407228:	1420000c 	bnez	$at,40725c <_realloc+0x5b8>
  40722c:	00000000 	nop
  407230:	afa30018 	sw	$v1,24($sp)
  407234:	0c101d62 	jal	407588 <_realloc+0x8e4>
  407238:	afa4002c 	sw	$a0,44($sp)
  40723c:	8fa30018 	lw	$v1,24($sp)
  407240:	8fa5002c 	lw	$a1,44($sp)
  407244:	8c790000 	lw	$t9,0($v1)
  407248:	8cb80000 	lw	$t8,0($a1)
  40724c:	00000000 	nop
  407250:	03194021 	addu	$t0,$t8,$t9
  407254:	25090008 	addiu	$t1,$t0,8
  407258:	aca90000 	sw	$t1,0($a1)
  40725c:	8caa0000 	lw	$t2,0($a1)
  407260:	aca00020 	sw	$zero,32($a1)
  407264:	aca00018 	sw	$zero,24($a1)
  407268:	aca00010 	sw	$zero,16($a1)
  40726c:	aca00008 	sw	$zero,8($a1)
  407270:	00aa5821 	addu	$t3,$a1,$t2
  407274:	ad650000 	sw	$a1,0($t3)
  407278:	8ca60000 	lw	$a2,0($a1)
  40727c:	8f8c8b58 	lw	$t4,-29864($gp)
  407280:	00a61021 	addu	$v0,$a1,$a2
  407284:	244d0010 	addiu	$t5,$v0,16
  407288:	158d0003 	bne	$t4,$t5,407298 <_realloc+0x5f4>
  40728c:	00000000 	nop
  407290:	10000040 	b	407394 <_realloc+0x6f0>
  407294:	af858b54 	sw	$a1,-29868($gp)
  407298:	8f878b50 	lw	$a3,-29872($gp)
  40729c:	00c01825 	move	$v1,$a2
  4072a0:	10e0003b 	beqz	$a3,407390 <_realloc+0x6ec>
  4072a4:	00e02025 	move	$a0,$a3
  4072a8:	8c820000 	lw	$v0,0($a0)
  4072ac:	00000000 	nop
  4072b0:	0062082b 	sltu	$at,$v1,$v0
  4072b4:	1020000b 	beqz	$at,4072e4 <_realloc+0x640>
  4072b8:	0043082b 	sltu	$at,$v0,$v1
  4072bc:	8c820010 	lw	$v0,16($a0)
  4072c0:	00000000 	nop
  4072c4:	10400003 	beqz	$v0,4072d4 <_realloc+0x630>
  4072c8:	00000000 	nop
  4072cc:	1000fff6 	b	4072a8 <_realloc+0x604>
  4072d0:	00402025 	move	$a0,$v0
  4072d4:	ac850010 	sw	$a1,16($a0)
  4072d8:	1000002a 	b	407384 <_realloc+0x6e0>
  4072dc:	aca40008 	sw	$a0,8($a1)
  4072e0:	0043082b 	sltu	$at,$v0,$v1
  4072e4:	1020000a 	beqz	$at,407310 <_realloc+0x66c>
  4072e8:	00000000 	nop
  4072ec:	8c820018 	lw	$v0,24($a0)
  4072f0:	00000000 	nop
  4072f4:	10400003 	beqz	$v0,407304 <_realloc+0x660>
  4072f8:	00000000 	nop
  4072fc:	1000ffea 	b	4072a8 <_realloc+0x604>
  407300:	00402025 	move	$a0,$v0
  407304:	ac850018 	sw	$a1,24($a0)
  407308:	1000001e 	b	407384 <_realloc+0x6e0>
  40730c:	aca40008 	sw	$a0,8($a1)
  407310:	8c820008 	lw	$v0,8($a0)
  407314:	240fffff 	li	$t7,-1
  407318:	1040000a 	beqz	$v0,407344 <_realloc+0x6a0>
  40731c:	00000000 	nop
  407320:	8c4e0010 	lw	$t6,16($v0)
  407324:	00000000 	nop
  407328:	148e0003 	bne	$a0,$t6,407338 <_realloc+0x694>
  40732c:	00000000 	nop
  407330:	10000002 	b	40733c <_realloc+0x698>
  407334:	ac450010 	sw	$a1,16($v0)
  407338:	ac450018 	sw	$a1,24($v0)
  40733c:	10000002 	b	407348 <_realloc+0x6a4>
  407340:	aca20008 	sw	$v0,8($a1)
  407344:	af858b50 	sw	$a1,-29872($gp)
  407348:	8c820010 	lw	$v0,16($a0)
  40734c:	00000000 	nop
  407350:	10400002 	beqz	$v0,40735c <_realloc+0x6b8>
  407354:	00000000 	nop
  407358:	ac450008 	sw	$a1,8($v0)
  40735c:	aca20010 	sw	$v0,16($a1)
  407360:	8c820018 	lw	$v0,24($a0)
  407364:	00000000 	nop
  407368:	10400002 	beqz	$v0,407374 <_realloc+0x6d0>
  40736c:	00000000 	nop
  407370:	ac450008 	sw	$a1,8($v0)
  407374:	aca20018 	sw	$v0,24($a1)
  407378:	aca40020 	sw	$a0,32($a1)
  40737c:	ac850008 	sw	$a1,8($a0)
  407380:	ac8f0010 	sw	$t7,16($a0)
  407384:	8cb80000 	lw	$t8,0($a1)
  407388:	10000002 	b	407394 <_realloc+0x6f0>
  40738c:	00b81021 	addu	$v0,$a1,$t8
  407390:	af858b50 	sw	$a1,-29872($gp)
  407394:	8c590008 	lw	$t9,8($v0)
  407398:	00000000 	nop
  40739c:	37280002 	ori	$t0,$t9,0x2
  4073a0:	ac480008 	sw	$t0,8($v0)
  4073a4:	8fbf0014 	lw	$ra,20($sp)
  4073a8:	27bd0038 	addiu	$sp,$sp,56
  4073ac:	03e00008 	jr	$ra
  4073b0:	00000000 	nop
  4073b4:	8f868b54 	lw	$a2,-29868($gp)
  4073b8:	27bdffd8 	addiu	$sp,$sp,-40
  4073bc:	afbf0014 	sw	$ra,20($sp)
  4073c0:	24850010 	addiu	$a1,$a0,16
  4073c4:	afa50020 	sw	$a1,32($sp)
  4073c8:	00002025 	move	$a0,$zero
  4073cc:	0c1032cc 	jal	40cb30 <_sbrk>
  4073d0:	afa60024 	sw	$a2,36($sp)
  4073d4:	8fa50020 	lw	$a1,32($sp)
  4073d8:	8fa80024 	lw	$t0,36($sp)
  4073dc:	30430007 	andi	$v1,$v0,0x7
  4073e0:	10600004 	beqz	$v1,4073f4 <_realloc+0x750>
  4073e4:	00403825 	move	$a3,$v0
  4073e8:	240e0008 	li	$t6,8
  4073ec:	10000002 	b	4073f8 <_realloc+0x754>
  4073f0:	01c33023 	subu	$a2,$t6,$v1
  4073f4:	00003025 	move	$a2,$zero
  4073f8:	8f848b58 	lw	$a0,-29864($gp)
  4073fc:	8f838b64 	lw	$v1,-29852($gp)
  407400:	14440006 	bne	$v0,$a0,40741c <_realloc+0x778>
  407404:	00000000 	nop
  407408:	11000004 	beqz	$t0,40741c <_realloc+0x778>
  40740c:	24a5fff8 	addiu	$a1,$a1,-8
  407410:	8d0f0000 	lw	$t7,0($t0)
  407414:	00000000 	nop
  407418:	00af2823 	subu	$a1,$a1,$t7
  40741c:	1460000c 	bnez	$v1,407450 <_realloc+0x7ac>
  407420:	00000000 	nop
  407424:	afa50020 	sw	$a1,32($sp)
  407428:	afa6001c 	sw	$a2,28($sp)
  40742c:	afa70018 	sw	$a3,24($sp)
  407430:	0c103304 	jal	40cc10 <_getpagesize>
  407434:	afa80024 	sw	$t0,36($sp)
  407438:	8fa50020 	lw	$a1,32($sp)
  40743c:	8fa6001c 	lw	$a2,28($sp)
  407440:	8fa70018 	lw	$a3,24($sp)
  407444:	8fa80024 	lw	$t0,36($sp)
  407448:	8f848b58 	lw	$a0,-29864($gp)
  40744c:	2443ffff 	addiu	$v1,$v0,-1
  407450:	8f828b68 	lw	$v0,-29848($gp)
  407454:	24010008 	li	$at,8
  407458:	24420001 	addiu	$v0,$v0,1
  40745c:	14410003 	bne	$v0,$at,40746c <_realloc+0x7c8>
  407460:	af828b68 	sw	$v0,-29848($gp)
  407464:	0003c040 	sll	$t8,$v1,0x1
  407468:	27030001 	addiu	$v1,$t8,1
  40746c:	00a3c821 	addu	$t9,$a1,$v1
  407470:	2729ffff 	addiu	$t1,$t9,-1
  407474:	00605027 	nor	$t2,$v1,$zero
  407478:	012a2824 	and	$a1,$t1,$t2
  40747c:	14800009 	bnez	$a0,4074a4 <_realloc+0x800>
  407480:	af838b64 	sw	$v1,-29852($gp)
  407484:	00e65821 	addu	$t3,$a3,$a2
  407488:	01631024 	and	$v0,$t3,$v1
  40748c:	10400005 	beqz	$v0,4074a4 <_realloc+0x800>
  407490:	af838b64 	sw	$v1,-29852($gp)
  407494:	00a36021 	addu	$t4,$a1,$v1
  407498:	01822823 	subu	$a1,$t4,$v0
  40749c:	24a50001 	addiu	$a1,$a1,1
  4074a0:	af838b64 	sw	$v1,-29852($gp)
  4074a4:	00a61021 	addu	$v0,$a1,$a2
  4074a8:	3c018000 	lui	$at,0x8000
  4074ac:	0041082b 	sltu	$at,$v0,$at
  4074b0:	14200003 	bnez	$at,4074c0 <_realloc+0x81c>
  4074b4:	00402025 	move	$a0,$v0
  4074b8:	1000002f 	b	407578 <_realloc+0x8d4>
  4074bc:	00001025 	move	$v0,$zero
  4074c0:	afa50020 	sw	$a1,32($sp)
  4074c4:	afa6001c 	sw	$a2,28($sp)
  4074c8:	0c1032cc 	jal	40cb30 <_sbrk>
  4074cc:	afa80024 	sw	$t0,36($sp)
  4074d0:	8fa50020 	lw	$a1,32($sp)
  4074d4:	8fa6001c 	lw	$a2,28($sp)
  4074d8:	8fa80024 	lw	$t0,36($sp)
  4074dc:	2401ffff 	li	$at,-1
  4074e0:	14410003 	bne	$v0,$at,4074f0 <_realloc+0x84c>
  4074e4:	00000000 	nop
  4074e8:	10000023 	b	407578 <_realloc+0x8d4>
  4074ec:	00001025 	move	$v0,$zero
  4074f0:	8f848b58 	lw	$a0,-29864($gp)
  4074f4:	00463821 	addu	$a3,$v0,$a2
  4074f8:	1444000a 	bne	$v0,$a0,407524 <_realloc+0x880>
  4074fc:	00000000 	nop
  407500:	11000006 	beqz	$t0,40751c <_realloc+0x878>
  407504:	2487fff8 	addiu	$a3,$a0,-8
  407508:	8d0d0000 	lw	$t5,0($t0)
  40750c:	01003825 	move	$a3,$t0
  407510:	00ad2821 	addu	$a1,$a1,$t5
  407514:	10000003 	b	407524 <_realloc+0x880>
  407518:	24a50010 	addiu	$a1,$a1,16
  40751c:	10000001 	b	407524 <_realloc+0x880>
  407520:	24a50008 	addiu	$a1,$a1,8
  407524:	24a2fff0 	addiu	$v0,$a1,-16
  407528:	8f868b54 	lw	$a2,-29868($gp)
  40752c:	ace20000 	sw	$v0,0($a3)
  407530:	00e21821 	addu	$v1,$a3,$v0
  407534:	8c6e0008 	lw	$t6,8($v1)
  407538:	00e52021 	addu	$a0,$a3,$a1
  40753c:	35cf0001 	ori	$t7,$t6,0x1
  407540:	ac6f0008 	sw	$t7,8($v1)
  407544:	10c0000b 	beqz	$a2,407574 <_realloc+0x8d0>
  407548:	af848b58 	sw	$a0,-29864($gp)
  40754c:	10c7000a 	beq	$a2,$a3,407578 <_realloc+0x8d4>
  407550:	00e01025 	move	$v0,$a3
  407554:	8cd80000 	lw	$t8,0($a2)
  407558:	24c40008 	addiu	$a0,$a2,8
  40755c:	37190001 	ori	$t9,$t8,0x1
  407560:	acd90000 	sw	$t9,0($a2)
  407564:	0c101c4e 	jal	407138 <_realloc+0x494>
  407568:	afa70018 	sw	$a3,24($sp)
  40756c:	8fa70018 	lw	$a3,24($sp)
  407570:	00000000 	nop
  407574:	00e01025 	move	$v0,$a3
  407578:	8fbf0014 	lw	$ra,20($sp)
  40757c:	27bd0028 	addiu	$sp,$sp,40
  407580:	03e00008 	jr	$ra
  407584:	00000000 	nop
  407588:	27bdffe8 	addiu	$sp,$sp,-24
  40758c:	afbf0014 	sw	$ra,20($sp)
  407590:	8c8e0010 	lw	$t6,16($a0)
  407594:	2401ffff 	li	$at,-1
  407598:	15c10009 	bne	$t6,$at,4075c0 <_realloc+0x91c>
  40759c:	00803025 	move	$a2,$a0
  4075a0:	8c850008 	lw	$a1,8($a0)
  4075a4:	8c840020 	lw	$a0,32($a0)
  4075a8:	00000000 	nop
  4075ac:	10800002 	beqz	$a0,4075b8 <_realloc+0x914>
  4075b0:	00000000 	nop
  4075b4:	ac850008 	sw	$a1,8($a0)
  4075b8:	1000006b 	b	407768 <_realloc+0xac4>
  4075bc:	aca40020 	sw	$a0,32($a1)
  4075c0:	8ccf0008 	lw	$t7,8($a2)
  4075c4:	00c02025 	move	$a0,$a2
  4075c8:	11e00005 	beqz	$t7,4075e0 <_realloc+0x93c>
  4075cc:	00000000 	nop
  4075d0:	0c101dde 	jal	407778 <_realloc+0xad4>
  4075d4:	afa60018 	sw	$a2,24($sp)
  4075d8:	8fa60018 	lw	$a2,24($sp)
  4075dc:	00000000 	nop
  4075e0:	8cc50020 	lw	$a1,32($a2)
  4075e4:	00000000 	nop
  4075e8:	10a00010 	beqz	$a1,40762c <_realloc+0x988>
  4075ec:	00000000 	nop
  4075f0:	aca00008 	sw	$zero,8($a1)
  4075f4:	8cc40010 	lw	$a0,16($a2)
  4075f8:	00000000 	nop
  4075fc:	10800002 	beqz	$a0,407608 <_realloc+0x964>
  407600:	00000000 	nop
  407604:	ac850008 	sw	$a1,8($a0)
  407608:	aca40010 	sw	$a0,16($a1)
  40760c:	8cc40018 	lw	$a0,24($a2)
  407610:	00000000 	nop
  407614:	10800002 	beqz	$a0,407620 <_realloc+0x97c>
  407618:	00000000 	nop
  40761c:	ac850008 	sw	$a1,8($a0)
  407620:	aca40018 	sw	$a0,24($a1)
  407624:	10000050 	b	407768 <_realloc+0xac4>
  407628:	af858b50 	sw	$a1,-29872($gp)
  40762c:	8cc50010 	lw	$a1,16($a2)
  407630:	00000000 	nop
  407634:	10a00046 	beqz	$a1,407750 <_realloc+0xaac>
  407638:	00000000 	nop
  40763c:	aca00008 	sw	$zero,8($a1)
  407640:	8cc20018 	lw	$v0,24($a2)
  407644:	00000000 	nop
  407648:	10400046 	beqz	$v0,407764 <_realloc+0xac0>
  40764c:	00000000 	nop
  407650:	8ca40018 	lw	$a0,24($a1)
  407654:	00000000 	nop
  407658:	1080003a 	beqz	$a0,407744 <_realloc+0xaa0>
  40765c:	00000000 	nop
  407660:	8c830018 	lw	$v1,24($a0)
  407664:	00000000 	nop
  407668:	10600019 	beqz	$v1,4076d0 <_realloc+0xa2c>
  40766c:	00000000 	nop
  407670:	8c620010 	lw	$v0,16($v1)
  407674:	00000000 	nop
  407678:	10400002 	beqz	$v0,407684 <_realloc+0x9e0>
  40767c:	ac820018 	sw	$v0,24($a0)
  407680:	ac440008 	sw	$a0,8($v0)
  407684:	8ca20008 	lw	$v0,8($a1)
  407688:	00000000 	nop
  40768c:	1040000c 	beqz	$v0,4076c0 <_realloc+0xa1c>
  407690:	ac620008 	sw	$v0,8($v1)
  407694:	8cb90008 	lw	$t9,8($a1)
  407698:	00000000 	nop
  40769c:	8f280010 	lw	$t0,16($t9)
  4076a0:	00000000 	nop
  4076a4:	14a80003 	bne	$a1,$t0,4076b4 <_realloc+0xa10>
  4076a8:	00000000 	nop
  4076ac:	10000004 	b	4076c0 <_realloc+0xa1c>
  4076b0:	ac430010 	sw	$v1,16($v0)
  4076b4:	8c6a0008 	lw	$t2,8($v1)
  4076b8:	00000000 	nop
  4076bc:	ad430018 	sw	$v1,24($t2)
  4076c0:	aca30008 	sw	$v1,8($a1)
  4076c4:	ac650010 	sw	$a1,16($v1)
  4076c8:	10000018 	b	40772c <_realloc+0xa88>
  4076cc:	00602825 	move	$a1,$v1
  4076d0:	8c820010 	lw	$v0,16($a0)
  4076d4:	00000000 	nop
  4076d8:	10400002 	beqz	$v0,4076e4 <_realloc+0xa40>
  4076dc:	aca20018 	sw	$v0,24($a1)
  4076e0:	ac450008 	sw	$a1,8($v0)
  4076e4:	8ca20008 	lw	$v0,8($a1)
  4076e8:	00000000 	nop
  4076ec:	1040000c 	beqz	$v0,407720 <_realloc+0xa7c>
  4076f0:	ac820008 	sw	$v0,8($a0)
  4076f4:	8cac0008 	lw	$t4,8($a1)
  4076f8:	00000000 	nop
  4076fc:	8d8d0010 	lw	$t5,16($t4)
  407700:	00000000 	nop
  407704:	14ad0003 	bne	$a1,$t5,407714 <_realloc+0xa70>
  407708:	00000000 	nop
  40770c:	10000004 	b	407720 <_realloc+0xa7c>
  407710:	ac440010 	sw	$a0,16($v0)
  407714:	8c8f0008 	lw	$t7,8($a0)
  407718:	00000000 	nop
  40771c:	ade40018 	sw	$a0,24($t7)
  407720:	ac850010 	sw	$a1,16($a0)
  407724:	aca40008 	sw	$a0,8($a1)
  407728:	00802825 	move	$a1,$a0
  40772c:	8ca40018 	lw	$a0,24($a1)
  407730:	00000000 	nop
  407734:	1480ffca 	bnez	$a0,407660 <_realloc+0x9bc>
  407738:	00000000 	nop
  40773c:	8cc20018 	lw	$v0,24($a2)
  407740:	00000000 	nop
  407744:	aca20018 	sw	$v0,24($a1)
  407748:	10000006 	b	407764 <_realloc+0xac0>
  40774c:	ac450008 	sw	$a1,8($v0)
  407750:	8cc50018 	lw	$a1,24($a2)
  407754:	00000000 	nop
  407758:	10a00002 	beqz	$a1,407764 <_realloc+0xac0>
  40775c:	00000000 	nop
  407760:	aca00008 	sw	$zero,8($a1)
  407764:	af858b50 	sw	$a1,-29872($gp)
  407768:	8fbf0014 	lw	$ra,20($sp)
  40776c:	27bd0018 	addiu	$sp,$sp,24
  407770:	03e00008 	jr	$ra
  407774:	00000000 	nop
  407778:	8c820008 	lw	$v0,8($a0)
  40777c:	00000000 	nop
  407780:	1040007c 	beqz	$v0,407974 <_realloc+0xcd0>
  407784:	00000000 	nop
  407788:	8c450010 	lw	$a1,16($v0)
  40778c:	8c430008 	lw	$v1,8($v0)
  407790:	1485003c 	bne	$a0,$a1,407884 <_realloc+0xbe0>
  407794:	00000000 	nop
  407798:	10600023 	beqz	$v1,407828 <_realloc+0xb84>
  40779c:	00000000 	nop
  4077a0:	8c6e0010 	lw	$t6,16($v1)
  4077a4:	00000000 	nop
  4077a8:	144e001f 	bne	$v0,$t6,407828 <_realloc+0xb84>
  4077ac:	00000000 	nop
  4077b0:	8c460018 	lw	$a2,24($v0)
  4077b4:	00000000 	nop
  4077b8:	10c00002 	beqz	$a2,4077c4 <_realloc+0xb20>
  4077bc:	ac660010 	sw	$a2,16($v1)
  4077c0:	acc30008 	sw	$v1,8($a2)
  4077c4:	8c860018 	lw	$a2,24($a0)
  4077c8:	00000000 	nop
  4077cc:	10c00002 	beqz	$a2,4077d8 <_realloc+0xb34>
  4077d0:	ac460010 	sw	$a2,16($v0)
  4077d4:	acc20008 	sw	$v0,8($a2)
  4077d8:	8c660008 	lw	$a2,8($v1)
  4077dc:	00000000 	nop
  4077e0:	10c0000c 	beqz	$a2,407814 <_realloc+0xb70>
  4077e4:	ac860008 	sw	$a2,8($a0)
  4077e8:	8c790008 	lw	$t9,8($v1)
  4077ec:	00000000 	nop
  4077f0:	8f280010 	lw	$t0,16($t9)
  4077f4:	00000000 	nop
  4077f8:	14680003 	bne	$v1,$t0,407808 <_realloc+0xb64>
  4077fc:	00000000 	nop
  407800:	10000004 	b	407814 <_realloc+0xb70>
  407804:	acc40010 	sw	$a0,16($a2)
  407808:	8c8a0008 	lw	$t2,8($a0)
  40780c:	00000000 	nop
  407810:	ad440018 	sw	$a0,24($t2)
  407814:	ac820018 	sw	$v0,24($a0)
  407818:	ac430018 	sw	$v1,24($v0)
  40781c:	ac440008 	sw	$a0,8($v0)
  407820:	10000050 	b	407964 <_realloc+0xcc0>
  407824:	ac620008 	sw	$v0,8($v1)
  407828:	8c860018 	lw	$a2,24($a0)
  40782c:	00000000 	nop
  407830:	10c00002 	beqz	$a2,40783c <_realloc+0xb98>
  407834:	ac460010 	sw	$a2,16($v0)
  407838:	acc20008 	sw	$v0,8($a2)
  40783c:	8c460008 	lw	$a2,8($v0)
  407840:	00000000 	nop
  407844:	10c0000c 	beqz	$a2,407878 <_realloc+0xbd4>
  407848:	ac860008 	sw	$a2,8($a0)
  40784c:	8c4c0008 	lw	$t4,8($v0)
  407850:	00000000 	nop
  407854:	8d8d0010 	lw	$t5,16($t4)
  407858:	00000000 	nop
  40785c:	144d0003 	bne	$v0,$t5,40786c <_realloc+0xbc8>
  407860:	00000000 	nop
  407864:	10000004 	b	407878 <_realloc+0xbd4>
  407868:	acc40010 	sw	$a0,16($a2)
  40786c:	8c8f0008 	lw	$t7,8($a0)
  407870:	00000000 	nop
  407874:	ade40018 	sw	$a0,24($t7)
  407878:	ac820018 	sw	$v0,24($a0)
  40787c:	10000039 	b	407964 <_realloc+0xcc0>
  407880:	ac440008 	sw	$a0,8($v0)
  407884:	10600021 	beqz	$v1,40790c <_realloc+0xc68>
  407888:	00000000 	nop
  40788c:	8c780018 	lw	$t8,24($v1)
  407890:	00000000 	nop
  407894:	1458001d 	bne	$v0,$t8,40790c <_realloc+0xc68>
  407898:	00000000 	nop
  40789c:	10a00002 	beqz	$a1,4078a8 <_realloc+0xc04>
  4078a0:	ac650018 	sw	$a1,24($v1)
  4078a4:	aca30008 	sw	$v1,8($a1)
  4078a8:	8c860010 	lw	$a2,16($a0)
  4078ac:	00000000 	nop
  4078b0:	10c00002 	beqz	$a2,4078bc <_realloc+0xc18>
  4078b4:	ac460018 	sw	$a2,24($v0)
  4078b8:	acc20008 	sw	$v0,8($a2)
  4078bc:	8c660008 	lw	$a2,8($v1)
  4078c0:	00000000 	nop
  4078c4:	10c0000c 	beqz	$a2,4078f8 <_realloc+0xc54>
  4078c8:	ac860008 	sw	$a2,8($a0)
  4078cc:	8c690008 	lw	$t1,8($v1)
  4078d0:	00000000 	nop
  4078d4:	8d2a0010 	lw	$t2,16($t1)
  4078d8:	00000000 	nop
  4078dc:	146a0003 	bne	$v1,$t2,4078ec <_realloc+0xc48>
  4078e0:	00000000 	nop
  4078e4:	10000004 	b	4078f8 <_realloc+0xc54>
  4078e8:	acc40010 	sw	$a0,16($a2)
  4078ec:	8c8c0008 	lw	$t4,8($a0)
  4078f0:	00000000 	nop
  4078f4:	ad840018 	sw	$a0,24($t4)
  4078f8:	ac820010 	sw	$v0,16($a0)
  4078fc:	ac430010 	sw	$v1,16($v0)
  407900:	ac440008 	sw	$a0,8($v0)
  407904:	10000017 	b	407964 <_realloc+0xcc0>
  407908:	ac620008 	sw	$v0,8($v1)
  40790c:	8c860010 	lw	$a2,16($a0)
  407910:	00000000 	nop
  407914:	10c00002 	beqz	$a2,407920 <_realloc+0xc7c>
  407918:	ac460018 	sw	$a2,24($v0)
  40791c:	acc20008 	sw	$v0,8($a2)
  407920:	8c460008 	lw	$a2,8($v0)
  407924:	00000000 	nop
  407928:	10c0000c 	beqz	$a2,40795c <_realloc+0xcb8>
  40792c:	ac860008 	sw	$a2,8($a0)
  407930:	8c4e0008 	lw	$t6,8($v0)
  407934:	00000000 	nop
  407938:	8dcf0010 	lw	$t7,16($t6)
  40793c:	00000000 	nop
  407940:	144f0003 	bne	$v0,$t7,407950 <_realloc+0xcac>
  407944:	00000000 	nop
  407948:	10000004 	b	40795c <_realloc+0xcb8>
  40794c:	acc40010 	sw	$a0,16($a2)
  407950:	8c990008 	lw	$t9,8($a0)
  407954:	00000000 	nop
  407958:	af240018 	sw	$a0,24($t9)
  40795c:	ac820010 	sw	$v0,16($a0)
  407960:	ac440008 	sw	$a0,8($v0)
  407964:	8c820008 	lw	$v0,8($a0)
  407968:	00000000 	nop
  40796c:	1440ff86 	bnez	$v0,407788 <_realloc+0xae4>
  407970:	00000000 	nop
  407974:	03e00008 	jr	$ra
  407978:	00000000 	nop

0040797c <_free>:
  40797c:	8f8e80e4 	lw	$t6,-32540($gp)
  407980:	27bdffe8 	addiu	$sp,$sp,-24
  407984:	afbf0014 	sw	$ra,20($sp)
  407988:	11c00005 	beqz	$t6,4079a0 <_free+0x24>
  40798c:	afa40018 	sw	$a0,24($sp)
  407990:	8f998b94 	lw	$t9,-29804($gp)
  407994:	8f848b78 	lw	$a0,-29832($gp)
  407998:	0320f809 	jalr	$t9
  40799c:	00000000 	nop
  4079a0:	8fa40018 	lw	$a0,24($sp)
  4079a4:	0c101e76 	jal	4079d8 <__free>
  4079a8:	00000000 	nop
  4079ac:	8f8f80e4 	lw	$t7,-32540($gp)
  4079b0:	8f998b98 	lw	$t9,-29800($gp)
  4079b4:	11e00005 	beqz	$t7,4079cc <_free+0x50>
  4079b8:	8fbf0014 	lw	$ra,20($sp)
  4079bc:	8f848b78 	lw	$a0,-29832($gp)
  4079c0:	0320f809 	jalr	$t9
  4079c4:	00000000 	nop
  4079c8:	8fbf0014 	lw	$ra,20($sp)
  4079cc:	27bd0018 	addiu	$sp,$sp,24
  4079d0:	03e00008 	jr	$ra
  4079d4:	00000000 	nop

004079d8 <__free>:
  4079d8:	27bdffe0 	addiu	$sp,$sp,-32
  4079dc:	afbf0014 	sw	$ra,20($sp)
  4079e0:	10800017 	beqz	$a0,407a40 <__free+0x68>
  4079e4:	00802825 	move	$a1,$a0
  4079e8:	8f8e8b60 	lw	$t6,-29856($gp)
  4079ec:	3c180042 	lui	$t8,0x42
  4079f0:	27180a70 	addiu	$t8,$t8,2672
  4079f4:	000e7880 	sll	$t7,$t6,0x2
  4079f8:	01f81021 	addu	$v0,$t7,$t8
  4079fc:	8c440000 	lw	$a0,0($v0)
  407a00:	00000000 	nop
  407a04:	10800007 	beqz	$a0,407a24 <__free+0x4c>
  407a08:	00000000 	nop
  407a0c:	afa2001c 	sw	$v0,28($sp)
  407a10:	0c101c4e 	jal	407138 <_realloc+0x494>
  407a14:	afa50020 	sw	$a1,32($sp)
  407a18:	8fa2001c 	lw	$v0,28($sp)
  407a1c:	8fa50020 	lw	$a1,32($sp)
  407a20:	00000000 	nop
  407a24:	af858b5c 	sw	$a1,-29860($gp)
  407a28:	ac450000 	sw	$a1,0($v0)
  407a2c:	8f998b60 	lw	$t9,-29856($gp)
  407a30:	00000000 	nop
  407a34:	27280001 	addiu	$t0,$t9,1
  407a38:	3109001f 	andi	$t1,$t0,0x1f
  407a3c:	af898b60 	sw	$t1,-29856($gp)
  407a40:	8fbf0014 	lw	$ra,20($sp)
  407a44:	27bd0020 	addiu	$sp,$sp,32
  407a48:	03e00008 	jr	$ra
  407a4c:	00000000 	nop
  407a50:	27bdffd8 	addiu	$sp,$sp,-40
  407a54:	8f8e8b60 	lw	$t6,-29856($gp)
  407a58:	afb2001c 	sw	$s2,28($sp)
  407a5c:	3c120042 	lui	$s2,0x42
  407a60:	afb30020 	sw	$s3,32($sp)
  407a64:	26520a70 	addiu	$s2,$s2,2672
  407a68:	afb10018 	sw	$s1,24($sp)
  407a6c:	afb00014 	sw	$s0,20($sp)
  407a70:	3c130042 	lui	$s3,0x42
  407a74:	000e7880 	sll	$t7,$t6,0x2
  407a78:	00808825 	move	$s1,$a0
  407a7c:	afbf0024 	sw	$ra,36($sp)
  407a80:	024f8021 	addu	$s0,$s2,$t7
  407a84:	26730af0 	addiu	$s3,$s3,2800
  407a88:	16120002 	bne	$s0,$s2,407a94 <__free+0xbc>
  407a8c:	00000000 	nop
  407a90:	02608025 	move	$s0,$s3
  407a94:	8e04fffc 	lw	$a0,-4($s0)
  407a98:	2610fffc 	addiu	$s0,$s0,-4
  407a9c:	10800008 	beqz	$a0,407ac0 <__free+0xe8>
  407aa0:	8fbf0024 	lw	$ra,36($sp)
  407aa4:	12240003 	beq	$s1,$a0,407ab4 <__free+0xdc>
  407aa8:	00000000 	nop
  407aac:	0c101c4e 	jal	407138 <_realloc+0x494>
  407ab0:	00000000 	nop
  407ab4:	1000fff4 	b	407a88 <__free+0xb0>
  407ab8:	ae000000 	sw	$zero,0($s0)
  407abc:	8fbf0024 	lw	$ra,36($sp)
  407ac0:	8fb00014 	lw	$s0,20($sp)
  407ac4:	8fb10018 	lw	$s1,24($sp)
  407ac8:	8fb2001c 	lw	$s2,28($sp)
  407acc:	8fb30020 	lw	$s3,32($sp)
  407ad0:	af808b60 	sw	$zero,-29856($gp)
  407ad4:	af808b5c 	sw	$zero,-29860($gp)
  407ad8:	03e00008 	jr	$ra
  407adc:	27bd0028 	addiu	$sp,$sp,40

00407ae0 <_oserror>:
  407ae0:	8f8e8060 	lw	$t6,-32672($gp)
  407ae4:	00000000 	nop
  407ae8:	8dc20000 	lw	$v0,0($t6)
  407aec:	03e00008 	jr	$ra
  407af0:	00000000 	nop

00407af4 <_setoserror>:
  407af4:	8f8e8060 	lw	$t6,-32672($gp)
  407af8:	af84af6c 	sw	$a0,-20628($gp)
  407afc:	00801025 	move	$v0,$a0
  407b00:	03e00008 	jr	$ra
  407b04:	adc40000 	sw	$a0,0($t6)

00407b08 <_goserror>:
  407b08:	8f82af6c 	lw	$v0,-20628($gp)
  407b0c:	03e00008 	jr	$ra
  407b10:	00000000 	nop

00407b14 <__oserror>:
  407b14:	8f828060 	lw	$v0,-32672($gp)
  407b18:	03e00008 	jr	$ra
  407b1c:	00000000 	nop

00407b20 <__initperthread_errno>:
  407b20:	3c0e0020 	lui	$t6,0x20
  407b24:	35ce0e84 	ori	$t6,$t6,0xe84
  407b28:	03e00008 	jr	$ra
  407b2c:	af8e8060 	sw	$t6,-32672($gp)

00407b30 <_uspsema>:
  407b30:	3c190041 	lui	$t9,0x41
  407b34:	27398700 	addiu	$t9,$t9,-30976
  407b38:	03200008 	jr	$t9
  407b3c:	03e02825 	move	$a1,$ra

00407b40 <_uscpsema>:
  407b40:	3c190041 	lui	$t9,0x41
  407b44:	27398b7c 	addiu	$t9,$t9,-29828
  407b48:	03200008 	jr	$t9
  407b4c:	03e02825 	move	$a1,$ra

00407b50 <_usvsema>:
  407b50:	3c190041 	lui	$t9,0x41
  407b54:	27398dbc 	addiu	$t9,$t9,-29252
  407b58:	03200008 	jr	$t9
  407b5c:	03e02825 	move	$a1,$ra

00407b60 <__dswsetlock>:
  407b60:	3c190041 	lui	$t9,0x41
  407b64:	273980a0 	addiu	$t9,$t9,-32608
  407b68:	03200008 	jr	$t9
  407b6c:	03e02825 	move	$a1,$ra

00407b70 <__dhsetlock>:
  407b70:	3c190041 	lui	$t9,0x41
  407b74:	2739bb44 	addiu	$t9,$t9,-17596
  407b78:	03200008 	jr	$t9
  407b7c:	03e02825 	move	$a1,$ra

00407b80 <__dhunsetlock>:
  407b80:	3c190041 	lui	$t9,0x41
  407b84:	2739bc48 	addiu	$t9,$t9,-17336
  407b88:	03200008 	jr	$t9
  407b8c:	03e02825 	move	$a1,$ra

00407b90 <__dhwsetlock>:
  407b90:	3c190041 	lui	$t9,0x41
  407b94:	2739b918 	addiu	$t9,$t9,-18152
  407b98:	03200008 	jr	$t9
  407b9c:	03e03025 	move	$a2,$ra

00407ba0 <_sinitlock>:
  407ba0:	948e0010 	lhu	$t6,16($a0)
  407ba4:	00801025 	move	$v0,$a0
  407ba8:	ac800004 	sw	$zero,4($a0)
  407bac:	ac80000c 	sw	$zero,12($a0)
  407bb0:	ac800008 	sw	$zero,8($a0)
  407bb4:	00001825 	move	$v1,$zero
  407bb8:	05c00007 	bltz	$t6,407bd8 <_sinitlock+0x38>
  407bbc:	2485001c 	addiu	$a1,$a0,28
  407bc0:	aca00000 	sw	$zero,0($a1)
  407bc4:	944f0010 	lhu	$t7,16($v0)
  407bc8:	24630001 	addiu	$v1,$v1,1
  407bcc:	01e3082a 	slt	$at,$t7,$v1
  407bd0:	1020fffb 	beqz	$at,407bc0 <_sinitlock+0x20>
  407bd4:	24a50004 	addiu	$a1,$a1,4
  407bd8:	94820012 	lhu	$v0,18($a0)
  407bdc:	00000000 	nop
  407be0:	10400014 	beqz	$v0,407c34 <_sinitlock+0x94>
  407be4:	30580001 	andi	$t8,$v0,0x1
  407be8:	1300000c 	beqz	$t8,407c1c <_sinitlock+0x7c>
  407bec:	00401825 	move	$v1,$v0
  407bf0:	8c990014 	lw	$t9,20($a0)
  407bf4:	00000000 	nop
  407bf8:	af200000 	sw	$zero,0($t9)
  407bfc:	8c880014 	lw	$t0,20($a0)
  407c00:	00000000 	nop
  407c04:	ad000004 	sw	$zero,4($t0)
  407c08:	8c890014 	lw	$t1,20($a0)
  407c0c:	00000000 	nop
  407c10:	ad200008 	sw	$zero,8($t1)
  407c14:	94830012 	lhu	$v1,18($a0)
  407c18:	00000000 	nop
  407c1c:	306a0002 	andi	$t2,$v1,0x2
  407c20:	11400004 	beqz	$t2,407c34 <_sinitlock+0x94>
  407c24:	00000000 	nop
  407c28:	8c8c0018 	lw	$t4,24($a0)
  407c2c:	240bffff 	li	$t3,-1
  407c30:	ad8b0000 	sw	$t3,0($t4)
  407c34:	03e00008 	jr	$ra
  407c38:	00001025 	move	$v0,$zero

00407c3c <_snewlock>:
  407c3c:	27bdffe0 	addiu	$sp,$sp,-32
  407c40:	afb00014 	sw	$s0,20($sp)
  407c44:	00808025 	move	$s0,$a0
  407c48:	afbf001c 	sw	$ra,28($sp)
  407c4c:	afb10018 	sw	$s1,24($sp)
  407c50:	8c840424 	lw	$a0,1060($a0)
  407c54:	02002825 	move	$a1,$s0
  407c58:	00047080 	sll	$t6,$a0,0x2
  407c5c:	0c102fa8 	jal	40bea0 <_usmalloc>
  407c60:	25c40020 	addiu	$a0,$t6,32
  407c64:	14400005 	bnez	$v0,407c7c <_snewlock+0x40>
  407c68:	00408825 	move	$s1,$v0
  407c6c:	0c101ebd 	jal	407af4 <_setoserror>
  407c70:	2404000c 	li	$a0,12
  407c74:	10000035 	b	407d4c <_snewlock+0x110>
  407c78:	00001025 	move	$v0,$zero
  407c7c:	ac40000c 	sw	$zero,12($v0)
  407c80:	ac400008 	sw	$zero,8($v0)
  407c84:	8e0f0424 	lw	$t7,1060($s0)
  407c88:	24010005 	li	$at,5
  407c8c:	a44f0010 	sh	$t7,16($v0)
  407c90:	8f98af34 	lw	$t8,-20684($gp)
  407c94:	24190004 	li	$t9,4
  407c98:	17010003 	bne	$t8,$at,407ca8 <_snewlock+0x6c>
  407c9c:	24040004 	li	$a0,4
  407ca0:	10000002 	b	407cac <_snewlock+0x70>
  407ca4:	a4590012 	sh	$t9,18($v0)
  407ca8:	a4400012 	sh	$zero,18($v0)
  407cac:	ac400014 	sw	$zero,20($v0)
  407cb0:	ac400018 	sw	$zero,24($v0)
  407cb4:	ac500000 	sw	$s0,0($v0)
  407cb8:	8e08044c 	lw	$t0,1100($s0)
  407cbc:	00000000 	nop
  407cc0:	1100001f 	beqz	$t0,407d40 <_snewlock+0x104>
  407cc4:	00000000 	nop
  407cc8:	0c102fa8 	jal	40bea0 <_usmalloc>
  407ccc:	02002825 	move	$a1,$s0
  407cd0:	14400008 	bnez	$v0,407cf4 <_snewlock+0xb8>
  407cd4:	ae220018 	sw	$v0,24($s1)
  407cd8:	02202025 	move	$a0,$s1
  407cdc:	0c102fb1 	jal	40bec4 <_usfree>
  407ce0:	02002825 	move	$a1,$s0
  407ce4:	0c101ebd 	jal	407af4 <_setoserror>
  407ce8:	2404000c 	li	$a0,12
  407cec:	10000017 	b	407d4c <_snewlock+0x110>
  407cf0:	00001025 	move	$v0,$zero
  407cf4:	2404000c 	li	$a0,12
  407cf8:	0c102fa8 	jal	40bea0 <_usmalloc>
  407cfc:	02002825 	move	$a1,$s0
  407d00:	1440000b 	bnez	$v0,407d30 <_snewlock+0xf4>
  407d04:	ae220014 	sw	$v0,20($s1)
  407d08:	8e240018 	lw	$a0,24($s1)
  407d0c:	0c102fb1 	jal	40bec4 <_usfree>
  407d10:	02002825 	move	$a1,$s0
  407d14:	02202025 	move	$a0,$s1
  407d18:	0c102fb1 	jal	40bec4 <_usfree>
  407d1c:	02002825 	move	$a1,$s0
  407d20:	0c101ebd 	jal	407af4 <_setoserror>
  407d24:	2404000c 	li	$a0,12
  407d28:	10000008 	b	407d4c <_snewlock+0x110>
  407d2c:	00001025 	move	$v0,$zero
  407d30:	96290012 	lhu	$t1,18($s1)
  407d34:	00000000 	nop
  407d38:	352a0003 	ori	$t2,$t1,0x3
  407d3c:	a62a0012 	sh	$t2,18($s1)
  407d40:	0c101ee8 	jal	407ba0 <_sinitlock>
  407d44:	02202025 	move	$a0,$s1
  407d48:	02201025 	move	$v0,$s1
  407d4c:	8fbf001c 	lw	$ra,28($sp)
  407d50:	8fb00014 	lw	$s0,20($sp)
  407d54:	8fb10018 	lw	$s1,24($sp)
  407d58:	03e00008 	jr	$ra
  407d5c:	27bd0020 	addiu	$sp,$sp,32

00407d60 <_sfreelock>:
  407d60:	27bdffe8 	addiu	$sp,$sp,-24
  407d64:	afbf0014 	sw	$ra,20($sp)
  407d68:	afa5001c 	sw	$a1,28($sp)
  407d6c:	94830012 	lhu	$v1,18($a0)
  407d70:	00803025 	move	$a2,$a0
  407d74:	10600014 	beqz	$v1,407dc8 <_sfreelock+0x68>
  407d78:	306e0001 	andi	$t6,$v1,0x1
  407d7c:	11c00009 	beqz	$t6,407da4 <_sfreelock+0x44>
  407d80:	00601025 	move	$v0,$v1
  407d84:	8c840014 	lw	$a0,20($a0)
  407d88:	8cc50000 	lw	$a1,0($a2)
  407d8c:	0c102fb1 	jal	40bec4 <_usfree>
  407d90:	afa60018 	sw	$a2,24($sp)
  407d94:	8fa60018 	lw	$a2,24($sp)
  407d98:	00000000 	nop
  407d9c:	94c20012 	lhu	$v0,18($a2)
  407da0:	00000000 	nop
  407da4:	304f0002 	andi	$t7,$v0,0x2
  407da8:	11e00007 	beqz	$t7,407dc8 <_sfreelock+0x68>
  407dac:	00000000 	nop
  407db0:	8cc40018 	lw	$a0,24($a2)
  407db4:	8cc50000 	lw	$a1,0($a2)
  407db8:	0c102fb1 	jal	40bec4 <_usfree>
  407dbc:	afa60018 	sw	$a2,24($sp)
  407dc0:	8fa60018 	lw	$a2,24($sp)
  407dc4:	00000000 	nop
  407dc8:	8cc50000 	lw	$a1,0($a2)
  407dcc:	0c102fb1 	jal	40bec4 <_usfree>
  407dd0:	00c02025 	move	$a0,$a2
  407dd4:	8fbf0014 	lw	$ra,20($sp)
  407dd8:	27bd0018 	addiu	$sp,$sp,24
  407ddc:	03e00008 	jr	$ra
  407de0:	00000000 	nop

00407de4 <_swsetlock>:
  407de4:	8f998b94 	lw	$t9,-29804($gp)
  407de8:	27bdffe8 	addiu	$sp,$sp,-24
  407dec:	afbf0014 	sw	$ra,20($sp)
  407df0:	0320f809 	jalr	$t9
  407df4:	afa5001c 	sw	$a1,28($sp)
  407df8:	8fbf0014 	lw	$ra,20($sp)
  407dfc:	27bd0018 	addiu	$sp,$sp,24
  407e00:	03e00008 	jr	$ra
  407e04:	00000000 	nop

00407e08 <_stestlock>:
  407e08:	8c82000c 	lw	$v0,12($a0)
  407e0c:	24030001 	li	$v1,1
  407e10:	304effff 	andi	$t6,$v0,0xffff
  407e14:	00027c02 	srl	$t7,$v0,0x10
  407e18:	15cf0003 	bne	$t6,$t7,407e28 <_stestlock+0x20>
  407e1c:	00000000 	nop
  407e20:	03e00008 	jr	$ra
  407e24:	00001025 	move	$v0,$zero
  407e28:	03e00008 	jr	$ra
  407e2c:	00601025 	move	$v0,$v1

00407e30 <_sctllock>:
  407e30:	27bdffe0 	addiu	$sp,$sp,-32
  407e34:	afa60028 	sw	$a2,40($sp)
  407e38:	24010003 	li	$at,3
  407e3c:	afbf0014 	sw	$ra,20($sp)
  407e40:	afa50024 	sw	$a1,36($sp)
  407e44:	afa7002c 	sw	$a3,44($sp)
  407e48:	10a1000a 	beq	$a1,$at,407e74 <_sctllock+0x44>
  407e4c:	00003025 	move	$a2,$zero
  407e50:	24010004 	li	$at,4
  407e54:	10a10021 	beq	$a1,$at,407edc <_sctllock+0xac>
  407e58:	24010007 	li	$at,7
  407e5c:	10a1002d 	beq	$a1,$at,407f14 <_sctllock+0xe4>
  407e60:	24010008 	li	$at,8
  407e64:	10a1003b 	beq	$a1,$at,407f54 <_sctllock+0x124>
  407e68:	00000000 	nop
  407e6c:	10000041 	b	407f74 <_sctllock+0x144>
  407e70:	00000000 	nop
  407e74:	948f0012 	lhu	$t7,18($a0)
  407e78:	27a3002b 	addiu	$v1,$sp,43
  407e7c:	31f80001 	andi	$t8,$t7,0x1
  407e80:	13000012 	beqz	$t8,407ecc <_sctllock+0x9c>
  407e84:	2401fffc 	li	$at,-4
  407e88:	8c880014 	lw	$t0,20($a0)
  407e8c:	0061c824 	and	$t9,$v1,$at
  407e90:	27230004 	addiu	$v1,$t9,4
  407e94:	8c62fffc 	lw	$v0,-4($v1)
  407e98:	8d090000 	lw	$t1,0($t0)
  407e9c:	00000000 	nop
  407ea0:	ac490000 	sw	$t1,0($v0)
  407ea4:	8c8a0014 	lw	$t2,20($a0)
  407ea8:	00000000 	nop
  407eac:	8d4b0004 	lw	$t3,4($t2)
  407eb0:	00000000 	nop
  407eb4:	ac4b0004 	sw	$t3,4($v0)
  407eb8:	8c8c0014 	lw	$t4,20($a0)
  407ebc:	00000000 	nop
  407ec0:	8d8d0008 	lw	$t5,8($t4)
  407ec4:	1000002e 	b	407f80 <_sctllock+0x150>
  407ec8:	ac4d0008 	sw	$t5,8($v0)
  407ecc:	0c101ebd 	jal	407af4 <_setoserror>
  407ed0:	24040016 	li	$a0,22
  407ed4:	1000002a 	b	407f80 <_sctllock+0x150>
  407ed8:	2406ffff 	li	$a2,-1
  407edc:	948e0012 	lhu	$t6,18($a0)
  407ee0:	00000000 	nop
  407ee4:	31cf0001 	andi	$t7,$t6,0x1
  407ee8:	11e00026 	beqz	$t7,407f84 <_sctllock+0x154>
  407eec:	8fbf0014 	lw	$ra,20($sp)
  407ef0:	8c980014 	lw	$t8,20($a0)
  407ef4:	00000000 	nop
  407ef8:	af000000 	sw	$zero,0($t8)
  407efc:	8c990014 	lw	$t9,20($a0)
  407f00:	00000000 	nop
  407f04:	af200004 	sw	$zero,4($t9)
  407f08:	8c880014 	lw	$t0,20($a0)
  407f0c:	1000001c 	b	407f80 <_sctllock+0x150>
  407f10:	ad000008 	sw	$zero,8($t0)
  407f14:	94890012 	lhu	$t1,18($a0)
  407f18:	27a3002b 	addiu	$v1,$sp,43
  407f1c:	312a0002 	andi	$t2,$t1,0x2
  407f20:	11400008 	beqz	$t2,407f44 <_sctllock+0x114>
  407f24:	2401fffc 	li	$at,-4
  407f28:	8c8c0018 	lw	$t4,24($a0)
  407f2c:	00615824 	and	$t3,$v1,$at
  407f30:	25630004 	addiu	$v1,$t3,4
  407f34:	8c62fffc 	lw	$v0,-4($v1)
  407f38:	8d8d0000 	lw	$t5,0($t4)
  407f3c:	10000010 	b	407f80 <_sctllock+0x150>
  407f40:	ac4d0000 	sw	$t5,0($v0)
  407f44:	0c101ebd 	jal	407af4 <_setoserror>
  407f48:	24040016 	li	$a0,22
  407f4c:	1000000c 	b	407f80 <_sctllock+0x150>
  407f50:	2406ffff 	li	$a2,-1
  407f54:	948e0012 	lhu	$t6,18($a0)
  407f58:	2418ffff 	li	$t8,-1
  407f5c:	31cf0002 	andi	$t7,$t6,0x2
  407f60:	11e00008 	beqz	$t7,407f84 <_sctllock+0x154>
  407f64:	8fbf0014 	lw	$ra,20($sp)
  407f68:	8c990018 	lw	$t9,24($a0)
  407f6c:	10000004 	b	407f80 <_sctllock+0x150>
  407f70:	af380000 	sw	$t8,0($t9)
  407f74:	0c101ebd 	jal	407af4 <_setoserror>
  407f78:	24040016 	li	$a0,22
  407f7c:	2406ffff 	li	$a2,-1
  407f80:	8fbf0014 	lw	$ra,20($sp)
  407f84:	27bd0020 	addiu	$sp,$sp,32
  407f88:	03e00008 	jr	$ra
  407f8c:	00c01025 	move	$v0,$a2

00407f90 <_sdumplock>:
  407f90:	27bdffd0 	addiu	$sp,$sp,-48
  407f94:	afbf0024 	sw	$ra,36($sp)
  407f98:	afb10020 	sw	$s1,32($sp)
  407f9c:	afb0001c 	sw	$s0,28($sp)
  407fa0:	afa60038 	sw	$a2,56($sp)
  407fa4:	8c820000 	lw	$v0,0($a0)
  407fa8:	8f998b94 	lw	$t9,-29804($gp)
  407fac:	00808025 	move	$s0,$a0
  407fb0:	8c440448 	lw	$a0,1096($v0)
  407fb4:	00a08825 	move	$s1,$a1
  407fb8:	0320f809 	jalr	$t9
  407fbc:	afa20028 	sw	$v0,40($sp)
  407fc0:	8e0e0004 	lw	$t6,4($s0)
  407fc4:	3c050042 	lui	$a1,0x42
  407fc8:	8fa60038 	lw	$a2,56($sp)
  407fcc:	24a59f40 	addiu	$a1,$a1,-24768
  407fd0:	02202025 	move	$a0,$s1
  407fd4:	02003825 	move	$a3,$s0
  407fd8:	0c102ffc 	jal	40bff0 <fprintf>
  407fdc:	afae0010 	sw	$t6,16($sp)
  407fe0:	8f998bb0 	lw	$t9,-29776($gp)
  407fe4:	02002025 	move	$a0,$s0
  407fe8:	0320f809 	jalr	$t9
  407fec:	00000000 	nop
  407ff0:	10400007 	beqz	$v0,408010 <_sdumplock+0x80>
  407ff4:	02202025 	move	$a0,$s1
  407ff8:	3c050042 	lui	$a1,0x42
  407ffc:	24a59f68 	addiu	$a1,$a1,-24728
  408000:	0c102ffc 	jal	40bff0 <fprintf>
  408004:	02202025 	move	$a0,$s1
  408008:	10000005 	b	408020 <_sdumplock+0x90>
  40800c:	96030012 	lhu	$v1,18($s0)
  408010:	3c050042 	lui	$a1,0x42
  408014:	0c102ffc 	jal	40bff0 <fprintf>
  408018:	24a59f78 	addiu	$a1,$a1,-24712
  40801c:	96030012 	lhu	$v1,18($s0)
  408020:	02202025 	move	$a0,$s1
  408024:	306f0001 	andi	$t7,$v1,0x1
  408028:	11e0000a 	beqz	$t7,408054 <_sdumplock+0xc4>
  40802c:	3c050042 	lui	$a1,0x42
  408030:	8e020014 	lw	$v0,20($s0)
  408034:	24a59f88 	addiu	$a1,$a1,-24696
  408038:	8c580008 	lw	$t8,8($v0)
  40803c:	8c460004 	lw	$a2,4($v0)
  408040:	8c470000 	lw	$a3,0($v0)
  408044:	0c102ffc 	jal	40bff0 <fprintf>
  408048:	afb80010 	sw	$t8,16($sp)
  40804c:	96030012 	lhu	$v1,18($s0)
  408050:	00000000 	nop
  408054:	30680002 	andi	$t0,$v1,0x2
  408058:	11000006 	beqz	$t0,408074 <_sdumplock+0xe4>
  40805c:	02202025 	move	$a0,$s1
  408060:	8e090018 	lw	$t1,24($s0)
  408064:	3c050042 	lui	$a1,0x42
  408068:	8d260000 	lw	$a2,0($t1)
  40806c:	0c102ffc 	jal	40bff0 <fprintf>
  408070:	24a59fb4 	addiu	$a1,$a1,-24652
  408074:	8faa0028 	lw	$t2,40($sp)
  408078:	8f998b98 	lw	$t9,-29800($gp)
  40807c:	8d440448 	lw	$a0,1096($t2)
  408080:	0320f809 	jalr	$t9
  408084:	00000000 	nop
  408088:	8fbf0024 	lw	$ra,36($sp)
  40808c:	8fb0001c 	lw	$s0,28($sp)
  408090:	8fb10020 	lw	$s1,32($sp)
  408094:	27bd0030 	addiu	$sp,$sp,48
  408098:	03e00008 	jr	$ra
  40809c:	00001025 	move	$v0,$zero

004080a0 <_dssetlock>:
  4080a0:	27bdffa0 	addiu	$sp,$sp,-96
  4080a4:	afbf003c 	sw	$ra,60($sp)
  4080a8:	afb60038 	sw	$s6,56($sp)
  4080ac:	afb50034 	sw	$s5,52($sp)
  4080b0:	afb40030 	sw	$s4,48($sp)
  4080b4:	afb3002c 	sw	$s3,44($sp)
  4080b8:	afb20028 	sw	$s2,40($sp)
  4080bc:	afb10024 	sw	$s1,36($sp)
  4080c0:	afb00020 	sw	$s0,32($sp)
  4080c4:	948e0012 	lhu	$t6,18($a0)
  4080c8:	94940010 	lhu	$s4,16($a0)
  4080cc:	8c950000 	lw	$s5,0($a0)
  4080d0:	afa00040 	sw	$zero,64($sp)
  4080d4:	a7ae004a 	sh	$t6,74($sp)
  4080d8:	3c0f0020 	lui	$t7,0x20
  4080dc:	8df60e00 	lw	$s6,3584($t7)
  4080e0:	8c980004 	lw	$t8,4($a0)
  4080e4:	00a08025 	move	$s0,$a1
  4080e8:	16d8000b 	bne	$s6,$t8,408118 <_dssetlock+0x78>
  4080ec:	00809025 	move	$s2,$a0
  4080f0:	8eb9044c 	lw	$t9,1100($s5)
  4080f4:	24010002 	li	$at,2
  4080f8:	17210007 	bne	$t9,$at,408118 <_dssetlock+0x78>
  4080fc:	00002025 	move	$a0,$zero
  408100:	3c050042 	lui	$a1,0x42
  408104:	24a59fd4 	addiu	$a1,$a1,-24620
  408108:	02403025 	move	$a2,$s2
  40810c:	02c03825 	move	$a3,$s6
  408110:	0c103f10 	jal	40fc40 <_uprint>
  408114:	afb00010 	sw	$s0,16($sp)
  408118:	2653000c 	addiu	$s3,$s2,12
  40811c:	8e45000c 	lw	$a1,12($s2)
  408120:	8f998bbc 	lw	$t9,-29764($gp)
  408124:	00058c02 	srl	$s1,$a1,0x10
  408128:	16910004 	bne	$s4,$s1,40813c <_dssetlock+0x9c>
  40812c:	30b0ffff 	andi	$s0,$a1,0xffff
  408130:	30b0ffff 	andi	$s0,$a1,0xffff
  408134:	10000004 	b	408148 <_dssetlock+0xa8>
  408138:	02003025 	move	$a2,$s0
  40813c:	26280001 	addiu	$t0,$s1,1
  408140:	00084c00 	sll	$t1,$t0,0x10
  408144:	01303025 	or	$a2,$t1,$s0
  408148:	02602025 	move	$a0,$s3
  40814c:	0320f809 	jalr	$t9
  408150:	02a03825 	move	$a3,$s5
  408154:	1040fff1 	beqz	$v0,40811c <_dssetlock+0x7c>
  408158:	00000000 	nop
  40815c:	1611000a 	bne	$s0,$s1,408188 <_dssetlock+0xe8>
  408160:	00116880 	sll	$t5,$s1,0x2
  408164:	ae560004 	sw	$s6,4($s2)
  408168:	97aa004a 	lhu	$t2,74($sp)
  40816c:	00000000 	nop
  408170:	314b0002 	andi	$t3,$t2,0x2
  408174:	11600029 	beqz	$t3,40821c <_dssetlock+0x17c>
  408178:	97aa004a 	lhu	$t2,74($sp)
  40817c:	8e4c0018 	lw	$t4,24($s2)
  408180:	10000025 	b	408218 <_dssetlock+0x178>
  408184:	ad960000 	sw	$s6,0($t4)
  408188:	00117080 	sll	$t6,$s1,0x2
  40818c:	024ea021 	addu	$s4,$s2,$t6
  408190:	2694001c 	addiu	$s4,$s4,28
  408194:	024d9821 	addu	$s3,$s2,$t5
  408198:	8e70001c 	lw	$s0,28($s3)
  40819c:	8f998bbc 	lw	$t9,-29764($gp)
  4081a0:	02802025 	move	$a0,$s4
  4081a4:	02c03025 	move	$a2,$s6
  4081a8:	02a03825 	move	$a3,$s5
  4081ac:	0320f809 	jalr	$t9
  4081b0:	02002825 	move	$a1,$s0
  4081b4:	1040fff8 	beqz	$v0,408198 <_dssetlock+0xf8>
  4081b8:	00000000 	nop
  4081bc:	24010001 	li	$at,1
  4081c0:	1601000a 	bne	$s0,$at,4081ec <_dssetlock+0x14c>
  4081c4:	24090001 	li	$t1,1
  4081c8:	ae560004 	sw	$s6,4($s2)
  4081cc:	97af004a 	lhu	$t7,74($sp)
  4081d0:	00000000 	nop
  4081d4:	31f80002 	andi	$t8,$t7,0x2
  4081d8:	13000010 	beqz	$t8,40821c <_dssetlock+0x17c>
  4081dc:	97aa004a 	lhu	$t2,74($sp)
  4081e0:	8e480018 	lw	$t0,24($s2)
  4081e4:	1000000c 	b	408218 <_dssetlock+0x178>
  4081e8:	ad160000 	sw	$s6,0($t0)
  4081ec:	3c070042 	lui	$a3,0x42
  4081f0:	afa90040 	sw	$t1,64($sp)
  4081f4:	24e7a010 	addiu	$a3,$a3,-24560
  4081f8:	02a02025 	move	$a0,$s5
  4081fc:	00002825 	move	$a1,$zero
  408200:	0c10293a 	jal	40a4e8 <_usblock>
  408204:	02c03025 	move	$a2,$s6
  408208:	04410004 	bgez	$v0,40821c <_dssetlock+0x17c>
  40820c:	97aa004a 	lhu	$t2,74($sp)
  408210:	1000001d 	b	408288 <_dssetlock+0x1e8>
  408214:	2402ffff 	li	$v0,-1
  408218:	97aa004a 	lhu	$t2,74($sp)
  40821c:	00000000 	nop
  408220:	314b0001 	andi	$t3,$t2,0x1
  408224:	11600018 	beqz	$t3,408288 <_dssetlock+0x1e8>
  408228:	24020001 	li	$v0,1
  40822c:	8e420014 	lw	$v0,20($s2)
  408230:	00000000 	nop
  408234:	8c4c0004 	lw	$t4,4($v0)
  408238:	00000000 	nop
  40823c:	258d0001 	addiu	$t5,$t4,1
  408240:	ac4d0004 	sw	$t5,4($v0)
  408244:	8e420014 	lw	$v0,20($s2)
  408248:	00000000 	nop
  40824c:	8c4e0008 	lw	$t6,8($v0)
  408250:	00000000 	nop
  408254:	25d90001 	addiu	$t9,$t6,1
  408258:	ac590008 	sw	$t9,8($v0)
  40825c:	8faf0040 	lw	$t7,64($sp)
  408260:	00000000 	nop
  408264:	11e00008 	beqz	$t7,408288 <_dssetlock+0x1e8>
  408268:	24020001 	li	$v0,1
  40826c:	8e420014 	lw	$v0,20($s2)
  408270:	00000000 	nop
  408274:	8c580000 	lw	$t8,0($v0)
  408278:	00000000 	nop
  40827c:	27080001 	addiu	$t0,$t8,1
  408280:	ac480000 	sw	$t0,0($v0)
  408284:	24020001 	li	$v0,1
  408288:	8fbf003c 	lw	$ra,60($sp)
  40828c:	8fb00020 	lw	$s0,32($sp)
  408290:	8fb10024 	lw	$s1,36($sp)
  408294:	8fb20028 	lw	$s2,40($sp)
  408298:	8fb3002c 	lw	$s3,44($sp)
  40829c:	8fb40030 	lw	$s4,48($sp)
  4082a0:	8fb50034 	lw	$s5,52($sp)
  4082a4:	8fb60038 	lw	$s6,56($sp)
  4082a8:	03e00008 	jr	$ra
  4082ac:	27bd0060 	addiu	$sp,$sp,96

004082b0 <_dsunsetlock>:
  4082b0:	27bdffb8 	addiu	$sp,$sp,-72
  4082b4:	afbf0044 	sw	$ra,68($sp)
  4082b8:	afbe0040 	sw	$s8,64($sp)
  4082bc:	afb7003c 	sw	$s7,60($sp)
  4082c0:	afb60038 	sw	$s6,56($sp)
  4082c4:	afb50034 	sw	$s5,52($sp)
  4082c8:	afb40030 	sw	$s4,48($sp)
  4082cc:	afb3002c 	sw	$s3,44($sp)
  4082d0:	afb20028 	sw	$s2,40($sp)
  4082d4:	afb10024 	sw	$s1,36($sp)
  4082d8:	afb00020 	sw	$s0,32($sp)
  4082dc:	3c0e0020 	lui	$t6,0x20
  4082e0:	8dc70e00 	lw	$a3,3584($t6)
  4082e4:	8c820004 	lw	$v0,4($a0)
  4082e8:	94970010 	lhu	$s7,16($a0)
  4082ec:	8c950000 	lw	$s5,0($a0)
  4082f0:	94900012 	lhu	$s0,18($a0)
  4082f4:	00808825 	move	$s1,$a0
  4082f8:	10e20017 	beq	$a3,$v0,408358 <_dsunsetlock+0xa8>
  4082fc:	00a09025 	move	$s2,$a1
  408300:	1440000c 	bnez	$v0,408334 <_dsunsetlock+0x84>
  408304:	00000000 	nop
  408308:	8eaf044c 	lw	$t7,1100($s5)
  40830c:	24010002 	li	$at,2
  408310:	15e10006 	bne	$t7,$at,40832c <_dsunsetlock+0x7c>
  408314:	00002025 	move	$a0,$zero
  408318:	3c050042 	lui	$a1,0x42
  40831c:	24a5a01c 	addiu	$a1,$a1,-24548
  408320:	02203025 	move	$a2,$s1
  408324:	0c103f10 	jal	40fc40 <_uprint>
  408328:	afb20010 	sw	$s2,16($sp)
  40832c:	1000004c 	b	408460 <_dsunsetlock+0x1b0>
  408330:	00001025 	move	$v0,$zero
  408334:	8eb8044c 	lw	$t8,1100($s5)
  408338:	24010002 	li	$at,2
  40833c:	17010006 	bne	$t8,$at,408358 <_dsunsetlock+0xa8>
  408340:	00002025 	move	$a0,$zero
  408344:	3c050042 	lui	$a1,0x42
  408348:	24a5a064 	addiu	$a1,$a1,-24476
  40834c:	02203025 	move	$a2,$s1
  408350:	0c103f10 	jal	40fc40 <_uprint>
  408354:	afb20010 	sw	$s2,16($sp)
  408358:	321e0002 	andi	$s8,$s0,0x2
  40835c:	13c00004 	beqz	$s8,408370 <_dsunsetlock+0xc0>
  408360:	2636000c 	addiu	$s6,$s1,12
  408364:	8e280018 	lw	$t0,24($s1)
  408368:	2419ffff 	li	$t9,-1
  40836c:	ad190000 	sw	$t9,0($t0)
  408370:	ae200004 	sw	$zero,4($s1)
  408374:	3c14ffff 	lui	$s4,0xffff
  408378:	8e29000c 	lw	$t1,12($s1)
  40837c:	00000000 	nop
  408380:	312affff 	andi	$t2,$t1,0xffff
  408384:	000a5880 	sll	$t3,$t2,0x2
  408388:	022b6021 	addu	$t4,$s1,$t3
  40838c:	ad80001c 	sw	$zero,28($t4)
  408390:	8e25000c 	lw	$a1,12($s1)
  408394:	8f998bbc 	lw	$t9,-29764($gp)
  408398:	30a2ffff 	andi	$v0,$a1,0xffff
  40839c:	16e20003 	bne	$s7,$v0,4083ac <_dsunsetlock+0xfc>
  4083a0:	02c02025 	move	$a0,$s6
  4083a4:	10000004 	b	4083b8 <_dsunsetlock+0x108>
  4083a8:	00b48024 	and	$s0,$a1,$s4
  4083ac:	244d0001 	addiu	$t5,$v0,1
  4083b0:	00b47024 	and	$t6,$a1,$s4
  4083b4:	01ae8025 	or	$s0,$t5,$t6
  4083b8:	02003025 	move	$a2,$s0
  4083bc:	0320f809 	jalr	$t9
  4083c0:	02a03825 	move	$a3,$s5
  4083c4:	1040fff2 	beqz	$v0,408390 <_dsunsetlock+0xe0>
  4083c8:	00000000 	nop
  4083cc:	3202ffff 	andi	$v0,$s0,0xffff
  4083d0:	00107c02 	srl	$t7,$s0,0x10
  4083d4:	104f0021 	beq	$v0,$t7,40845c <_dsunsetlock+0x1ac>
  4083d8:	0002c080 	sll	$t8,$v0,0x2
  4083dc:	00024080 	sll	$t0,$v0,0x2
  4083e0:	02289821 	addu	$s3,$s1,$t0
  4083e4:	2673001c 	addiu	$s3,$s3,28
  4083e8:	02389021 	addu	$s2,$s1,$t8
  4083ec:	8e50001c 	lw	$s0,28($s2)
  4083f0:	8f998bbc 	lw	$t9,-29764($gp)
  4083f4:	02602025 	move	$a0,$s3
  4083f8:	24060001 	li	$a2,1
  4083fc:	02a03825 	move	$a3,$s5
  408400:	0320f809 	jalr	$t9
  408404:	02002825 	move	$a1,$s0
  408408:	1040fff8 	beqz	$v0,4083ec <_dsunsetlock+0x13c>
  40840c:	00000000 	nop
  408410:	2e010002 	sltiu	$at,$s0,2
  408414:	14200011 	bnez	$at,40845c <_dsunsetlock+0x1ac>
  408418:	02a02025 	move	$a0,$s5
  40841c:	13c00004 	beqz	$s8,408430 <_dsunsetlock+0x180>
  408420:	00002825 	move	$a1,$zero
  408424:	8e290018 	lw	$t1,24($s1)
  408428:	00000000 	nop
  40842c:	ad300000 	sw	$s0,0($t1)
  408430:	3c070042 	lui	$a3,0x42
  408434:	ae300004 	sw	$s0,4($s1)
  408438:	24e7a0b8 	addiu	$a3,$a3,-24392
  40843c:	0c10298e 	jal	40a638 <_usunblock>
  408440:	02003025 	move	$a2,$s0
  408444:	04410003 	bgez	$v0,408454 <_dsunsetlock+0x1a4>
  408448:	24010001 	li	$at,1
  40844c:	10000004 	b	408460 <_dsunsetlock+0x1b0>
  408450:	2402ffff 	li	$v0,-1
  408454:	1041ffc8 	beq	$v0,$at,408378 <_dsunsetlock+0xc8>
  408458:	00000000 	nop
  40845c:	00001025 	move	$v0,$zero
  408460:	8fbf0044 	lw	$ra,68($sp)
  408464:	8fb00020 	lw	$s0,32($sp)
  408468:	8fb10024 	lw	$s1,36($sp)
  40846c:	8fb20028 	lw	$s2,40($sp)
  408470:	8fb3002c 	lw	$s3,44($sp)
  408474:	8fb40030 	lw	$s4,48($sp)
  408478:	8fb50034 	lw	$s5,52($sp)
  40847c:	8fb60038 	lw	$s6,56($sp)
  408480:	8fb7003c 	lw	$s7,60($sp)
  408484:	8fbe0040 	lw	$s8,64($sp)
  408488:	03e00008 	jr	$ra
  40848c:	27bd0048 	addiu	$sp,$sp,72

00408490 <_dscsetlock>:
  408490:	27bdffd8 	addiu	$sp,$sp,-40
  408494:	afb00014 	sw	$s0,20($sp)
  408498:	00a08025 	move	$s0,$a1
  40849c:	afb30020 	sw	$s3,32($sp)
  4084a0:	afb10018 	sw	$s1,24($sp)
  4084a4:	00808825 	move	$s1,$a0
  4084a8:	afbf0024 	sw	$ra,36($sp)
  4084ac:	afb2001c 	sw	$s2,28($sp)
  4084b0:	00009825 	move	$s3,$zero
  4084b4:	00001825 	move	$v1,$zero
  4084b8:	00a01025 	move	$v0,$a1
  4084bc:	1200000a 	beqz	$s0,4084e8 <_dscsetlock+0x58>
  4084c0:	2610ffff 	addiu	$s0,$s0,-1
  4084c4:	24120001 	li	$s2,1
  4084c8:	0c10215c 	jal	408570 <_dscsetlock+0xe0>
  4084cc:	02202025 	move	$a0,$s1
  4084d0:	10520005 	beq	$v0,$s2,4084e8 <_dscsetlock+0x58>
  4084d4:	00401825 	move	$v1,$v0
  4084d8:	02001025 	move	$v0,$s0
  4084dc:	02409825 	move	$s3,$s2
  4084e0:	1600fff9 	bnez	$s0,4084c8 <_dscsetlock+0x38>
  4084e4:	2610ffff 	addiu	$s0,$s0,-1
  4084e8:	962e0012 	lhu	$t6,18($s1)
  4084ec:	24120001 	li	$s2,1
  4084f0:	31cf0001 	andi	$t7,$t6,0x1
  4084f4:	11e00017 	beqz	$t7,408554 <_dscsetlock+0xc4>
  4084f8:	8fbf0024 	lw	$ra,36($sp)
  4084fc:	8e220014 	lw	$v0,20($s1)
  408500:	00000000 	nop
  408504:	8c580004 	lw	$t8,4($v0)
  408508:	00000000 	nop
  40850c:	27190001 	addiu	$t9,$t8,1
  408510:	14720007 	bne	$v1,$s2,408530 <_dscsetlock+0xa0>
  408514:	ac590004 	sw	$t9,4($v0)
  408518:	8e220014 	lw	$v0,20($s1)
  40851c:	00000000 	nop
  408520:	8c480008 	lw	$t0,8($v0)
  408524:	00000000 	nop
  408528:	25090001 	addiu	$t1,$t0,1
  40852c:	ac490008 	sw	$t1,8($v0)
  408530:	12600008 	beqz	$s3,408554 <_dscsetlock+0xc4>
  408534:	8fbf0024 	lw	$ra,36($sp)
  408538:	8e220014 	lw	$v0,20($s1)
  40853c:	00000000 	nop
  408540:	8c4a0000 	lw	$t2,0($v0)
  408544:	00000000 	nop
  408548:	254b0001 	addiu	$t3,$t2,1
  40854c:	ac4b0000 	sw	$t3,0($v0)
  408550:	8fbf0024 	lw	$ra,36($sp)
  408554:	8fb00014 	lw	$s0,20($sp)
  408558:	8fb10018 	lw	$s1,24($sp)
  40855c:	8fb2001c 	lw	$s2,28($sp)
  408560:	8fb30020 	lw	$s3,32($sp)
  408564:	27bd0028 	addiu	$sp,$sp,40
  408568:	03e00008 	jr	$ra
  40856c:	00601025 	move	$v0,$v1
  408570:	27bdffb8 	addiu	$sp,$sp,-72
  408574:	afbf002c 	sw	$ra,44($sp)
  408578:	afb40028 	sw	$s4,40($sp)
  40857c:	afb30024 	sw	$s3,36($sp)
  408580:	afb20020 	sw	$s2,32($sp)
  408584:	afb1001c 	sw	$s1,28($sp)
  408588:	afb00018 	sw	$s0,24($sp)
  40858c:	948e0012 	lhu	$t6,18($a0)
  408590:	94930010 	lhu	$s3,16($a0)
  408594:	8c940000 	lw	$s4,0($a0)
  408598:	3c0f0020 	lui	$t7,0x20
  40859c:	a7ae0036 	sh	$t6,54($sp)
  4085a0:	8df80e00 	lw	$t8,3584($t7)
  4085a4:	00809025 	move	$s2,$a0
  4085a8:	afb80030 	sw	$t8,48($sp)
  4085ac:	8e45000c 	lw	$a1,12($s2)
  4085b0:	00000000 	nop
  4085b4:	30b0ffff 	andi	$s0,$a1,0xffff
  4085b8:	00058c02 	srl	$s1,$a1,0x10
  4085bc:	12110003 	beq	$s0,$s1,4085cc <_dscsetlock+0x13c>
  4085c0:	26390001 	addiu	$t9,$s1,1
  4085c4:	10000021 	b	40864c <_dscsetlock+0x1bc>
  4085c8:	00001025 	move	$v0,$zero
  4085cc:	16710003 	bne	$s3,$s1,4085dc <_dscsetlock+0x14c>
  4085d0:	2644000c 	addiu	$a0,$s2,12
  4085d4:	10000003 	b	4085e4 <_dscsetlock+0x154>
  4085d8:	02003025 	move	$a2,$s0
  4085dc:	00194400 	sll	$t0,$t9,0x10
  4085e0:	01103025 	or	$a2,$t0,$s0
  4085e4:	8f998bbc 	lw	$t9,-29764($gp)
  4085e8:	02803825 	move	$a3,$s4
  4085ec:	0320f809 	jalr	$t9
  4085f0:	00000000 	nop
  4085f4:	1040ffed 	beqz	$v0,4085ac <_dscsetlock+0x11c>
  4085f8:	00000000 	nop
  4085fc:	1611000c 	bne	$s0,$s1,408630 <_dscsetlock+0x1a0>
  408600:	3c040042 	lui	$a0,0x42
  408604:	8fa90030 	lw	$t1,48($sp)
  408608:	00000000 	nop
  40860c:	ae490004 	sw	$t1,4($s2)
  408610:	97aa0036 	lhu	$t2,54($sp)
  408614:	8fac0030 	lw	$t4,48($sp)
  408618:	314b0002 	andi	$t3,$t2,0x2
  40861c:	1160000b 	beqz	$t3,40864c <_dscsetlock+0x1bc>
  408620:	24020001 	li	$v0,1
  408624:	8e4d0018 	lw	$t5,24($s2)
  408628:	10000007 	b	408648 <_dscsetlock+0x1b8>
  40862c:	adac0000 	sw	$t4,0($t5)
  408630:	3c050042 	lui	$a1,0x42
  408634:	24a5a0c4 	addiu	$a1,$a1,-24380
  408638:	0c102ffc 	jal	40bff0 <fprintf>
  40863c:	2484dc84 	addiu	$a0,$a0,-9084
  408640:	0c103320 	jal	40cc80 <abort>
  408644:	00000000 	nop
  408648:	24020001 	li	$v0,1
  40864c:	8fbf002c 	lw	$ra,44($sp)
  408650:	8fb00018 	lw	$s0,24($sp)
  408654:	8fb1001c 	lw	$s1,28($sp)
  408658:	8fb20020 	lw	$s2,32($sp)
  40865c:	8fb30024 	lw	$s3,36($sp)
  408660:	8fb40028 	lw	$s4,40($sp)
  408664:	03e00008 	jr	$ra
  408668:	27bd0048 	addiu	$sp,$sp,72

0040866c <_ussoftlocks_init>:
  40866c:	3c0e0040 	lui	$t6,0x40
  408670:	3c0f0040 	lui	$t7,0x40
  408674:	3c180040 	lui	$t8,0x40
  408678:	3c190040 	lui	$t9,0x40
  40867c:	3c080040 	lui	$t0,0x40
  408680:	3c090040 	lui	$t1,0x40
  408684:	3c0a0041 	lui	$t2,0x41
  408688:	3c0b0041 	lui	$t3,0x41
  40868c:	3c0c0041 	lui	$t4,0x41
  408690:	3c0d0040 	lui	$t5,0x40
  408694:	3c020041 	lui	$v0,0x41
  408698:	25ce7e08 	addiu	$t6,$t6,32264
  40869c:	25ef7e30 	addiu	$t7,$t7,32304
  4086a0:	27187f90 	addiu	$t8,$t8,32656
  4086a4:	27397c3c 	addiu	$t9,$t9,31804
  4086a8:	25087ba0 	addiu	$t0,$t0,31648
  4086ac:	25297d60 	addiu	$t1,$t1,32096
  4086b0:	254ad920 	addiu	$t2,$t2,-9952
  4086b4:	256bda4c 	addiu	$t3,$t3,-9652
  4086b8:	258cd9d8 	addiu	$t4,$t4,-9768
  4086bc:	25ad7b60 	addiu	$t5,$t5,31584
  4086c0:	2442db30 	addiu	$v0,$v0,-9424
  4086c4:	afa40000 	sw	$a0,0($sp)
  4086c8:	afa50004 	sw	$a1,4($sp)
  4086cc:	af8e8bb0 	sw	$t6,-29776($gp)
  4086d0:	af8f8bb4 	sw	$t7,-29772($gp)
  4086d4:	af988bb8 	sw	$t8,-29768($gp)
  4086d8:	af998b9c 	sw	$t9,-29796($gp)
  4086dc:	af888ba0 	sw	$t0,-29792($gp)
  4086e0:	af898ba4 	sw	$t1,-29788($gp)
  4086e4:	af8a8b94 	sw	$t2,-29804($gp)
  4086e8:	af8b8b98 	sw	$t3,-29800($gp)
  4086ec:	af8c8bac 	sw	$t4,-29780($gp)
  4086f0:	af8d8ba8 	sw	$t5,-29784($gp)
  4086f4:	af828bbc 	sw	$v0,-29764($gp)
  4086f8:	03e00008 	jr	$ra
  4086fc:	af828bc0 	sw	$v0,-29760($gp)

00408700 <_Psema>:
  408700:	27bdffc0 	addiu	$sp,$sp,-64
  408704:	afbf0024 	sw	$ra,36($sp)
  408708:	afb00020 	sw	$s0,32($sp)
  40870c:	afa50044 	sw	$a1,68($sp)
  408710:	94830016 	lhu	$v1,22($a0)
  408714:	8f998b94 	lw	$t9,-29804($gp)
  408718:	00808025 	move	$s0,$a0
  40871c:	8c840024 	lw	$a0,36($a0)
  408720:	0320f809 	jalr	$t9
  408724:	a7a3003e 	sh	$v1,62($sp)
  408728:	860e000c 	lh	$t6,12($s0)
  40872c:	97a3003e 	lhu	$v1,62($sp)
  408730:	25cfffff 	addiu	$t7,$t6,-1
  408734:	a60f000c 	sh	$t7,12($s0)
  408738:	8604000c 	lh	$a0,12($s0)
  40873c:	3c0e0020 	lui	$t6,0x20
  408740:	048100c0 	bgez	$a0,408a44 <_Psema+0x344>
  408744:	24090001 	li	$t1,1
  408748:	8e180000 	lw	$t8,0($s0)
  40874c:	96050014 	lhu	$a1,20($s0)
  408750:	30690010 	andi	$t1,$v1,0x10
  408754:	00604025 	move	$t0,$v1
  408758:	1120002b 	beqz	$t1,408808 <_Psema+0x108>
  40875c:	afb80034 	sw	$t8,52($sp)
  408760:	3c0a0020 	lui	$t2,0x20
  408764:	8d4b0e00 	lw	$t3,3584($t2)
  408768:	8e0c0004 	lw	$t4,4($s0)
  40876c:	248d0001 	addiu	$t5,$a0,1
  408770:	156c0025 	bne	$t3,$t4,408808 <_Psema+0x108>
  408774:	306f0002 	andi	$t7,$v1,0x2
  408778:	8619000e 	lh	$t9,14($s0)
  40877c:	a60d000c 	sh	$t5,12($s0)
  408780:	272e0001 	addiu	$t6,$t9,1
  408784:	11e0001a 	beqz	$t7,4087f0 <_Psema+0xf0>
  408788:	a60e000e 	sh	$t6,14($s0)
  40878c:	8fb80034 	lw	$t8,52($sp)
  408790:	8f998b94 	lw	$t9,-29804($gp)
  408794:	8f040440 	lw	$a0,1088($t8)
  408798:	0320f809 	jalr	$t9
  40879c:	00000000 	nop
  4087a0:	3c030020 	lui	$v1,0x20
  4087a4:	8c690e00 	lw	$t1,3584($v1)
  4087a8:	8e0a0020 	lw	$t2,32($s0)
  4087ac:	8fa50044 	lw	$a1,68($sp)
  4087b0:	ad490000 	sw	$t1,0($t2)
  4087b4:	8e0b0020 	lw	$t3,32($s0)
  4087b8:	00000000 	nop
  4087bc:	ad650004 	sw	$a1,4($t3)
  4087c0:	8e0d0020 	lw	$t5,32($s0)
  4087c4:	8c6c0e00 	lw	$t4,3584($v1)
  4087c8:	00000000 	nop
  4087cc:	adac0008 	sw	$t4,8($t5)
  4087d0:	8e0e0020 	lw	$t6,32($s0)
  4087d4:	00000000 	nop
  4087d8:	adc5000c 	sw	$a1,12($t6)
  4087dc:	8faf0034 	lw	$t7,52($sp)
  4087e0:	8f998b98 	lw	$t9,-29800($gp)
  4087e4:	8de40440 	lw	$a0,1088($t7)
  4087e8:	0320f809 	jalr	$t9
  4087ec:	00000000 	nop
  4087f0:	8f998b98 	lw	$t9,-29800($gp)
  4087f4:	8e040024 	lw	$a0,36($s0)
  4087f8:	0320f809 	jalr	$t9
  4087fc:	00000000 	nop
  408800:	100000da 	b	408b6c <_Psema+0x46c>
  408804:	24020001 	li	$v0,1
  408808:	96030010 	lhu	$v1,16($s0)
  40880c:	3c0d0020 	lui	$t5,0x20
  408810:	24780001 	addiu	$t8,$v1,1
  408814:	14a30002 	bne	$a1,$v1,408820 <_Psema+0x120>
  408818:	a6180010 	sh	$t8,16($s0)
  40881c:	a6000010 	sh	$zero,16($s0)
  408820:	96090012 	lhu	$t1,18($s0)
  408824:	960a0010 	lhu	$t2,16($s0)
  408828:	00037880 	sll	$t7,$v1,0x2
  40882c:	152a0012 	bne	$t1,$t2,408878 <_Psema+0x178>
  408830:	020fc021 	addu	$t8,$s0,$t7
  408834:	8f998b98 	lw	$t9,-29800($gp)
  408838:	8e040024 	lw	$a0,36($s0)
  40883c:	0320f809 	jalr	$t9
  408840:	00000000 	nop
  408844:	8f8b8a30 	lw	$t3,-30160($gp)
  408848:	00002025 	move	$a0,$zero
  40884c:	11600006 	beqz	$t3,408868 <_Psema+0x168>
  408850:	3c050042 	lui	$a1,0x42
  408854:	3c0c0020 	lui	$t4,0x20
  408858:	8d870e00 	lw	$a3,3584($t4)
  40885c:	24a5a0f0 	addiu	$a1,$a1,-24336
  408860:	0c103f10 	jal	40fc40 <_uprint>
  408864:	02003025 	move	$a2,$s0
  408868:	0c101ebd 	jal	407af4 <_setoserror>
  40886c:	24040022 	li	$a0,34
  408870:	100000be 	b	408b6c <_Psema+0x46c>
  408874:	2402ffff 	li	$v0,-1
  408878:	8dae0e00 	lw	$t6,3584($t5)
  40887c:	31090007 	andi	$t1,$t0,0x7
  408880:	af0e0028 	sw	$t6,40($t8)
  408884:	11200046 	beqz	$t1,4089a0 <_Psema+0x2a0>
  408888:	afa9002c 	sw	$t1,44($sp)
  40888c:	8fb90034 	lw	$t9,52($sp)
  408890:	00000000 	nop
  408894:	8f240440 	lw	$a0,1088($t9)
  408898:	8f998b94 	lw	$t9,-29804($gp)
  40889c:	afa80028 	sw	$t0,40($sp)
  4088a0:	0320f809 	jalr	$t9
  4088a4:	00000000 	nop
  4088a8:	8fa80028 	lw	$t0,40($sp)
  4088ac:	3c0a0020 	lui	$t2,0x20
  4088b0:	310b0001 	andi	$t3,$t0,0x1
  4088b4:	11600016 	beqz	$t3,408910 <_Psema+0x210>
  4088b8:	31090002 	andi	$t1,$t0,0x2
  4088bc:	8e02001c 	lw	$v0,28($s0)
  4088c0:	00000000 	nop
  4088c4:	8c4c0004 	lw	$t4,4($v0)
  4088c8:	00000000 	nop
  4088cc:	258d0001 	addiu	$t5,$t4,1
  4088d0:	ac4d0004 	sw	$t5,4($v0)
  4088d4:	8e02001c 	lw	$v0,28($s0)
  4088d8:	00000000 	nop
  4088dc:	8c4f0010 	lw	$t7,16($v0)
  4088e0:	00000000 	nop
  4088e4:	25ee0001 	addiu	$t6,$t7,1
  4088e8:	ac4e0010 	sw	$t6,16($v0)
  4088ec:	8e02001c 	lw	$v0,28($s0)
  4088f0:	00000000 	nop
  4088f4:	8c430010 	lw	$v1,16($v0)
  4088f8:	8c580014 	lw	$t8,20($v0)
  4088fc:	00000000 	nop
  408900:	0303082a 	slt	$at,$t8,$v1
  408904:	10200002 	beqz	$at,408910 <_Psema+0x210>
  408908:	00000000 	nop
  40890c:	ac430014 	sw	$v1,20($v0)
  408910:	1120000a 	beqz	$t1,40893c <_Psema+0x23c>
  408914:	8faf0034 	lw	$t7,52($sp)
  408918:	8d590e00 	lw	$t9,3584($t2)
  40891c:	8e0b0020 	lw	$t3,32($s0)
  408920:	00000000 	nop
  408924:	ad790008 	sw	$t9,8($t3)
  408928:	8e0d0020 	lw	$t5,32($s0)
  40892c:	8fac0044 	lw	$t4,68($sp)
  408930:	00000000 	nop
  408934:	adac000c 	sw	$t4,12($t5)
  408938:	8faf0034 	lw	$t7,52($sp)
  40893c:	8f998b98 	lw	$t9,-29800($gp)
  408940:	8de40440 	lw	$a0,1088($t7)
  408944:	0320f809 	jalr	$t9
  408948:	afa80028 	sw	$t0,40($sp)
  40894c:	8fae0034 	lw	$t6,52($sp)
  408950:	8fa80028 	lw	$t0,40($sp)
  408954:	8dd80428 	lw	$t8,1064($t6)
  408958:	310a0004 	andi	$t2,$t0,0x4
  40895c:	33090004 	andi	$t1,$t8,0x4
  408960:	1120000f 	beqz	$t1,4089a0 <_Psema+0x2a0>
  408964:	00000000 	nop
  408968:	1140000d 	beqz	$t2,4089a0 <_Psema+0x2a0>
  40896c:	02002025 	move	$a0,$s0
  408970:	8fac0044 	lw	$t4,68($sp)
  408974:	3c0b0020 	lui	$t3,0x20
  408978:	8d660e00 	lw	$a2,3584($t3)
  40897c:	afac0010 	sw	$t4,16($sp)
  408980:	860d000c 	lh	$t5,12($s0)
  408984:	afa80028 	sw	$t0,40($sp)
  408988:	24050002 	li	$a1,2
  40898c:	00003825 	move	$a3,$zero
  408990:	0c10264f 	jal	40993c <_usdumpsema+0x174>
  408994:	afad0014 	sw	$t5,20($sp)
  408998:	8fa80028 	lw	$t0,40($sp)
  40899c:	00000000 	nop
  4089a0:	8f998b98 	lw	$t9,-29800($gp)
  4089a4:	8e040024 	lw	$a0,36($s0)
  4089a8:	0320f809 	jalr	$t9
  4089ac:	afa80028 	sw	$t0,40($sp)
  4089b0:	3c0f0020 	lui	$t7,0x20
  4089b4:	8de60e00 	lw	$a2,3584($t7)
  4089b8:	8fa40034 	lw	$a0,52($sp)
  4089bc:	02002825 	move	$a1,$s0
  4089c0:	0c10293a 	jal	40a4e8 <_usblock>
  4089c4:	27878070 	addiu	$a3,$gp,-32656
  4089c8:	8fa80028 	lw	$t0,40($sp)
  4089cc:	04410003 	bgez	$v0,4089dc <_Psema+0x2dc>
  4089d0:	310e0008 	andi	$t6,$t0,0x8
  4089d4:	10000065 	b	408b6c <_Psema+0x46c>
  4089d8:	2402ffff 	li	$v0,-1
  4089dc:	11c00004 	beqz	$t6,4089f0 <_Psema+0x2f0>
  4089e0:	8fb8002c 	lw	$t8,44($sp)
  4089e4:	10000061 	b	408b6c <_Psema+0x46c>
  4089e8:	00001025 	move	$v0,$zero
  4089ec:	8fb8002c 	lw	$t8,44($sp)
  4089f0:	8fa90034 	lw	$t1,52($sp)
  4089f4:	13000011 	beqz	$t8,408a3c <_Psema+0x33c>
  4089f8:	00000000 	nop
  4089fc:	8d2a0428 	lw	$t2,1064($t1)
  408a00:	310c0004 	andi	$t4,$t0,0x4
  408a04:	314b0004 	andi	$t3,$t2,0x4
  408a08:	1160000c 	beqz	$t3,408a3c <_Psema+0x33c>
  408a0c:	00000000 	nop
  408a10:	1180000a 	beqz	$t4,408a3c <_Psema+0x33c>
  408a14:	02002025 	move	$a0,$s0
  408a18:	8fb90044 	lw	$t9,68($sp)
  408a1c:	3c0d0020 	lui	$t5,0x20
  408a20:	8da60e00 	lw	$a2,3584($t5)
  408a24:	afb90010 	sw	$t9,16($sp)
  408a28:	860f000c 	lh	$t7,12($s0)
  408a2c:	24050003 	li	$a1,3
  408a30:	00003825 	move	$a3,$zero
  408a34:	0c10264f 	jal	40993c <_usdumpsema+0x174>
  408a38:	afaf0014 	sw	$t7,20($sp)
  408a3c:	1000004b 	b	408b6c <_Psema+0x46c>
  408a40:	24020001 	li	$v0,1
  408a44:	8dd80e00 	lw	$t8,3584($t6)
  408a48:	306a0007 	andi	$t2,$v1,0x7
  408a4c:	a609000e 	sh	$t1,14($s0)
  408a50:	11400041 	beqz	$t2,408b58 <_Psema+0x458>
  408a54:	ae180004 	sw	$t8,4($s0)
  408a58:	8e020000 	lw	$v0,0($s0)
  408a5c:	8f998b94 	lw	$t9,-29804($gp)
  408a60:	8c440440 	lw	$a0,1088($v0)
  408a64:	afa30028 	sw	$v1,40($sp)
  408a68:	0320f809 	jalr	$t9
  408a6c:	afa20030 	sw	$v0,48($sp)
  408a70:	8fa80028 	lw	$t0,40($sp)
  408a74:	3c090020 	lui	$t1,0x20
  408a78:	310b0001 	andi	$t3,$t0,0x1
  408a7c:	1160000d 	beqz	$t3,408ab4 <_Psema+0x3b4>
  408a80:	31180002 	andi	$t8,$t0,0x2
  408a84:	8e02001c 	lw	$v0,28($s0)
  408a88:	00000000 	nop
  408a8c:	8c4c0004 	lw	$t4,4($v0)
  408a90:	00000000 	nop
  408a94:	258d0001 	addiu	$t5,$t4,1
  408a98:	ac4d0004 	sw	$t5,4($v0)
  408a9c:	8e02001c 	lw	$v0,28($s0)
  408aa0:	00000000 	nop
  408aa4:	8c4f0000 	lw	$t7,0($v0)
  408aa8:	00000000 	nop
  408aac:	25ee0001 	addiu	$t6,$t7,1
  408ab0:	ac4e0000 	sw	$t6,0($v0)
  408ab4:	13000012 	beqz	$t8,408b00 <_Psema+0x400>
  408ab8:	8faa0030 	lw	$t2,48($sp)
  408abc:	8d2a0e00 	lw	$t2,3584($t1)
  408ac0:	8e190020 	lw	$t9,32($s0)
  408ac4:	3c0d0020 	lui	$t5,0x20
  408ac8:	af2a0000 	sw	$t2,0($t9)
  408acc:	8e0c0020 	lw	$t4,32($s0)
  408ad0:	8fab0044 	lw	$t3,68($sp)
  408ad4:	00000000 	nop
  408ad8:	ad8b0004 	sw	$t3,4($t4)
  408adc:	8e0e0020 	lw	$t6,32($s0)
  408ae0:	8daf0e00 	lw	$t7,3584($t5)
  408ae4:	00000000 	nop
  408ae8:	adcf0008 	sw	$t7,8($t6)
  408aec:	8e090020 	lw	$t1,32($s0)
  408af0:	8fb80044 	lw	$t8,68($sp)
  408af4:	00000000 	nop
  408af8:	ad38000c 	sw	$t8,12($t1)
  408afc:	8faa0030 	lw	$t2,48($sp)
  408b00:	8f998b98 	lw	$t9,-29800($gp)
  408b04:	8d440440 	lw	$a0,1088($t2)
  408b08:	0320f809 	jalr	$t9
  408b0c:	afa80028 	sw	$t0,40($sp)
  408b10:	8fab0030 	lw	$t3,48($sp)
  408b14:	8fa80028 	lw	$t0,40($sp)
  408b18:	8d6c0428 	lw	$t4,1064($t3)
  408b1c:	310f0004 	andi	$t7,$t0,0x4
  408b20:	318d0004 	andi	$t5,$t4,0x4
  408b24:	11a0000c 	beqz	$t5,408b58 <_Psema+0x458>
  408b28:	00000000 	nop
  408b2c:	11e0000a 	beqz	$t7,408b58 <_Psema+0x458>
  408b30:	02002025 	move	$a0,$s0
  408b34:	8fb80044 	lw	$t8,68($sp)
  408b38:	3c0e0020 	lui	$t6,0x20
  408b3c:	8dc60e00 	lw	$a2,3584($t6)
  408b40:	afb80010 	sw	$t8,16($sp)
  408b44:	8609000c 	lh	$t1,12($s0)
  408b48:	24050001 	li	$a1,1
  408b4c:	00003825 	move	$a3,$zero
  408b50:	0c10264f 	jal	40993c <_usdumpsema+0x174>
  408b54:	afa90014 	sw	$t1,20($sp)
  408b58:	8f998b98 	lw	$t9,-29800($gp)
  408b5c:	8e040024 	lw	$a0,36($s0)
  408b60:	0320f809 	jalr	$t9
  408b64:	00000000 	nop
  408b68:	24020001 	li	$v0,1
  408b6c:	8fbf0024 	lw	$ra,36($sp)
  408b70:	8fb00020 	lw	$s0,32($sp)
  408b74:	03e00008 	jr	$ra
  408b78:	27bd0040 	addiu	$sp,$sp,64

00408b7c <_CPsema>:
  408b7c:	27bdffc0 	addiu	$sp,$sp,-64
  408b80:	afbf0024 	sw	$ra,36($sp)
  408b84:	afb00020 	sw	$s0,32($sp)
  408b88:	afa50044 	sw	$a1,68($sp)
  408b8c:	94820016 	lhu	$v0,22($a0)
  408b90:	8f998b94 	lw	$t9,-29804($gp)
  408b94:	00808025 	move	$s0,$a0
  408b98:	8c840024 	lw	$a0,36($a0)
  408b9c:	0320f809 	jalr	$t9
  408ba0:	a7a2003e 	sh	$v0,62($sp)
  408ba4:	8604000c 	lh	$a0,12($s0)
  408ba8:	97a2003e 	lhu	$v0,62($sp)
  408bac:	1c800033 	bgtz	$a0,408c7c <_CPsema+0x100>
  408bb0:	3c080020 	lui	$t0,0x20
  408bb4:	8e050000 	lw	$a1,0($s0)
  408bb8:	304e0010 	andi	$t6,$v0,0x10
  408bbc:	11c00029 	beqz	$t6,408c64 <_CPsema+0xe8>
  408bc0:	3c080020 	lui	$t0,0x20
  408bc4:	8d0f0e00 	lw	$t7,3584($t0)
  408bc8:	8e180004 	lw	$t8,4($s0)
  408bcc:	00000000 	nop
  408bd0:	15f80024 	bne	$t7,$t8,408c64 <_CPsema+0xe8>
  408bd4:	00000000 	nop
  408bd8:	860a000e 	lh	$t2,14($s0)
  408bdc:	304c0002 	andi	$t4,$v0,0x2
  408be0:	254b0001 	addiu	$t3,$t2,1
  408be4:	11800019 	beqz	$t4,408c4c <_CPsema+0xd0>
  408be8:	a60b000e 	sh	$t3,14($s0)
  408bec:	8f998b94 	lw	$t9,-29804($gp)
  408bf0:	8ca40440 	lw	$a0,1088($a1)
  408bf4:	0320f809 	jalr	$t9
  408bf8:	afa50038 	sw	$a1,56($sp)
  408bfc:	3c080020 	lui	$t0,0x20
  408c00:	8d0d0e00 	lw	$t5,3584($t0)
  408c04:	8e0e0020 	lw	$t6,32($s0)
  408c08:	8fa50038 	lw	$a1,56($sp)
  408c0c:	8fa90044 	lw	$t1,68($sp)
  408c10:	adcd0000 	sw	$t5,0($t6)
  408c14:	8e0f0020 	lw	$t7,32($s0)
  408c18:	00000000 	nop
  408c1c:	ade90004 	sw	$t1,4($t7)
  408c20:	8e0a0020 	lw	$t2,32($s0)
  408c24:	8d180e00 	lw	$t8,3584($t0)
  408c28:	00000000 	nop
  408c2c:	ad580008 	sw	$t8,8($t2)
  408c30:	8e0b0020 	lw	$t3,32($s0)
  408c34:	00000000 	nop
  408c38:	ad69000c 	sw	$t1,12($t3)
  408c3c:	8f998b98 	lw	$t9,-29800($gp)
  408c40:	8ca40440 	lw	$a0,1088($a1)
  408c44:	0320f809 	jalr	$t9
  408c48:	00000000 	nop
  408c4c:	8f998b98 	lw	$t9,-29800($gp)
  408c50:	8e040024 	lw	$a0,36($s0)
  408c54:	0320f809 	jalr	$t9
  408c58:	00000000 	nop
  408c5c:	10000053 	b	408dac <_CPsema+0x230>
  408c60:	24020001 	li	$v0,1
  408c64:	8f998b98 	lw	$t9,-29800($gp)
  408c68:	8e040024 	lw	$a0,36($s0)
  408c6c:	0320f809 	jalr	$t9
  408c70:	00000000 	nop
  408c74:	1000004d 	b	408dac <_CPsema+0x230>
  408c78:	00001025 	move	$v0,$zero
  408c7c:	248cffff 	addiu	$t4,$a0,-1
  408c80:	a60c000c 	sh	$t4,12($s0)
  408c84:	8d0d0e00 	lw	$t5,3584($t0)
  408c88:	240e0001 	li	$t6,1
  408c8c:	304f0007 	andi	$t7,$v0,0x7
  408c90:	a60e000e 	sh	$t6,14($s0)
  408c94:	00401825 	move	$v1,$v0
  408c98:	11e0003f 	beqz	$t7,408d98 <_CPsema+0x21c>
  408c9c:	ae0d0004 	sw	$t5,4($s0)
  408ca0:	8e020000 	lw	$v0,0($s0)
  408ca4:	8f998b94 	lw	$t9,-29804($gp)
  408ca8:	8c440440 	lw	$a0,1088($v0)
  408cac:	afa3002c 	sw	$v1,44($sp)
  408cb0:	0320f809 	jalr	$t9
  408cb4:	afa20034 	sw	$v0,52($sp)
  408cb8:	8fa3002c 	lw	$v1,44($sp)
  408cbc:	8fa90044 	lw	$t1,68($sp)
  408cc0:	30780001 	andi	$t8,$v1,0x1
  408cc4:	1300000d 	beqz	$t8,408cfc <_CPsema+0x180>
  408cc8:	3c080020 	lui	$t0,0x20
  408ccc:	8e02001c 	lw	$v0,28($s0)
  408cd0:	00000000 	nop
  408cd4:	8c4a0004 	lw	$t2,4($v0)
  408cd8:	00000000 	nop
  408cdc:	254b0001 	addiu	$t3,$t2,1
  408ce0:	ac4b0004 	sw	$t3,4($v0)
  408ce4:	8e02001c 	lw	$v0,28($s0)
  408ce8:	00000000 	nop
  408cec:	8c4c0000 	lw	$t4,0($v0)
  408cf0:	00000000 	nop
  408cf4:	258d0001 	addiu	$t5,$t4,1
  408cf8:	ac4d0000 	sw	$t5,0($v0)
  408cfc:	306e0002 	andi	$t6,$v1,0x2
  408d00:	11c00010 	beqz	$t6,408d44 <_CPsema+0x1c8>
  408d04:	8fad0034 	lw	$t5,52($sp)
  408d08:	8d0f0e00 	lw	$t7,3584($t0)
  408d0c:	8e190020 	lw	$t9,32($s0)
  408d10:	00000000 	nop
  408d14:	af2f0000 	sw	$t7,0($t9)
  408d18:	8e180020 	lw	$t8,32($s0)
  408d1c:	00000000 	nop
  408d20:	af090004 	sw	$t1,4($t8)
  408d24:	8e0b0020 	lw	$t3,32($s0)
  408d28:	8d0a0e00 	lw	$t2,3584($t0)
  408d2c:	00000000 	nop
  408d30:	ad6a0008 	sw	$t2,8($t3)
  408d34:	8e0c0020 	lw	$t4,32($s0)
  408d38:	00000000 	nop
  408d3c:	ad89000c 	sw	$t1,12($t4)
  408d40:	8fad0034 	lw	$t5,52($sp)
  408d44:	8f998b98 	lw	$t9,-29800($gp)
  408d48:	8da40440 	lw	$a0,1088($t5)
  408d4c:	0320f809 	jalr	$t9
  408d50:	afa3002c 	sw	$v1,44($sp)
  408d54:	8fae0034 	lw	$t6,52($sp)
  408d58:	8fa3002c 	lw	$v1,44($sp)
  408d5c:	8dcf0428 	lw	$t7,1064($t6)
  408d60:	8fa90044 	lw	$t1,68($sp)
  408d64:	31f80004 	andi	$t8,$t7,0x4
  408d68:	1300000b 	beqz	$t8,408d98 <_CPsema+0x21c>
  408d6c:	3c080020 	lui	$t0,0x20
  408d70:	306a0004 	andi	$t2,$v1,0x4
  408d74:	11400008 	beqz	$t2,408d98 <_CPsema+0x21c>
  408d78:	02002025 	move	$a0,$s0
  408d7c:	8d060e00 	lw	$a2,3584($t0)
  408d80:	afa90010 	sw	$t1,16($sp)
  408d84:	860b000c 	lh	$t3,12($s0)
  408d88:	24050001 	li	$a1,1
  408d8c:	00003825 	move	$a3,$zero
  408d90:	0c10264f 	jal	40993c <_usdumpsema+0x174>
  408d94:	afab0014 	sw	$t3,20($sp)
  408d98:	8f998b98 	lw	$t9,-29800($gp)
  408d9c:	8e040024 	lw	$a0,36($s0)
  408da0:	0320f809 	jalr	$t9
  408da4:	00000000 	nop
  408da8:	24020001 	li	$v0,1
  408dac:	8fbf0024 	lw	$ra,36($sp)
  408db0:	8fb00020 	lw	$s0,32($sp)
  408db4:	03e00008 	jr	$ra
  408db8:	27bd0040 	addiu	$sp,$sp,64

00408dbc <_Vsema>:
  408dbc:	27bdff98 	addiu	$sp,$sp,-104
  408dc0:	afbf0044 	sw	$ra,68($sp)
  408dc4:	afbe0040 	sw	$s8,64($sp)
  408dc8:	afb7003c 	sw	$s7,60($sp)
  408dcc:	afb60038 	sw	$s6,56($sp)
  408dd0:	afb50034 	sw	$s5,52($sp)
  408dd4:	afb40030 	sw	$s4,48($sp)
  408dd8:	afb3002c 	sw	$s3,44($sp)
  408ddc:	afb20028 	sw	$s2,40($sp)
  408de0:	afb10024 	sw	$s1,36($sp)
  408de4:	afb00020 	sw	$s0,32($sp)
  408de8:	94950016 	lhu	$s5,22($a0)
  408dec:	00808025 	move	$s0,$a0
  408df0:	32ae0010 	andi	$t6,$s5,0x10
  408df4:	00a0b025 	move	$s6,$a1
  408df8:	afae0048 	sw	$t6,72($sp)
  408dfc:	24170001 	li	$s7,1
  408e00:	3c1e0020 	lui	$s8,0x20
  408e04:	8f998b94 	lw	$t9,-29804($gp)
  408e08:	8e040024 	lw	$a0,36($s0)
  408e0c:	0320f809 	jalr	$t9
  408e10:	00000000 	nop
  408e14:	8faf0048 	lw	$t7,72($sp)
  408e18:	00000000 	nop
  408e1c:	11e0000f 	beqz	$t7,408e5c <_Vsema+0xa0>
  408e20:	00000000 	nop
  408e24:	8618000e 	lh	$t8,14($s0)
  408e28:	00000000 	nop
  408e2c:	2708ffff 	addiu	$t0,$t8,-1
  408e30:	a608000e 	sh	$t0,14($s0)
  408e34:	8609000e 	lh	$t1,14($s0)
  408e38:	00000000 	nop
  408e3c:	19200007 	blez	$t1,408e5c <_Vsema+0xa0>
  408e40:	00000000 	nop
  408e44:	8f998b98 	lw	$t9,-29800($gp)
  408e48:	8e040024 	lw	$a0,36($s0)
  408e4c:	0320f809 	jalr	$t9
  408e50:	00000000 	nop
  408e54:	10000096 	b	4090b0 <_Vsema+0x2f4>
  408e58:	00001025 	move	$v0,$zero
  408e5c:	860b000c 	lh	$t3,12($s0)
  408e60:	240affff 	li	$t2,-1
  408e64:	256c0001 	addiu	$t4,$t3,1
  408e68:	a60c000c 	sh	$t4,12($s0)
  408e6c:	860d000c 	lh	$t5,12($s0)
  408e70:	ae0a0004 	sw	$t2,4($s0)
  408e74:	1da00053 	bgtz	$t5,408fc4 <_Vsema+0x208>
  408e78:	32a50007 	andi	$a1,$s5,0x7
  408e7c:	96020012 	lhu	$v0,18($s0)
  408e80:	96040014 	lhu	$a0,20($s0)
  408e84:	244e0001 	addiu	$t6,$v0,1
  408e88:	00027880 	sll	$t7,$v0,0x2
  408e8c:	a60e0012 	sh	$t6,18($s0)
  408e90:	020fc021 	addu	$t8,$s0,$t7
  408e94:	8e120000 	lw	$s2,0($s0)
  408e98:	8f130028 	lw	$s3,40($t8)
  408e9c:	14820002 	bne	$a0,$v0,408ea8 <_Vsema+0xec>
  408ea0:	32b10002 	andi	$s1,$s5,0x2
  408ea4:	a6000012 	sh	$zero,18($s0)
  408ea8:	ae130004 	sw	$s3,4($s0)
  408eac:	10a00034 	beqz	$a1,408f80 <_Vsema+0x1c4>
  408eb0:	a617000e 	sh	$s7,14($s0)
  408eb4:	8f998b94 	lw	$t9,-29804($gp)
  408eb8:	8e440440 	lw	$a0,1088($s2)
  408ebc:	0320f809 	jalr	$t9
  408ec0:	32b40001 	andi	$s4,$s5,0x1
  408ec4:	1220000e 	beqz	$s1,408f00 <_Vsema+0x144>
  408ec8:	00000000 	nop
  408ecc:	8e080020 	lw	$t0,32($s0)
  408ed0:	00000000 	nop
  408ed4:	ad130000 	sw	$s3,0($t0)
  408ed8:	8e090020 	lw	$t1,32($s0)
  408edc:	00000000 	nop
  408ee0:	ad360004 	sw	$s6,4($t1)
  408ee4:	8e0b0020 	lw	$t3,32($s0)
  408ee8:	8fca0e00 	lw	$t2,3584($s8)
  408eec:	00000000 	nop
  408ef0:	ad6a0008 	sw	$t2,8($t3)
  408ef4:	8e0c0020 	lw	$t4,32($s0)
  408ef8:	00000000 	nop
  408efc:	ad96000c 	sw	$s6,12($t4)
  408f00:	1280000d 	beqz	$s4,408f38 <_Vsema+0x17c>
  408f04:	00000000 	nop
  408f08:	8e02001c 	lw	$v0,28($s0)
  408f0c:	00000000 	nop
  408f10:	8c4d0010 	lw	$t5,16($v0)
  408f14:	00000000 	nop
  408f18:	25aeffff 	addiu	$t6,$t5,-1
  408f1c:	ac4e0010 	sw	$t6,16($v0)
  408f20:	8e02001c 	lw	$v0,28($s0)
  408f24:	00000000 	nop
  408f28:	8c4f0008 	lw	$t7,8($v0)
  408f2c:	00000000 	nop
  408f30:	25f80001 	addiu	$t8,$t7,1
  408f34:	ac580008 	sw	$t8,8($v0)
  408f38:	8f998b98 	lw	$t9,-29800($gp)
  408f3c:	8e440440 	lw	$a0,1088($s2)
  408f40:	0320f809 	jalr	$t9
  408f44:	00000000 	nop
  408f48:	8e480428 	lw	$t0,1064($s2)
  408f4c:	32aa0004 	andi	$t2,$s5,0x4
  408f50:	31090004 	andi	$t1,$t0,0x4
  408f54:	1120000a 	beqz	$t1,408f80 <_Vsema+0x1c4>
  408f58:	00000000 	nop
  408f5c:	11400008 	beqz	$t2,408f80 <_Vsema+0x1c4>
  408f60:	02002025 	move	$a0,$s0
  408f64:	8fc60e00 	lw	$a2,3584($s8)
  408f68:	afb60010 	sw	$s6,16($sp)
  408f6c:	860b000c 	lh	$t3,12($s0)
  408f70:	24050005 	li	$a1,5
  408f74:	02603825 	move	$a3,$s3
  408f78:	0c10264f 	jal	40993c <_usdumpsema+0x174>
  408f7c:	afab0014 	sw	$t3,20($sp)
  408f80:	8f998b98 	lw	$t9,-29800($gp)
  408f84:	8e040024 	lw	$a0,36($s0)
  408f88:	0320f809 	jalr	$t9
  408f8c:	00000000 	nop
  408f90:	02402025 	move	$a0,$s2
  408f94:	02002825 	move	$a1,$s0
  408f98:	02603025 	move	$a2,$s3
  408f9c:	0c10298e 	jal	40a638 <_usunblock>
  408fa0:	27878078 	addiu	$a3,$gp,-32648
  408fa4:	04410003 	bgez	$v0,408fb4 <_Vsema+0x1f8>
  408fa8:	00000000 	nop
  408fac:	10000040 	b	4090b0 <_Vsema+0x2f4>
  408fb0:	2402ffff 	li	$v0,-1
  408fb4:	1057ff93 	beq	$v0,$s7,408e04 <_Vsema+0x48>
  408fb8:	00000000 	nop
  408fbc:	1000003c 	b	4090b0 <_Vsema+0x2f4>
  408fc0:	00001025 	move	$v0,$zero
  408fc4:	10a00035 	beqz	$a1,40909c <_Vsema+0x2e0>
  408fc8:	32b10002 	andi	$s1,$s5,0x2
  408fcc:	8e120000 	lw	$s2,0($s0)
  408fd0:	8f998b94 	lw	$t9,-29804($gp)
  408fd4:	8e440440 	lw	$a0,1088($s2)
  408fd8:	0320f809 	jalr	$t9
  408fdc:	32b40001 	andi	$s4,$s5,0x1
  408fe0:	1220000e 	beqz	$s1,40901c <_Vsema+0x260>
  408fe4:	00000000 	nop
  408fe8:	8e0d0020 	lw	$t5,32($s0)
  408fec:	240cffff 	li	$t4,-1
  408ff0:	adac0000 	sw	$t4,0($t5)
  408ff4:	8e0f0020 	lw	$t7,32($s0)
  408ff8:	240effff 	li	$t6,-1
  408ffc:	adee0004 	sw	$t6,4($t7)
  409000:	8e080020 	lw	$t0,32($s0)
  409004:	8fd80e00 	lw	$t8,3584($s8)
  409008:	00000000 	nop
  40900c:	ad180008 	sw	$t8,8($t0)
  409010:	8e090020 	lw	$t1,32($s0)
  409014:	00000000 	nop
  409018:	ad36000c 	sw	$s6,12($t1)
  40901c:	1280000d 	beqz	$s4,409054 <_Vsema+0x298>
  409020:	00000000 	nop
  409024:	8e02001c 	lw	$v0,28($s0)
  409028:	00000000 	nop
  40902c:	8c4a000c 	lw	$t2,12($v0)
  409030:	00000000 	nop
  409034:	254b0001 	addiu	$t3,$t2,1
  409038:	ac4b000c 	sw	$t3,12($v0)
  40903c:	8e02001c 	lw	$v0,28($s0)
  409040:	00000000 	nop
  409044:	8c590008 	lw	$t9,8($v0)
  409048:	00000000 	nop
  40904c:	272c0001 	addiu	$t4,$t9,1
  409050:	ac4c0008 	sw	$t4,8($v0)
  409054:	8f998b98 	lw	$t9,-29800($gp)
  409058:	8e440440 	lw	$a0,1088($s2)
  40905c:	0320f809 	jalr	$t9
  409060:	00000000 	nop
  409064:	8e4d0428 	lw	$t5,1064($s2)
  409068:	32af0004 	andi	$t7,$s5,0x4
  40906c:	31ae0004 	andi	$t6,$t5,0x4
  409070:	11c0000a 	beqz	$t6,40909c <_Vsema+0x2e0>
  409074:	00000000 	nop
  409078:	11e00008 	beqz	$t7,40909c <_Vsema+0x2e0>
  40907c:	02002025 	move	$a0,$s0
  409080:	8fc60e00 	lw	$a2,3584($s8)
  409084:	afb60010 	sw	$s6,16($sp)
  409088:	8618000c 	lh	$t8,12($s0)
  40908c:	24050004 	li	$a1,4
  409090:	00003825 	move	$a3,$zero
  409094:	0c10264f 	jal	40993c <_usdumpsema+0x174>
  409098:	afb80014 	sw	$t8,20($sp)
  40909c:	8f998b98 	lw	$t9,-29800($gp)
  4090a0:	8e040024 	lw	$a0,36($s0)
  4090a4:	0320f809 	jalr	$t9
  4090a8:	00000000 	nop
  4090ac:	00001025 	move	$v0,$zero
  4090b0:	8fbf0044 	lw	$ra,68($sp)
  4090b4:	8fb00020 	lw	$s0,32($sp)
  4090b8:	8fb10024 	lw	$s1,36($sp)
  4090bc:	8fb20028 	lw	$s2,40($sp)
  4090c0:	8fb3002c 	lw	$s3,44($sp)
  4090c4:	8fb40030 	lw	$s4,48($sp)
  4090c8:	8fb50034 	lw	$s5,52($sp)
  4090cc:	8fb60038 	lw	$s6,56($sp)
  4090d0:	8fb7003c 	lw	$s7,60($sp)
  4090d4:	8fbe0040 	lw	$s8,64($sp)
  4090d8:	03e00008 	jr	$ra
  4090dc:	27bd0068 	addiu	$sp,$sp,104

004090e0 <_ustestsema>:
  4090e0:	8482000c 	lh	$v0,12($a0)
  4090e4:	03e00008 	jr	$ra
  4090e8:	00000000 	nop

004090ec <_usinitsema>:
  4090ec:	27bdffe8 	addiu	$sp,$sp,-24
  4090f0:	afbf0014 	sw	$ra,20($sp)
  4090f4:	04a00004 	bltz	$a1,409108 <_usinitsema+0x1c>
  4090f8:	00803025 	move	$a2,$a0
  4090fc:	28a17531 	slti	$at,$a1,30001
  409100:	14200005 	bnez	$at,409118 <_usinitsema+0x2c>
  409104:	2407ffff 	li	$a3,-1
  409108:	0c101ebd 	jal	407af4 <_setoserror>
  40910c:	24040016 	li	$a0,22
  409110:	1000003a 	b	4091fc <_usinitsema+0x110>
  409114:	2402ffff 	li	$v0,-1
  409118:	948f0014 	lhu	$t7,20($a0)
  40911c:	a485000c 	sh	$a1,12($a0)
  409120:	a480000e 	sh	$zero,14($a0)
  409124:	a4800012 	sh	$zero,18($a0)
  409128:	a4800010 	sh	$zero,16($a0)
  40912c:	ac870004 	sw	$a3,4($a0)
  409130:	00001025 	move	$v0,$zero
  409134:	05e00007 	bltz	$t7,409154 <_usinitsema+0x68>
  409138:	24830028 	addiu	$v1,$a0,40
  40913c:	ac600000 	sw	$zero,0($v1)
  409140:	94d80014 	lhu	$t8,20($a2)
  409144:	24420001 	addiu	$v0,$v0,1
  409148:	0302082a 	slt	$at,$t8,$v0
  40914c:	1020fffb 	beqz	$at,40913c <_usinitsema+0x50>
  409150:	24630004 	addiu	$v1,$v1,4
  409154:	94830016 	lhu	$v1,22($a0)
  409158:	00000000 	nop
  40915c:	10600026 	beqz	$v1,4091f8 <_usinitsema+0x10c>
  409160:	30790001 	andi	$t9,$v1,0x1
  409164:	13200015 	beqz	$t9,4091bc <_usinitsema+0xd0>
  409168:	00601025 	move	$v0,$v1
  40916c:	8c88001c 	lw	$t0,28($a0)
  409170:	00000000 	nop
  409174:	ad000004 	sw	$zero,4($t0)
  409178:	8c89001c 	lw	$t1,28($a0)
  40917c:	00000000 	nop
  409180:	ad200000 	sw	$zero,0($t1)
  409184:	8c8a001c 	lw	$t2,28($a0)
  409188:	00000000 	nop
  40918c:	ad400008 	sw	$zero,8($t2)
  409190:	8c8b001c 	lw	$t3,28($a0)
  409194:	00000000 	nop
  409198:	ad60000c 	sw	$zero,12($t3)
  40919c:	8c8c001c 	lw	$t4,28($a0)
  4091a0:	00000000 	nop
  4091a4:	ad800010 	sw	$zero,16($t4)
  4091a8:	8c8d001c 	lw	$t5,28($a0)
  4091ac:	00000000 	nop
  4091b0:	ada00014 	sw	$zero,20($t5)
  4091b4:	94820016 	lhu	$v0,22($a0)
  4091b8:	00000000 	nop
  4091bc:	304e0002 	andi	$t6,$v0,0x2
  4091c0:	11c0000e 	beqz	$t6,4091fc <_usinitsema+0x110>
  4091c4:	00001025 	move	$v0,$zero
  4091c8:	8c8f0020 	lw	$t7,32($a0)
  4091cc:	2402ffff 	li	$v0,-1
  4091d0:	ade70000 	sw	$a3,0($t7)
  4091d4:	8c980020 	lw	$t8,32($a0)
  4091d8:	00000000 	nop
  4091dc:	af020004 	sw	$v0,4($t8)
  4091e0:	8c990020 	lw	$t9,32($a0)
  4091e4:	00000000 	nop
  4091e8:	af270008 	sw	$a3,8($t9)
  4091ec:	8c880020 	lw	$t0,32($a0)
  4091f0:	00000000 	nop
  4091f4:	ad02000c 	sw	$v0,12($t0)
  4091f8:	00001025 	move	$v0,$zero
  4091fc:	8fbf0014 	lw	$ra,20($sp)
  409200:	27bd0018 	addiu	$sp,$sp,24
  409204:	03e00008 	jr	$ra
  409208:	00000000 	nop

0040920c <_usnewsema>:
  40920c:	27bdffe0 	addiu	$sp,$sp,-32
  409210:	afb10018 	sw	$s1,24($sp)
  409214:	00808825 	move	$s1,$a0
  409218:	afbf001c 	sw	$ra,28($sp)
  40921c:	afb00014 	sw	$s0,20($sp)
  409220:	afa50024 	sw	$a1,36($sp)
  409224:	8c840424 	lw	$a0,1060($a0)
  409228:	02202825 	move	$a1,$s1
  40922c:	00047080 	sll	$t6,$a0,0x2
  409230:	0c102fa8 	jal	40bea0 <_usmalloc>
  409234:	25c40028 	addiu	$a0,$t6,40
  409238:	14400005 	bnez	$v0,409250 <_usnewsema+0x44>
  40923c:	00408025 	move	$s0,$v0
  409240:	0c101ebd 	jal	407af4 <_setoserror>
  409244:	2404000c 	li	$a0,12
  409248:	10000025 	b	4092e0 <_usnewsema+0xd4>
  40924c:	00001025 	move	$v0,$zero
  409250:	8e2f0424 	lw	$t7,1060($s1)
  409254:	24090004 	li	$t1,4
  409258:	25f8ffff 	addiu	$t8,$t7,-1
  40925c:	a4580014 	sh	$t8,20($v0)
  409260:	8e390428 	lw	$t9,1064($s1)
  409264:	00000000 	nop
  409268:	33280004 	andi	$t0,$t9,0x4
  40926c:	11000003 	beqz	$t0,40927c <_usnewsema+0x70>
  409270:	00000000 	nop
  409274:	10000002 	b	409280 <_usnewsema+0x74>
  409278:	a4490016 	sh	$t1,22($v0)
  40927c:	a4400016 	sh	$zero,22($v0)
  409280:	ae00001c 	sw	$zero,28($s0)
  409284:	ae000020 	sw	$zero,32($s0)
  409288:	ae000008 	sw	$zero,8($s0)
  40928c:	ae110000 	sw	$s1,0($s0)
  409290:	8f998b9c 	lw	$t9,-29796($gp)
  409294:	02202025 	move	$a0,$s1
  409298:	0320f809 	jalr	$t9
  40929c:	00000000 	nop
  4092a0:	14400006 	bnez	$v0,4092bc <_usnewsema+0xb0>
  4092a4:	ae020024 	sw	$v0,36($s0)
  4092a8:	02002025 	move	$a0,$s0
  4092ac:	0c1024c1 	jal	409304 <_usfreesema>
  4092b0:	02202825 	move	$a1,$s1
  4092b4:	1000000a 	b	4092e0 <_usnewsema+0xd4>
  4092b8:	00001025 	move	$v0,$zero
  4092bc:	8fa50024 	lw	$a1,36($sp)
  4092c0:	0c10243b 	jal	4090ec <_usinitsema>
  4092c4:	02002025 	move	$a0,$s0
  4092c8:	04410004 	bgez	$v0,4092dc <_usnewsema+0xd0>
  4092cc:	02002025 	move	$a0,$s0
  4092d0:	0c1024c1 	jal	409304 <_usfreesema>
  4092d4:	02202825 	move	$a1,$s1
  4092d8:	00008025 	move	$s0,$zero
  4092dc:	02001025 	move	$v0,$s0
  4092e0:	8fbf001c 	lw	$ra,28($sp)
  4092e4:	8fb00014 	lw	$s0,20($sp)
  4092e8:	8fb10018 	lw	$s1,24($sp)
  4092ec:	03e00008 	jr	$ra
  4092f0:	27bd0020 	addiu	$sp,$sp,32

004092f4 <_ussemaspace>:
  4092f4:	00041880 	sll	$v1,$a0,0x2
  4092f8:	00631021 	addu	$v0,$v1,$v1
  4092fc:	03e00008 	jr	$ra
  409300:	2442007c 	addiu	$v0,$v0,124

00409304 <_usfreesema>:
  409304:	27bdffd8 	addiu	$sp,$sp,-40
  409308:	8f8e8a30 	lw	$t6,-30160($gp)
  40930c:	afbf0024 	sw	$ra,36($sp)
  409310:	afb10020 	sw	$s1,32($sp)
  409314:	afb0001c 	sw	$s0,28($sp)
  409318:	8c910000 	lw	$s1,0($a0)
  40931c:	11c0000b 	beqz	$t6,40934c <_usfreesema+0x48>
  409320:	00808025 	move	$s0,$a0
  409324:	12250009 	beq	$s1,$a1,40934c <_usfreesema+0x48>
  409328:	00002025 	move	$a0,$zero
  40932c:	3c0f0020 	lui	$t7,0x20
  409330:	8df80e00 	lw	$t8,3584($t7)
  409334:	3c050042 	lui	$a1,0x42
  409338:	24a5a120 	addiu	$a1,$a1,-24288
  40933c:	02003025 	move	$a2,$s0
  409340:	02203825 	move	$a3,$s1
  409344:	0c103f10 	jal	40fc40 <_uprint>
  409348:	afb80010 	sw	$t8,16($sp)
  40934c:	96030016 	lhu	$v1,22($s0)
  409350:	00000000 	nop
  409354:	1060000e 	beqz	$v1,409390 <_usfreesema+0x8c>
  409358:	30790001 	andi	$t9,$v1,0x1
  40935c:	13200006 	beqz	$t9,409378 <_usfreesema+0x74>
  409360:	00601025 	move	$v0,$v1
  409364:	8e04001c 	lw	$a0,28($s0)
  409368:	0c102fb1 	jal	40bec4 <_usfree>
  40936c:	02202825 	move	$a1,$s1
  409370:	96020016 	lhu	$v0,22($s0)
  409374:	00000000 	nop
  409378:	30480002 	andi	$t0,$v0,0x2
  40937c:	11000004 	beqz	$t0,409390 <_usfreesema+0x8c>
  409380:	00000000 	nop
  409384:	8e040020 	lw	$a0,32($s0)
  409388:	0c102fb1 	jal	40bec4 <_usfree>
  40938c:	02202825 	move	$a1,$s1
  409390:	8e040024 	lw	$a0,36($s0)
  409394:	8f998ba4 	lw	$t9,-29788($gp)
  409398:	10800003 	beqz	$a0,4093a8 <_usfreesema+0xa4>
  40939c:	00000000 	nop
  4093a0:	0320f809 	jalr	$t9
  4093a4:	02202825 	move	$a1,$s1
  4093a8:	a6000012 	sh	$zero,18($s0)
  4093ac:	a6000010 	sh	$zero,16($s0)
  4093b0:	ae000000 	sw	$zero,0($s0)
  4093b4:	02002025 	move	$a0,$s0
  4093b8:	0c102fb1 	jal	40bec4 <_usfree>
  4093bc:	02202825 	move	$a1,$s1
  4093c0:	8fbf0024 	lw	$ra,36($sp)
  4093c4:	8fb0001c 	lw	$s0,28($sp)
  4093c8:	8fb10020 	lw	$s1,32($sp)
  4093cc:	03e00008 	jr	$ra
  4093d0:	27bd0028 	addiu	$sp,$sp,40

004093d4 <_usctlsema>:
  4093d4:	27bdffe0 	addiu	$sp,$sp,-32
  4093d8:	24affff7 	addiu	$t7,$a1,-9
  4093dc:	afa60028 	sw	$a2,40($sp)
  4093e0:	afa7002c 	sw	$a3,44($sp)
  4093e4:	2de1000c 	sltiu	$at,$t7,12
  4093e8:	00803025 	move	$a2,$a0
  4093ec:	afbf0014 	sw	$ra,20($sp)
  4093f0:	afa40020 	sw	$a0,32($sp)
  4093f4:	afa50024 	sw	$a1,36($sp)
  4093f8:	102000eb 	beqz	$at,4097a8 <_usctlsema+0x3d4>
  4093fc:	00003825 	move	$a3,$zero
  409400:	000f7880 	sll	$t7,$t7,0x2
  409404:	3c010042 	lui	$at,0x42
  409408:	002f0821 	addu	$at,$at,$t7
  40940c:	8c2fa584 	lw	$t7,-23164($at)
  409410:	00000000 	nop
  409414:	01e00008 	jr	$t7
  409418:	00000000 	nop
  40941c:	94d80016 	lhu	$t8,22($a2)
  409420:	24040018 	li	$a0,24
  409424:	33190001 	andi	$t9,$t8,0x1
  409428:	172000e3 	bnez	$t9,4097b8 <_usctlsema+0x3e4>
  40942c:	00e01025 	move	$v0,$a3
  409430:	8cc50000 	lw	$a1,0($a2)
  409434:	afa70018 	sw	$a3,24($sp)
  409438:	0c102fa8 	jal	40bea0 <_usmalloc>
  40943c:	afa60020 	sw	$a2,32($sp)
  409440:	8fa60020 	lw	$a2,32($sp)
  409444:	8fa70018 	lw	$a3,24($sp)
  409448:	14400005 	bnez	$v0,409460 <_usctlsema+0x8c>
  40944c:	acc2001c 	sw	$v0,28($a2)
  409450:	0c101ebd 	jal	407af4 <_setoserror>
  409454:	2404000c 	li	$a0,12
  409458:	100000d7 	b	4097b8 <_usctlsema+0x3e4>
  40945c:	2402ffff 	li	$v0,-1
  409460:	94c80016 	lhu	$t0,22($a2)
  409464:	8cca001c 	lw	$t2,28($a2)
  409468:	35090001 	ori	$t1,$t0,0x1
  40946c:	a4c90016 	sh	$t1,22($a2)
  409470:	ad400000 	sw	$zero,0($t2)
  409474:	8ccb001c 	lw	$t3,28($a2)
  409478:	00000000 	nop
  40947c:	ad600004 	sw	$zero,4($t3)
  409480:	8ccc001c 	lw	$t4,28($a2)
  409484:	00000000 	nop
  409488:	ad800008 	sw	$zero,8($t4)
  40948c:	8ccd001c 	lw	$t5,28($a2)
  409490:	00000000 	nop
  409494:	ada0000c 	sw	$zero,12($t5)
  409498:	8cce001c 	lw	$t6,28($a2)
  40949c:	00000000 	nop
  4094a0:	adc00010 	sw	$zero,16($t6)
  4094a4:	8ccf001c 	lw	$t7,28($a2)
  4094a8:	100000c2 	b	4097b4 <_usctlsema+0x3e0>
  4094ac:	ade00014 	sw	$zero,20($t7)
  4094b0:	94c20016 	lhu	$v0,22($a2)
  4094b4:	00000000 	nop
  4094b8:	30580001 	andi	$t8,$v0,0x1
  4094bc:	130000bd 	beqz	$t8,4097b4 <_usctlsema+0x3e0>
  4094c0:	3059fffe 	andi	$t9,$v0,0xfffe
  4094c4:	a4d90016 	sh	$t9,22($a2)
  4094c8:	8cc4001c 	lw	$a0,28($a2)
  4094cc:	8cc50000 	lw	$a1,0($a2)
  4094d0:	0c102fb1 	jal	40bec4 <_usfree>
  4094d4:	afa70018 	sw	$a3,24($sp)
  4094d8:	8fa70018 	lw	$a3,24($sp)
  4094dc:	100000b6 	b	4097b8 <_usctlsema+0x3e4>
  4094e0:	00e01025 	move	$v0,$a3
  4094e4:	94c80016 	lhu	$t0,22($a2)
  4094e8:	27a3002b 	addiu	$v1,$sp,43
  4094ec:	31090001 	andi	$t1,$t0,0x1
  4094f0:	11200021 	beqz	$t1,409578 <_usctlsema+0x1a4>
  4094f4:	2401fffc 	li	$at,-4
  4094f8:	8ccb001c 	lw	$t3,28($a2)
  4094fc:	00615024 	and	$t2,$v1,$at
  409500:	25430004 	addiu	$v1,$t2,4
  409504:	8c62fffc 	lw	$v0,-4($v1)
  409508:	8d6c0004 	lw	$t4,4($t3)
  40950c:	00000000 	nop
  409510:	ac4c0004 	sw	$t4,4($v0)
  409514:	8ccd001c 	lw	$t5,28($a2)
  409518:	00000000 	nop
  40951c:	8dae0000 	lw	$t6,0($t5)
  409520:	00000000 	nop
  409524:	ac4e0000 	sw	$t6,0($v0)
  409528:	8ccf001c 	lw	$t7,28($a2)
  40952c:	00000000 	nop
  409530:	8df80008 	lw	$t8,8($t7)
  409534:	00000000 	nop
  409538:	ac580008 	sw	$t8,8($v0)
  40953c:	8cd9001c 	lw	$t9,28($a2)
  409540:	00000000 	nop
  409544:	8f28000c 	lw	$t0,12($t9)
  409548:	00000000 	nop
  40954c:	ac48000c 	sw	$t0,12($v0)
  409550:	8cc9001c 	lw	$t1,28($a2)
  409554:	00000000 	nop
  409558:	8d2a0010 	lw	$t2,16($t1)
  40955c:	00000000 	nop
  409560:	ac4a0010 	sw	$t2,16($v0)
  409564:	8ccb001c 	lw	$t3,28($a2)
  409568:	00000000 	nop
  40956c:	8d6c0014 	lw	$t4,20($t3)
  409570:	10000090 	b	4097b4 <_usctlsema+0x3e0>
  409574:	ac4c0014 	sw	$t4,20($v0)
  409578:	0c101ebd 	jal	407af4 <_setoserror>
  40957c:	24040016 	li	$a0,22
  409580:	1000008c 	b	4097b4 <_usctlsema+0x3e0>
  409584:	2407ffff 	li	$a3,-1
  409588:	94cd0016 	lhu	$t5,22($a2)
  40958c:	00000000 	nop
  409590:	31ae0001 	andi	$t6,$t5,0x1
  409594:	11c00088 	beqz	$t6,4097b8 <_usctlsema+0x3e4>
  409598:	00e01025 	move	$v0,$a3
  40959c:	8ccf001c 	lw	$t7,28($a2)
  4095a0:	00000000 	nop
  4095a4:	ade00004 	sw	$zero,4($t7)
  4095a8:	8cd8001c 	lw	$t8,28($a2)
  4095ac:	00000000 	nop
  4095b0:	af000000 	sw	$zero,0($t8)
  4095b4:	8cd9001c 	lw	$t9,28($a2)
  4095b8:	00000000 	nop
  4095bc:	af200008 	sw	$zero,8($t9)
  4095c0:	8cc8001c 	lw	$t0,28($a2)
  4095c4:	00000000 	nop
  4095c8:	ad00000c 	sw	$zero,12($t0)
  4095cc:	8cc9001c 	lw	$t1,28($a2)
  4095d0:	00000000 	nop
  4095d4:	ad200010 	sw	$zero,16($t1)
  4095d8:	8cca001c 	lw	$t2,28($a2)
  4095dc:	10000075 	b	4097b4 <_usctlsema+0x3e0>
  4095e0:	ad400014 	sw	$zero,20($t2)
  4095e4:	94cb0016 	lhu	$t3,22($a2)
  4095e8:	24040010 	li	$a0,16
  4095ec:	316c0002 	andi	$t4,$t3,0x2
  4095f0:	15800071 	bnez	$t4,4097b8 <_usctlsema+0x3e4>
  4095f4:	00e01025 	move	$v0,$a3
  4095f8:	8cc50000 	lw	$a1,0($a2)
  4095fc:	afa70018 	sw	$a3,24($sp)
  409600:	0c102fa8 	jal	40bea0 <_usmalloc>
  409604:	afa60020 	sw	$a2,32($sp)
  409608:	8fa60020 	lw	$a2,32($sp)
  40960c:	8fa70018 	lw	$a3,24($sp)
  409610:	14400005 	bnez	$v0,409628 <_usctlsema+0x254>
  409614:	acc20020 	sw	$v0,32($a2)
  409618:	0c101ebd 	jal	407af4 <_setoserror>
  40961c:	2404000c 	li	$a0,12
  409620:	10000065 	b	4097b8 <_usctlsema+0x3e4>
  409624:	2402ffff 	li	$v0,-1
  409628:	94cd0016 	lhu	$t5,22($a2)
  40962c:	8ccf0020 	lw	$t7,32($a2)
  409630:	35ae0002 	ori	$t6,$t5,0x2
  409634:	2402ffff 	li	$v0,-1
  409638:	a4ce0016 	sh	$t6,22($a2)
  40963c:	ade20000 	sw	$v0,0($t7)
  409640:	8cd80020 	lw	$t8,32($a2)
  409644:	2403ffff 	li	$v1,-1
  409648:	af030004 	sw	$v1,4($t8)
  40964c:	8cd90020 	lw	$t9,32($a2)
  409650:	00000000 	nop
  409654:	af220008 	sw	$v0,8($t9)
  409658:	8cc80020 	lw	$t0,32($a2)
  40965c:	10000055 	b	4097b4 <_usctlsema+0x3e0>
  409660:	ad03000c 	sw	$v1,12($t0)
  409664:	94c20016 	lhu	$v0,22($a2)
  409668:	00000000 	nop
  40966c:	30490002 	andi	$t1,$v0,0x2
  409670:	11200050 	beqz	$t1,4097b4 <_usctlsema+0x3e0>
  409674:	304afffd 	andi	$t2,$v0,0xfffd
  409678:	a4ca0016 	sh	$t2,22($a2)
  40967c:	8cc40020 	lw	$a0,32($a2)
  409680:	8cc50000 	lw	$a1,0($a2)
  409684:	0c102fb1 	jal	40bec4 <_usfree>
  409688:	afa70018 	sw	$a3,24($sp)
  40968c:	8fa70018 	lw	$a3,24($sp)
  409690:	10000049 	b	4097b8 <_usctlsema+0x3e4>
  409694:	00e01025 	move	$v0,$a3
  409698:	94cb0016 	lhu	$t3,22($a2)
  40969c:	27a3002b 	addiu	$v1,$sp,43
  4096a0:	316c0002 	andi	$t4,$t3,0x2
  4096a4:	11800017 	beqz	$t4,409704 <_usctlsema+0x330>
  4096a8:	2401fffc 	li	$at,-4
  4096ac:	8cce0020 	lw	$t6,32($a2)
  4096b0:	00616824 	and	$t5,$v1,$at
  4096b4:	25a30004 	addiu	$v1,$t5,4
  4096b8:	8c62fffc 	lw	$v0,-4($v1)
  4096bc:	8dcf0000 	lw	$t7,0($t6)
  4096c0:	00000000 	nop
  4096c4:	ac4f0000 	sw	$t7,0($v0)
  4096c8:	8cd80020 	lw	$t8,32($a2)
  4096cc:	00000000 	nop
  4096d0:	8f190004 	lw	$t9,4($t8)
  4096d4:	00000000 	nop
  4096d8:	ac590004 	sw	$t9,4($v0)
  4096dc:	8cc80020 	lw	$t0,32($a2)
  4096e0:	00000000 	nop
  4096e4:	8d090008 	lw	$t1,8($t0)
  4096e8:	00000000 	nop
  4096ec:	ac490008 	sw	$t1,8($v0)
  4096f0:	8cca0020 	lw	$t2,32($a2)
  4096f4:	00000000 	nop
  4096f8:	8d4b000c 	lw	$t3,12($t2)
  4096fc:	1000002d 	b	4097b4 <_usctlsema+0x3e0>
  409700:	ac4b000c 	sw	$t3,12($v0)
  409704:	0c101ebd 	jal	407af4 <_setoserror>
  409708:	24040016 	li	$a0,22
  40970c:	10000029 	b	4097b4 <_usctlsema+0x3e0>
  409710:	2407ffff 	li	$a3,-1
  409714:	94cc0016 	lhu	$t4,22($a2)
  409718:	00000000 	nop
  40971c:	318d0002 	andi	$t5,$t4,0x2
  409720:	11a00025 	beqz	$t5,4097b8 <_usctlsema+0x3e4>
  409724:	00e01025 	move	$v0,$a3
  409728:	8cce0020 	lw	$t6,32($a2)
  40972c:	2402ffff 	li	$v0,-1
  409730:	adc20000 	sw	$v0,0($t6)
  409734:	8ccf0020 	lw	$t7,32($a2)
  409738:	2403ffff 	li	$v1,-1
  40973c:	ade30004 	sw	$v1,4($t7)
  409740:	8cd80020 	lw	$t8,32($a2)
  409744:	00000000 	nop
  409748:	af020008 	sw	$v0,8($t8)
  40974c:	8cd90020 	lw	$t9,32($a2)
  409750:	10000018 	b	4097b4 <_usctlsema+0x3e0>
  409754:	af23000c 	sw	$v1,12($t9)
  409758:	94c80016 	lhu	$t0,22($a2)
  40975c:	00000000 	nop
  409760:	35090004 	ori	$t1,$t0,0x4
  409764:	10000013 	b	4097b4 <_usctlsema+0x3e0>
  409768:	a4c90016 	sh	$t1,22($a2)
  40976c:	94ca0016 	lhu	$t2,22($a2)
  409770:	00000000 	nop
  409774:	314bfffb 	andi	$t3,$t2,0xfffb
  409778:	1000000e 	b	4097b4 <_usctlsema+0x3e0>
  40977c:	a4cb0016 	sh	$t3,22($a2)
  409780:	94cc0016 	lhu	$t4,22($a2)
  409784:	00000000 	nop
  409788:	358d0010 	ori	$t5,$t4,0x10
  40978c:	10000009 	b	4097b4 <_usctlsema+0x3e0>
  409790:	a4cd0016 	sh	$t5,22($a2)
  409794:	94ce0016 	lhu	$t6,22($a2)
  409798:	00000000 	nop
  40979c:	31cfffef 	andi	$t7,$t6,0xffef
  4097a0:	10000004 	b	4097b4 <_usctlsema+0x3e0>
  4097a4:	a4cf0016 	sh	$t7,22($a2)
  4097a8:	0c101ebd 	jal	407af4 <_setoserror>
  4097ac:	24040016 	li	$a0,22
  4097b0:	2407ffff 	li	$a3,-1
  4097b4:	00e01025 	move	$v0,$a3
  4097b8:	8fbf0014 	lw	$ra,20($sp)
  4097bc:	27bd0020 	addiu	$sp,$sp,32
  4097c0:	03e00008 	jr	$ra
  4097c4:	00000000 	nop

004097c8 <_usdumpsema>:
  4097c8:	27bdffc8 	addiu	$sp,$sp,-56
  4097cc:	afbf0024 	sw	$ra,36($sp)
  4097d0:	afb10020 	sw	$s1,32($sp)
  4097d4:	afb0001c 	sw	$s0,28($sp)
  4097d8:	afa60040 	sw	$a2,64($sp)
  4097dc:	8c8e0000 	lw	$t6,0($a0)
  4097e0:	00808025 	move	$s0,$a0
  4097e4:	00a08825 	move	$s1,$a1
  4097e8:	0c102438 	jal	4090e0 <_ustestsema>
  4097ec:	afae0030 	sw	$t6,48($sp)
  4097f0:	8faf0030 	lw	$t7,48($sp)
  4097f4:	8f998b94 	lw	$t9,-29804($gp)
  4097f8:	afa2002c 	sw	$v0,44($sp)
  4097fc:	8de40444 	lw	$a0,1092($t7)
  409800:	0320f809 	jalr	$t9
  409804:	00000000 	nop
  409808:	8fb8002c 	lw	$t8,44($sp)
  40980c:	3c050042 	lui	$a1,0x42
  409810:	8fa60040 	lw	$a2,64($sp)
  409814:	24a5a154 	addiu	$a1,$a1,-24236
  409818:	02202025 	move	$a0,$s1
  40981c:	02003825 	move	$a3,$s0
  409820:	0c102ffc 	jal	40bff0 <fprintf>
  409824:	afb80010 	sw	$t8,16($sp)
  409828:	96080016 	lhu	$t0,22($s0)
  40982c:	3c050042 	lui	$a1,0x42
  409830:	31090008 	andi	$t1,$t0,0x8
  409834:	11200007 	beqz	$t1,409854 <_usdumpsema+0x8c>
  409838:	02202025 	move	$a0,$s1
  40983c:	8e060018 	lw	$a2,24($s0)
  409840:	02202025 	move	$a0,$s1
  409844:	0c102ffc 	jal	40bff0 <fprintf>
  409848:	24a5a174 	addiu	$a1,$a1,-24204
  40984c:	10000004 	b	409860 <_usdumpsema+0x98>
  409850:	96030016 	lhu	$v1,22($s0)
  409854:	0c102ffc 	jal	40bff0 <fprintf>
  409858:	27858080 	addiu	$a1,$gp,-32640
  40985c:	96030016 	lhu	$v1,22($s0)
  409860:	00000000 	nop
  409864:	306a0001 	andi	$t2,$v1,0x1
  409868:	1140001a 	beqz	$t2,4098d4 <_usdumpsema+0x10c>
  40986c:	306e0002 	andi	$t6,$v1,0x2
  409870:	0c102438 	jal	4090e0 <_ustestsema>
  409874:	02002025 	move	$a0,$s0
  409878:	8e03001c 	lw	$v1,28($s0)
  40987c:	3c050042 	lui	$a1,0x42
  409880:	8c6b0014 	lw	$t3,20($v1)
  409884:	8c670010 	lw	$a3,16($v1)
  409888:	24a5a188 	addiu	$a1,$a1,-24184
  40988c:	02202025 	move	$a0,$s1
  409890:	00403025 	move	$a2,$v0
  409894:	0c102ffc 	jal	40bff0 <fprintf>
  409898:	afab0010 	sw	$t3,16($sp)
  40989c:	8e03001c 	lw	$v1,28($s0)
  4098a0:	3c050042 	lui	$a1,0x42
  4098a4:	8c6c0008 	lw	$t4,8($v1)
  4098a8:	8c660004 	lw	$a2,4($v1)
  4098ac:	8c670000 	lw	$a3,0($v1)
  4098b0:	afac0010 	sw	$t4,16($sp)
  4098b4:	8c6d000c 	lw	$t5,12($v1)
  4098b8:	24a5a1bc 	addiu	$a1,$a1,-24132
  4098bc:	02202025 	move	$a0,$s1
  4098c0:	0c102ffc 	jal	40bff0 <fprintf>
  4098c4:	afad0014 	sw	$t5,20($sp)
  4098c8:	96030016 	lhu	$v1,22($s0)
  4098cc:	00000000 	nop
  4098d0:	306e0002 	andi	$t6,$v1,0x2
  4098d4:	11c0000e 	beqz	$t6,409910 <_usdumpsema+0x148>
  4098d8:	02202025 	move	$a0,$s1
  4098dc:	8e030020 	lw	$v1,32($s0)
  4098e0:	3c050042 	lui	$a1,0x42
  4098e4:	8c660000 	lw	$a2,0($v1)
  4098e8:	8c670004 	lw	$a3,4($v1)
  4098ec:	0c102ffc 	jal	40bff0 <fprintf>
  4098f0:	24a5a1f8 	addiu	$a1,$a1,-24072
  4098f4:	8e030020 	lw	$v1,32($s0)
  4098f8:	3c050042 	lui	$a1,0x42
  4098fc:	8c660008 	lw	$a2,8($v1)
  409900:	8c67000c 	lw	$a3,12($v1)
  409904:	24a5a22c 	addiu	$a1,$a1,-24020
  409908:	0c102ffc 	jal	40bff0 <fprintf>
  40990c:	02202025 	move	$a0,$s1
  409910:	8faf0030 	lw	$t7,48($sp)
  409914:	8f998b98 	lw	$t9,-29800($gp)
  409918:	8de40444 	lw	$a0,1092($t7)
  40991c:	0320f809 	jalr	$t9
  409920:	00000000 	nop
  409924:	8fbf0024 	lw	$ra,36($sp)
  409928:	8fb0001c 	lw	$s0,28($sp)
  40992c:	8fb10020 	lw	$s1,32($sp)
  409930:	27bd0038 	addiu	$sp,$sp,56
  409934:	03e00008 	jr	$ra
  409938:	00001025 	move	$v0,$zero
  40993c:	27bdffd8 	addiu	$sp,$sp,-40
  409940:	afbf001c 	sw	$ra,28($sp)
  409944:	afb00018 	sw	$s0,24($sp)
  409948:	afa40028 	sw	$a0,40($sp)
  40994c:	afa5002c 	sw	$a1,44($sp)
  409950:	afa60030 	sw	$a2,48($sp)
  409954:	afa70034 	sw	$a3,52($sp)
  409958:	8c900000 	lw	$s0,0($a0)
  40995c:	24040020 	li	$a0,32
  409960:	8e02043c 	lw	$v0,1084($s0)
  409964:	00000000 	nop
  409968:	10400006 	beqz	$v0,409984 <_usdumpsema+0x1bc>
  40996c:	00000000 	nop
  409970:	8e0f0434 	lw	$t7,1076($s0)
  409974:	00000000 	nop
  409978:	004f082b 	sltu	$at,$v0,$t7
  40997c:	14200005 	bnez	$at,409994 <_usdumpsema+0x1cc>
  409980:	00000000 	nop
  409984:	0c102fa8 	jal	40bea0 <_usmalloc>
  409988:	02002825 	move	$a1,$s0
  40998c:	1440001c 	bnez	$v0,409a00 <_usdumpsema+0x238>
  409990:	00401825 	move	$v1,$v0
  409994:	8f998b94 	lw	$t9,-29804($gp)
  409998:	8e040440 	lw	$a0,1088($s0)
  40999c:	0320f809 	jalr	$t9
  4099a0:	00000000 	nop
  4099a4:	8e180438 	lw	$t8,1080($s0)
  4099a8:	8e090434 	lw	$t1,1076($s0)
  4099ac:	27080001 	addiu	$t0,$t8,1
  4099b0:	15200007 	bnez	$t1,4099d0 <_usdumpsema+0x208>
  4099b4:	ae080438 	sw	$t0,1080($s0)
  4099b8:	8f998b98 	lw	$t9,-29800($gp)
  4099bc:	8e040440 	lw	$a0,1088($s0)
  4099c0:	0320f809 	jalr	$t9
  4099c4:	00000000 	nop
  4099c8:	1000003b 	b	409ab8 <_usdumpsema+0x2f0>
  4099cc:	8fbf001c 	lw	$ra,28($sp)
  4099d0:	8e03042c 	lw	$v1,1068($s0)
  4099d4:	00000000 	nop
  4099d8:	8c620018 	lw	$v0,24($v1)
  4099dc:	00000000 	nop
  4099e0:	10400003 	beqz	$v0,4099f0 <_usdumpsema+0x228>
  4099e4:	00000000 	nop
  4099e8:	10000002 	b	4099f4 <_usdumpsema+0x22c>
  4099ec:	ac40001c 	sw	$zero,28($v0)
  4099f0:	ae000430 	sw	$zero,1072($s0)
  4099f4:	8c6a0018 	lw	$t2,24($v1)
  4099f8:	10000009 	b	409a20 <_usdumpsema+0x258>
  4099fc:	ae0a042c 	sw	$t2,1068($s0)
  409a00:	8f998b94 	lw	$t9,-29804($gp)
  409a04:	8e040440 	lw	$a0,1088($s0)
  409a08:	0320f809 	jalr	$t9
  409a0c:	afa30020 	sw	$v1,32($sp)
  409a10:	8e0b0434 	lw	$t3,1076($s0)
  409a14:	8fa30020 	lw	$v1,32($sp)
  409a18:	256c0001 	addiu	$t4,$t3,1
  409a1c:	ae0c0434 	sw	$t4,1076($s0)
  409a20:	8fad0028 	lw	$t5,40($sp)
  409a24:	00000000 	nop
  409a28:	ac6d0000 	sw	$t5,0($v1)
  409a2c:	8fae002c 	lw	$t6,44($sp)
  409a30:	00000000 	nop
  409a34:	ac6e0004 	sw	$t6,4($v1)
  409a38:	8faf0030 	lw	$t7,48($sp)
  409a3c:	00000000 	nop
  409a40:	ac6f0008 	sw	$t7,8($v1)
  409a44:	8fb8003c 	lw	$t8,60($sp)
  409a48:	00000000 	nop
  409a4c:	ac78000c 	sw	$t8,12($v1)
  409a50:	8fa80034 	lw	$t0,52($sp)
  409a54:	00000000 	nop
  409a58:	ac680010 	sw	$t0,16($v1)
  409a5c:	8fa90038 	lw	$t1,56($sp)
  409a60:	ac600018 	sw	$zero,24($v1)
  409a64:	ac690014 	sw	$t1,20($v1)
  409a68:	8e0a042c 	lw	$t2,1068($s0)
  409a6c:	00000000 	nop
  409a70:	15400005 	bnez	$t2,409a88 <_usdumpsema+0x2c0>
  409a74:	00000000 	nop
  409a78:	ae03042c 	sw	$v1,1068($s0)
  409a7c:	ae030430 	sw	$v1,1072($s0)
  409a80:	10000008 	b	409aa4 <_usdumpsema+0x2dc>
  409a84:	ac60001c 	sw	$zero,28($v1)
  409a88:	8e190430 	lw	$t9,1072($s0)
  409a8c:	00000000 	nop
  409a90:	af230018 	sw	$v1,24($t9)
  409a94:	8e0b0430 	lw	$t3,1072($s0)
  409a98:	00000000 	nop
  409a9c:	ac6b001c 	sw	$t3,28($v1)
  409aa0:	ae030430 	sw	$v1,1072($s0)
  409aa4:	8f998b98 	lw	$t9,-29800($gp)
  409aa8:	8e040440 	lw	$a0,1088($s0)
  409aac:	0320f809 	jalr	$t9
  409ab0:	00000000 	nop
  409ab4:	8fbf001c 	lw	$ra,28($sp)
  409ab8:	8fb00018 	lw	$s0,24($sp)
  409abc:	03e00008 	jr	$ra
  409ac0:	27bd0028 	addiu	$sp,$sp,40

00409ac4 <_usdumphist>:
  409ac4:	27bdffa0 	addiu	$sp,$sp,-96
  409ac8:	afbf003c 	sw	$ra,60($sp)
  409acc:	afb40038 	sw	$s4,56($sp)
  409ad0:	afb30034 	sw	$s3,52($sp)
  409ad4:	afb20030 	sw	$s2,48($sp)
  409ad8:	afb1002c 	sw	$s1,44($sp)
  409adc:	afb00028 	sw	$s0,40($sp)
  409ae0:	8c870000 	lw	$a3,0($a0)
  409ae4:	00808825 	move	$s1,$a0
  409ae8:	14a00003 	bnez	$a1,409af8 <_usdumphist+0x34>
  409aec:	00a09825 	move	$s3,$a1
  409af0:	3c130042 	lui	$s3,0x42
  409af4:	2673dc84 	addiu	$s3,$s3,-9084
  409af8:	24040007 	li	$a0,7
  409afc:	00e02825 	move	$a1,$a3
  409b00:	0c103fe0 	jal	40ff80 <_usconfig>
  409b04:	27a6004c 	addiu	$a2,$sp,76
  409b08:	14400053 	bnez	$v0,409c58 <_usdumphist+0x194>
  409b0c:	02602025 	move	$a0,$s3
  409b10:	8fae0054 	lw	$t6,84($sp)
  409b14:	8fa6004c 	lw	$a2,76($sp)
  409b18:	3c050042 	lui	$a1,0x42
  409b1c:	8fa70050 	lw	$a3,80($sp)
  409b20:	24a5a260 	addiu	$a1,$a1,-23968
  409b24:	0c102ffc 	jal	40bff0 <fprintf>
  409b28:	afae0010 	sw	$t6,16($sp)
  409b2c:	3c050042 	lui	$a1,0x42
  409b30:	24a5a28c 	addiu	$a1,$a1,-23924
  409b34:	0c102ffc 	jal	40bff0 <fprintf>
  409b38:	02602025 	move	$a0,$s3
  409b3c:	8fb0004c 	lw	$s0,76($sp)
  409b40:	00001825 	move	$v1,$zero
  409b44:	1200001f 	beqz	$s0,409bc4 <_usdumphist+0x100>
  409b48:	3c140042 	lui	$s4,0x42
  409b4c:	3c120042 	lui	$s2,0x42
  409b50:	2652d410 	addiu	$s2,$s2,-11248
  409b54:	2694a2a0 	addiu	$s4,$s4,-23904
  409b58:	12200005 	beqz	$s1,409b70 <_usdumphist+0xac>
  409b5c:	00000000 	nop
  409b60:	8e0f0000 	lw	$t7,0($s0)
  409b64:	00000000 	nop
  409b68:	162f0012 	bne	$s1,$t7,409bb4 <_usdumphist+0xf0>
  409b6c:	00000000 	nop
  409b70:	8e180004 	lw	$t8,4($s0)
  409b74:	8e090008 	lw	$t1,8($s0)
  409b78:	0018c880 	sll	$t9,$t8,0x2
  409b7c:	02594021 	addu	$t0,$s2,$t9
  409b80:	8d060000 	lw	$a2,0($t0)
  409b84:	8e070000 	lw	$a3,0($s0)
  409b88:	afa90010 	sw	$t1,16($sp)
  409b8c:	8e0a0010 	lw	$t2,16($s0)
  409b90:	02602025 	move	$a0,$s3
  409b94:	afaa0014 	sw	$t2,20($sp)
  409b98:	8e0b0014 	lw	$t3,20($s0)
  409b9c:	02802825 	move	$a1,$s4
  409ba0:	afab0018 	sw	$t3,24($sp)
  409ba4:	8e0c000c 	lw	$t4,12($s0)
  409ba8:	0c102ffc 	jal	40bff0 <fprintf>
  409bac:	afac001c 	sw	$t4,28($sp)
  409bb0:	02001825 	move	$v1,$s0
  409bb4:	8e10001c 	lw	$s0,28($s0)
  409bb8:	00000000 	nop
  409bbc:	1600ffe6 	bnez	$s0,409b58 <_usdumphist+0x94>
  409bc0:	00000000 	nop
  409bc4:	3c120042 	lui	$s2,0x42
  409bc8:	3c050042 	lui	$a1,0x42
  409bcc:	2652d410 	addiu	$s2,$s2,-11248
  409bd0:	24a5a2d0 	addiu	$a1,$a1,-23856
  409bd4:	02602025 	move	$a0,$s3
  409bd8:	0c102ffc 	jal	40bff0 <fprintf>
  409bdc:	afa30058 	sw	$v1,88($sp)
  409be0:	8fb00058 	lw	$s0,88($sp)
  409be4:	3c140042 	lui	$s4,0x42
  409be8:	1200001b 	beqz	$s0,409c58 <_usdumphist+0x194>
  409bec:	2694a2e4 	addiu	$s4,$s4,-23836
  409bf0:	12200005 	beqz	$s1,409c08 <_usdumphist+0x144>
  409bf4:	00000000 	nop
  409bf8:	8e0d0000 	lw	$t5,0($s0)
  409bfc:	00000000 	nop
  409c00:	162d0011 	bne	$s1,$t5,409c48 <_usdumphist+0x184>
  409c04:	00000000 	nop
  409c08:	8e0e0004 	lw	$t6,4($s0)
  409c0c:	8e190008 	lw	$t9,8($s0)
  409c10:	000e7880 	sll	$t7,$t6,0x2
  409c14:	024fc021 	addu	$t8,$s2,$t7
  409c18:	8f060000 	lw	$a2,0($t8)
  409c1c:	8e070000 	lw	$a3,0($s0)
  409c20:	afb90010 	sw	$t9,16($sp)
  409c24:	8e080010 	lw	$t0,16($s0)
  409c28:	02602025 	move	$a0,$s3
  409c2c:	afa80014 	sw	$t0,20($sp)
  409c30:	8e090014 	lw	$t1,20($s0)
  409c34:	02802825 	move	$a1,$s4
  409c38:	afa90018 	sw	$t1,24($sp)
  409c3c:	8e0a000c 	lw	$t2,12($s0)
  409c40:	0c102ffc 	jal	40bff0 <fprintf>
  409c44:	afaa001c 	sw	$t2,28($sp)
  409c48:	8e100018 	lw	$s0,24($s0)
  409c4c:	00000000 	nop
  409c50:	1600ffe7 	bnez	$s0,409bf0 <_usdumphist+0x12c>
  409c54:	00000000 	nop
  409c58:	8fbf003c 	lw	$ra,60($sp)
  409c5c:	8fb00028 	lw	$s0,40($sp)
  409c60:	8fb1002c 	lw	$s1,44($sp)
  409c64:	8fb20030 	lw	$s2,48($sp)
  409c68:	8fb30034 	lw	$s3,52($sp)
  409c6c:	8fb40038 	lw	$s4,56($sp)
  409c70:	03e00008 	jr	$ra
  409c74:	27bd0060 	addiu	$sp,$sp,96

00409c78 <_usnewpollsema>:
  409c78:	27bdffd0 	addiu	$sp,$sp,-48
  409c7c:	afbf001c 	sw	$ra,28($sp)
  409c80:	afb00018 	sw	$s0,24($sp)
  409c84:	00808025 	move	$s0,$a0
  409c88:	0c102483 	jal	40920c <_usnewsema>
  409c8c:	afa40024 	sw	$a0,36($sp)
  409c90:	8fa70024 	lw	$a3,36($sp)
  409c94:	14400003 	bnez	$v0,409ca4 <_usnewpollsema+0x2c>
  409c98:	00403025 	move	$a2,$v0
  409c9c:	10000026 	b	409d38 <_usnewpollsema+0xc0>
  409ca0:	00001025 	move	$v0,$zero
  409ca4:	94ce0016 	lhu	$t6,22($a2)
  409ca8:	acc00018 	sw	$zero,24($a2)
  409cac:	35cf0008 	ori	$t7,$t6,0x8
  409cb0:	a4cf0016 	sh	$t7,22($a2)
  409cb4:	8e040424 	lw	$a0,1060($s0)
  409cb8:	afa70024 	sw	$a3,36($sp)
  409cbc:	0004c040 	sll	$t8,$a0,0x1
  409cc0:	03002025 	move	$a0,$t8
  409cc4:	afa6002c 	sw	$a2,44($sp)
  409cc8:	0c102fa8 	jal	40bea0 <_usmalloc>
  409ccc:	02002825 	move	$a1,$s0
  409cd0:	8fa6002c 	lw	$a2,44($sp)
  409cd4:	8fa70024 	lw	$a3,36($sp)
  409cd8:	14400008 	bnez	$v0,409cfc <_usnewpollsema+0x84>
  409cdc:	acc20008 	sw	$v0,8($a2)
  409ce0:	00c02025 	move	$a0,$a2
  409ce4:	0c1024c1 	jal	409304 <_usfreesema>
  409ce8:	02002825 	move	$a1,$s0
  409cec:	0c101ebd 	jal	407af4 <_setoserror>
  409cf0:	2404000c 	li	$a0,12
  409cf4:	10000010 	b	409d38 <_usnewpollsema+0xc0>
  409cf8:	00001025 	move	$v0,$zero
  409cfc:	8e190424 	lw	$t9,1060($s0)
  409d00:	00001025 	move	$v0,$zero
  409d04:	1b20000b 	blez	$t9,409d34 <_usnewpollsema+0xbc>
  409d08:	00001825 	move	$v1,$zero
  409d0c:	2404ffff 	li	$a0,-1
  409d10:	8cc80008 	lw	$t0,8($a2)
  409d14:	24420001 	addiu	$v0,$v0,1
  409d18:	01034821 	addu	$t1,$t0,$v1
  409d1c:	a5240000 	sh	$a0,0($t1)
  409d20:	8cea0424 	lw	$t2,1060($a3)
  409d24:	24630002 	addiu	$v1,$v1,2
  409d28:	004a082a 	slt	$at,$v0,$t2
  409d2c:	1420fff8 	bnez	$at,409d10 <_usnewpollsema+0x98>
  409d30:	00000000 	nop
  409d34:	00c01025 	move	$v0,$a2
  409d38:	8fbf001c 	lw	$ra,28($sp)
  409d3c:	8fb00018 	lw	$s0,24($sp)
  409d40:	03e00008 	jr	$ra
  409d44:	27bd0030 	addiu	$sp,$sp,48

00409d48 <_usfreepollsema>:
  409d48:	27bdffe8 	addiu	$sp,$sp,-24
  409d4c:	afbf0014 	sw	$ra,20($sp)
  409d50:	afa40018 	sw	$a0,24($sp)
  409d54:	afa5001c 	sw	$a1,28($sp)
  409d58:	8c840008 	lw	$a0,8($a0)
  409d5c:	0c102fb1 	jal	40bec4 <_usfree>
  409d60:	00000000 	nop
  409d64:	8fa40018 	lw	$a0,24($sp)
  409d68:	8fa5001c 	lw	$a1,28($sp)
  409d6c:	0c1024c1 	jal	409304 <_usfreesema>
  409d70:	00000000 	nop
  409d74:	8fbf0014 	lw	$ra,20($sp)
  409d78:	27bd0018 	addiu	$sp,$sp,24
  409d7c:	03e00008 	jr	$ra
  409d80:	00001025 	move	$v0,$zero

00409d84 <_usopenpollsema>:
  409d84:	27bdff18 	addiu	$sp,$sp,-232
  409d88:	afbf0034 	sw	$ra,52($sp)
  409d8c:	afb40030 	sw	$s4,48($sp)
  409d90:	afb3002c 	sw	$s3,44($sp)
  409d94:	afb20028 	sw	$s2,40($sp)
  409d98:	afb10024 	sw	$s1,36($sp)
  409d9c:	afb00020 	sw	$s0,32($sp)
  409da0:	afa500ec 	sw	$a1,236($sp)
  409da4:	8c940000 	lw	$s4,0($a0)
  409da8:	00809825 	move	$s3,$a0
  409dac:	0c103d4d 	jal	40f534 <__usfastadd>
  409db0:	02802025 	move	$a0,$s4
  409db4:	2412ffff 	li	$s2,-1
  409db8:	14520003 	bne	$v0,$s2,409dc8 <_usopenpollsema+0x44>
  409dbc:	a7a200ce 	sh	$v0,206($sp)
  409dc0:	100000b9 	b	40a0a8 <_usopenpollsema+0x324>
  409dc4:	2402ffff 	li	$v0,-1
  409dc8:	0c10381e 	jal	40e078 <_usclean_tidmap>
  409dcc:	02802025 	move	$a0,$s4
  409dd0:	8e840a64 	lw	$a0,2660($s4)
  409dd4:	0c101ecc 	jal	407b30 <_uspsema>
  409dd8:	00000000 	nop
  409ddc:	04410003 	bgez	$v0,409dec <_usopenpollsema+0x68>
  409de0:	00000000 	nop
  409de4:	100000b0 	b	40a0a8 <_usopenpollsema+0x324>
  409de8:	2402ffff 	li	$v0,-1
  409dec:	8e620018 	lw	$v0,24($s3)
  409df0:	00000000 	nop
  409df4:	10400029 	beqz	$v0,409e9c <_usopenpollsema+0x118>
  409df8:	00000000 	nop
  409dfc:	8e8e0424 	lw	$t6,1060($s4)
  409e00:	00008025 	move	$s0,$zero
  409e04:	19c00025 	blez	$t6,409e9c <_usopenpollsema+0x118>
  409e08:	00102c00 	sll	$a1,$s0,0x10
  409e0c:	00057c03 	sra	$t7,$a1,0x10
  409e10:	01e02825 	move	$a1,$t7
  409e14:	0c1037a4 	jal	40de90 <_usget_pid>
  409e18:	02802025 	move	$a0,$s4
  409e1c:	10520018 	beq	$v0,$s2,409e80 <_usopenpollsema+0xfc>
  409e20:	00000000 	nop
  409e24:	8e780008 	lw	$t8,8($s3)
  409e28:	0010c840 	sll	$t9,$s0,0x1
  409e2c:	03194021 	addu	$t0,$t8,$t9
  409e30:	85110000 	lh	$s1,0($t0)
  409e34:	00000000 	nop
  409e38:	12320011 	beq	$s1,$s2,409e80 <_usopenpollsema+0xfc>
  409e3c:	02202025 	move	$a0,$s1
  409e40:	0c1032f8 	jal	40cbe0 <_fstat>
  409e44:	27a50044 	addiu	$a1,$sp,68
  409e48:	1440000d 	bnez	$v0,409e80 <_usopenpollsema+0xfc>
  409e4c:	00000000 	nop
  409e50:	8fa90058 	lw	$t1,88($sp)
  409e54:	24012000 	li	$at,8192
  409e58:	312af000 	andi	$t2,$t1,0xf000
  409e5c:	15410008 	bne	$t2,$at,409e80 <_usopenpollsema+0xfc>
  409e60:	00000000 	nop
  409e64:	8fab0068 	lw	$t3,104($sp)
  409e68:	8e6c0018 	lw	$t4,24($s3)
  409e6c:	00000000 	nop
  409e70:	156c0003 	bne	$t3,$t4,409e80 <_usopenpollsema+0xfc>
  409e74:	00000000 	nop
  409e78:	1000007b 	b	40a068 <_usopenpollsema+0x2e4>
  409e7c:	02208025 	move	$s0,$s1
  409e80:	8e8d0424 	lw	$t5,1060($s4)
  409e84:	26100001 	addiu	$s0,$s0,1
  409e88:	020d082a 	slt	$at,$s0,$t5
  409e8c:	1420ffdf 	bnez	$at,409e0c <_usopenpollsema+0x88>
  409e90:	00102c00 	sll	$a1,$s0,0x10
  409e94:	8e620018 	lw	$v0,24($s3)
  409e98:	00000000 	nop
  409e9c:	1440003b 	bnez	$v0,409f8c <_usopenpollsema+0x208>
  409ea0:	3c040042 	lui	$a0,0x42
  409ea4:	3c040042 	lui	$a0,0x42
  409ea8:	2484a314 	addiu	$a0,$a0,-23788
  409eac:	0c1032c0 	jal	40cb00 <_open>
  409eb0:	24050002 	li	$a1,2
  409eb4:	0441000e 	bgez	$v0,409ef0 <_usopenpollsema+0x16c>
  409eb8:	00408025 	move	$s0,$v0
  409ebc:	0c101eb8 	jal	407ae0 <_oserror>
  409ec0:	00000000 	nop
  409ec4:	8f8e8a30 	lw	$t6,-30160($gp)
  409ec8:	00409025 	move	$s2,$v0
  409ecc:	11c00070 	beqz	$t6,40a090 <_usopenpollsema+0x30c>
  409ed0:	24040001 	li	$a0,1
  409ed4:	3c0f0020 	lui	$t7,0x20
  409ed8:	8de60e00 	lw	$a2,3584($t7)
  409edc:	3c050042 	lui	$a1,0x42
  409ee0:	0c103f10 	jal	40fc40 <_uprint>
  409ee4:	24a5a324 	addiu	$a1,$a1,-23772
  409ee8:	1000006a 	b	40a094 <_usopenpollsema+0x310>
  409eec:	8e840a64 	lw	$a0,2660($s4)
  409ef0:	02002025 	move	$a0,$s0
  409ef4:	0c1032f8 	jal	40cbe0 <_fstat>
  409ef8:	27a50044 	addiu	$a1,$sp,68
  409efc:	14400006 	bnez	$v0,409f18 <_usopenpollsema+0x194>
  409f00:	00000000 	nop
  409f04:	8fa500ec 	lw	$a1,236($sp)
  409f08:	0c103284 	jal	40ca10 <_fchmod>
  409f0c:	02002025 	move	$a0,$s0
  409f10:	04410010 	bgez	$v0,409f54 <_usopenpollsema+0x1d0>
  409f14:	00000000 	nop
  409f18:	0c101eb8 	jal	407ae0 <_oserror>
  409f1c:	00000000 	nop
  409f20:	00409025 	move	$s2,$v0
  409f24:	0c101978 	jal	4065e0 <_close>
  409f28:	02002025 	move	$a0,$s0
  409f2c:	8f988a30 	lw	$t8,-30160($gp)
  409f30:	24040001 	li	$a0,1
  409f34:	13000056 	beqz	$t8,40a090 <_usopenpollsema+0x30c>
  409f38:	3c050042 	lui	$a1,0x42
  409f3c:	3c190020 	lui	$t9,0x20
  409f40:	8f260e00 	lw	$a2,3584($t9)
  409f44:	0c103f10 	jal	40fc40 <_uprint>
  409f48:	24a5a358 	addiu	$a1,$a1,-23720
  409f4c:	10000051 	b	40a094 <_usopenpollsema+0x310>
  409f50:	8e840a64 	lw	$a0,2660($s4)
  409f54:	8f88af30 	lw	$t0,-20688($gp)
  409f58:	00002025 	move	$a0,$zero
  409f5c:	11000008 	beqz	$t0,409f80 <_usopenpollsema+0x1fc>
  409f60:	3c050042 	lui	$a1,0x42
  409f64:	8fa90068 	lw	$t1,104($sp)
  409f68:	87a600ce 	lh	$a2,206($sp)
  409f6c:	24a5a394 	addiu	$a1,$a1,-23660
  409f70:	02603825 	move	$a3,$s3
  409f74:	afb00014 	sw	$s0,20($sp)
  409f78:	0c103f10 	jal	40fc40 <_uprint>
  409f7c:	afa90010 	sw	$t1,16($sp)
  409f80:	8faa0068 	lw	$t2,104($sp)
  409f84:	10000034 	b	40a058 <_usopenpollsema+0x2d4>
  409f88:	ae6a0018 	sw	$t2,24($s3)
  409f8c:	2484a3dc 	addiu	$a0,$a0,-23588
  409f90:	0c1032c0 	jal	40cb00 <_open>
  409f94:	24050002 	li	$a1,2
  409f98:	04410005 	bgez	$v0,409fb0 <_usopenpollsema+0x22c>
  409f9c:	00408825 	move	$s1,$v0
  409fa0:	0c101eb8 	jal	407ae0 <_oserror>
  409fa4:	00000000 	nop
  409fa8:	10000039 	b	40a090 <_usopenpollsema+0x30c>
  409fac:	00409025 	move	$s2,$v0
  409fb0:	8e6b0018 	lw	$t3,24($s3)
  409fb4:	3c050075 	lui	$a1,0x75
  409fb8:	afb30040 	sw	$s3,64($sp)
  409fbc:	34a57302 	ori	$a1,$a1,0x7302
  409fc0:	02202025 	move	$a0,$s1
  409fc4:	27a6003c 	addiu	$a2,$sp,60
  409fc8:	0c10329c 	jal	40ca70 <_ioctl>
  409fcc:	afab003c 	sw	$t3,60($sp)
  409fd0:	04410014 	bgez	$v0,40a024 <_usopenpollsema+0x2a0>
  409fd4:	00408025 	move	$s0,$v0
  409fd8:	0c101eb8 	jal	407ae0 <_oserror>
  409fdc:	00000000 	nop
  409fe0:	00409025 	move	$s2,$v0
  409fe4:	0c101978 	jal	4065e0 <_close>
  409fe8:	02202025 	move	$a0,$s1
  409fec:	24010016 	li	$at,22
  409ff0:	16410003 	bne	$s2,$at,40a000 <_usopenpollsema+0x27c>
  409ff4:	00000000 	nop
  409ff8:	1000ffaa 	b	409ea4 <_usopenpollsema+0x120>
  409ffc:	ae600018 	sw	$zero,24($s3)
  40a000:	8f8c8a30 	lw	$t4,-30160($gp)
  40a004:	24040001 	li	$a0,1
  40a008:	11800021 	beqz	$t4,40a090 <_usopenpollsema+0x30c>
  40a00c:	3c050042 	lui	$a1,0x42
  40a010:	8e660018 	lw	$a2,24($s3)
  40a014:	0c103f10 	jal	40fc40 <_uprint>
  40a018:	24a5a3e8 	addiu	$a1,$a1,-23576
  40a01c:	1000001d 	b	40a094 <_usopenpollsema+0x310>
  40a020:	8e840a64 	lw	$a0,2660($s4)
  40a024:	8f8daf30 	lw	$t5,-20688($gp)
  40a028:	00002025 	move	$a0,$zero
  40a02c:	11a00008 	beqz	$t5,40a050 <_usopenpollsema+0x2cc>
  40a030:	3c050042 	lui	$a1,0x42
  40a034:	8e6e0018 	lw	$t6,24($s3)
  40a038:	87a600ce 	lh	$a2,206($sp)
  40a03c:	afb00014 	sw	$s0,20($sp)
  40a040:	24a5a424 	addiu	$a1,$a1,-23516
  40a044:	02603825 	move	$a3,$s3
  40a048:	0c103f10 	jal	40fc40 <_uprint>
  40a04c:	afae0010 	sw	$t6,16($sp)
  40a050:	0c101978 	jal	4065e0 <_close>
  40a054:	02202025 	move	$a0,$s1
  40a058:	02002025 	move	$a0,$s0
  40a05c:	24050002 	li	$a1,2
  40a060:	0c103290 	jal	40ca40 <_fcntl>
  40a064:	24060001 	li	$a2,1
  40a068:	8e840a64 	lw	$a0,2660($s4)
  40a06c:	0c101ed4 	jal	407b50 <_usvsema>
  40a070:	00000000 	nop
  40a074:	87b800ce 	lh	$t8,206($sp)
  40a078:	8e6f0008 	lw	$t7,8($s3)
  40a07c:	0018c840 	sll	$t9,$t8,0x1
  40a080:	01f94021 	addu	$t0,$t7,$t9
  40a084:	a5100000 	sh	$s0,0($t0)
  40a088:	10000007 	b	40a0a8 <_usopenpollsema+0x324>
  40a08c:	02001025 	move	$v0,$s0
  40a090:	8e840a64 	lw	$a0,2660($s4)
  40a094:	0c101ed4 	jal	407b50 <_usvsema>
  40a098:	00000000 	nop
  40a09c:	0c101ebd 	jal	407af4 <_setoserror>
  40a0a0:	02402025 	move	$a0,$s2
  40a0a4:	2402ffff 	li	$v0,-1
  40a0a8:	8fbf0034 	lw	$ra,52($sp)
  40a0ac:	8fb00020 	lw	$s0,32($sp)
  40a0b0:	8fb10024 	lw	$s1,36($sp)
  40a0b4:	8fb20028 	lw	$s2,40($sp)
  40a0b8:	8fb3002c 	lw	$s3,44($sp)
  40a0bc:	8fb40030 	lw	$s4,48($sp)
  40a0c0:	03e00008 	jr	$ra
  40a0c4:	27bd00e8 	addiu	$sp,$sp,232

0040a0c8 <_usclosepollsema>:
  40a0c8:	27bdff20 	addiu	$sp,$sp,-224
  40a0cc:	afbf002c 	sw	$ra,44($sp)
  40a0d0:	afb50028 	sw	$s5,40($sp)
  40a0d4:	afb40024 	sw	$s4,36($sp)
  40a0d8:	afb30020 	sw	$s3,32($sp)
  40a0dc:	afb2001c 	sw	$s2,28($sp)
  40a0e0:	afb10018 	sw	$s1,24($sp)
  40a0e4:	afb00014 	sw	$s0,20($sp)
  40a0e8:	8c950000 	lw	$s5,0($a0)
  40a0ec:	00808825 	move	$s1,$a0
  40a0f0:	00009025 	move	$s2,$zero
  40a0f4:	0c1037ad 	jal	40deb4 <_usgettid>
  40a0f8:	02a02025 	move	$a0,$s5
  40a0fc:	2414ffff 	li	$s4,-1
  40a100:	14540005 	bne	$v0,$s4,40a118 <_usclosepollsema+0x50>
  40a104:	00409825 	move	$s3,$v0
  40a108:	0c101ebd 	jal	407af4 <_setoserror>
  40a10c:	24040016 	li	$a0,22
  40a110:	1000007b 	b	40a300 <_usclosepollsema+0x238>
  40a114:	2402ffff 	li	$v0,-1
  40a118:	0c10381e 	jal	40e078 <_usclean_tidmap>
  40a11c:	02a02025 	move	$a0,$s5
  40a120:	8e2e0008 	lw	$t6,8($s1)
  40a124:	00138040 	sll	$s0,$s3,0x1
  40a128:	01d07821 	addu	$t7,$t6,$s0
  40a12c:	85e40000 	lh	$a0,0($t7)
  40a130:	00000000 	nop
  40a134:	1284000b 	beq	$s4,$a0,40a164 <_usclosepollsema+0x9c>
  40a138:	00000000 	nop
  40a13c:	0c101978 	jal	4065e0 <_close>
  40a140:	00000000 	nop
  40a144:	10400003 	beqz	$v0,40a154 <_usclosepollsema+0x8c>
  40a148:	00000000 	nop
  40a14c:	1000006c 	b	40a300 <_usclosepollsema+0x238>
  40a150:	2402ffff 	li	$v0,-1
  40a154:	8e380008 	lw	$t8,8($s1)
  40a158:	24120001 	li	$s2,1
  40a15c:	0310c821 	addu	$t9,$t8,$s0
  40a160:	a7340000 	sh	$s4,0($t9)
  40a164:	2404000d 	li	$a0,13
  40a168:	0c10156c 	jal	4055b0 <_prctl>
  40a16c:	00002825 	move	$a1,$zero
  40a170:	04410003 	bgez	$v0,40a180 <_usclosepollsema+0xb8>
  40a174:	00000000 	nop
  40a178:	10000061 	b	40a300 <_usclosepollsema+0x238>
  40a17c:	00001025 	move	$v0,$zero
  40a180:	8ea40a64 	lw	$a0,2660($s5)
  40a184:	0c101ecc 	jal	407b30 <_uspsema>
  40a188:	00000000 	nop
  40a18c:	04410003 	bgez	$v0,40a19c <_usclosepollsema+0xd4>
  40a190:	00000000 	nop
  40a194:	1000005a 	b	40a300 <_usclosepollsema+0x238>
  40a198:	2402ffff 	li	$v0,-1
  40a19c:	8ea20424 	lw	$v0,1060($s5)
  40a1a0:	00009825 	move	$s3,$zero
  40a1a4:	1840004d 	blez	$v0,40a2dc <_usclosepollsema+0x214>
  40a1a8:	00008025 	move	$s0,$zero
  40a1ac:	8e280008 	lw	$t0,8($s1)
  40a1b0:	00132c00 	sll	$a1,$s3,0x10
  40a1b4:	01104821 	addu	$t1,$t0,$s0
  40a1b8:	852a0000 	lh	$t2,0($t1)
  40a1bc:	00055c03 	sra	$t3,$a1,0x10
  40a1c0:	128a0042 	beq	$s4,$t2,40a2cc <_usclosepollsema+0x204>
  40a1c4:	02a02025 	move	$a0,$s5
  40a1c8:	0c1037a4 	jal	40de90 <_usget_pid>
  40a1cc:	01602825 	move	$a1,$t3
  40a1d0:	2404000d 	li	$a0,13
  40a1d4:	0c10156c 	jal	4055b0 <_prctl>
  40a1d8:	00402825 	move	$a1,$v0
  40a1dc:	04400014 	bltz	$v0,40a230 <_usclosepollsema+0x168>
  40a1e0:	304c0002 	andi	$t4,$v0,0x2
  40a1e4:	15800004 	bnez	$t4,40a1f8 <_usclosepollsema+0x130>
  40a1e8:	00000000 	nop
  40a1ec:	8ea20424 	lw	$v0,1060($s5)
  40a1f0:	10000037 	b	40a2d0 <_usclosepollsema+0x208>
  40a1f4:	26730001 	addiu	$s3,$s3,1
  40a1f8:	16400009 	bnez	$s2,40a220 <_usclosepollsema+0x158>
  40a1fc:	00000000 	nop
  40a200:	8e2d0008 	lw	$t5,8($s1)
  40a204:	00000000 	nop
  40a208:	01b07021 	addu	$t6,$t5,$s0
  40a20c:	85c40000 	lh	$a0,0($t6)
  40a210:	0c101978 	jal	4065e0 <_close>
  40a214:	00000000 	nop
  40a218:	14400035 	bnez	$v0,40a2f0 <_usclosepollsema+0x228>
  40a21c:	26520001 	addiu	$s2,$s2,1
  40a220:	8e2f0008 	lw	$t7,8($s1)
  40a224:	00000000 	nop
  40a228:	01f0c021 	addu	$t8,$t7,$s0
  40a22c:	a7140000 	sh	$s4,0($t8)
  40a230:	0c101eb8 	jal	407ae0 <_oserror>
  40a234:	00000000 	nop
  40a238:	24010003 	li	$at,3
  40a23c:	14410021 	bne	$v0,$at,40a2c4 <_usclosepollsema+0x1fc>
  40a240:	00000000 	nop
  40a244:	1640001b 	bnez	$s2,40a2b4 <_usclosepollsema+0x1ec>
  40a248:	00000000 	nop
  40a24c:	8e390008 	lw	$t9,8($s1)
  40a250:	27a50040 	addiu	$a1,$sp,64
  40a254:	03304021 	addu	$t0,$t9,$s0
  40a258:	85040000 	lh	$a0,0($t0)
  40a25c:	0c1032f8 	jal	40cbe0 <_fstat>
  40a260:	00000000 	nop
  40a264:	14400013 	bnez	$v0,40a2b4 <_usclosepollsema+0x1ec>
  40a268:	00000000 	nop
  40a26c:	8fa90054 	lw	$t1,84($sp)
  40a270:	24012000 	li	$at,8192
  40a274:	312af000 	andi	$t2,$t1,0xf000
  40a278:	1541000e 	bne	$t2,$at,40a2b4 <_usclosepollsema+0x1ec>
  40a27c:	00000000 	nop
  40a280:	8fab0064 	lw	$t3,100($sp)
  40a284:	8e2c0018 	lw	$t4,24($s1)
  40a288:	00000000 	nop
  40a28c:	156c0009 	bne	$t3,$t4,40a2b4 <_usclosepollsema+0x1ec>
  40a290:	00000000 	nop
  40a294:	8e2d0008 	lw	$t5,8($s1)
  40a298:	00000000 	nop
  40a29c:	01b07021 	addu	$t6,$t5,$s0
  40a2a0:	85c40000 	lh	$a0,0($t6)
  40a2a4:	0c101978 	jal	4065e0 <_close>
  40a2a8:	00000000 	nop
  40a2ac:	14400010 	bnez	$v0,40a2f0 <_usclosepollsema+0x228>
  40a2b0:	26520001 	addiu	$s2,$s2,1
  40a2b4:	8e2f0008 	lw	$t7,8($s1)
  40a2b8:	00000000 	nop
  40a2bc:	01f0c021 	addu	$t8,$t7,$s0
  40a2c0:	a7140000 	sh	$s4,0($t8)
  40a2c4:	8ea20424 	lw	$v0,1060($s5)
  40a2c8:	00000000 	nop
  40a2cc:	26730001 	addiu	$s3,$s3,1
  40a2d0:	0262082a 	slt	$at,$s3,$v0
  40a2d4:	1420ffb5 	bnez	$at,40a1ac <_usclosepollsema+0xe4>
  40a2d8:	26100002 	addiu	$s0,$s0,2
  40a2dc:	8ea40a64 	lw	$a0,2660($s5)
  40a2e0:	0c101ed4 	jal	407b50 <_usvsema>
  40a2e4:	00000000 	nop
  40a2e8:	10000005 	b	40a300 <_usclosepollsema+0x238>
  40a2ec:	00001025 	move	$v0,$zero
  40a2f0:	8ea40a64 	lw	$a0,2660($s5)
  40a2f4:	0c101ed4 	jal	407b50 <_usvsema>
  40a2f8:	00000000 	nop
  40a2fc:	2402ffff 	li	$v0,-1
  40a300:	8fbf002c 	lw	$ra,44($sp)
  40a304:	8fb00014 	lw	$s0,20($sp)
  40a308:	8fb10018 	lw	$s1,24($sp)
  40a30c:	8fb2001c 	lw	$s2,28($sp)
  40a310:	8fb30020 	lw	$s3,32($sp)
  40a314:	8fb40024 	lw	$s4,36($sp)
  40a318:	8fb50028 	lw	$s5,40($sp)
  40a31c:	03e00008 	jr	$ra
  40a320:	27bd00e0 	addiu	$sp,$sp,224
  40a324:	27bdff18 	addiu	$sp,$sp,-232
  40a328:	afb60038 	sw	$s6,56($sp)
  40a32c:	afbf003c 	sw	$ra,60($sp)
  40a330:	afb50034 	sw	$s5,52($sp)
  40a334:	afb40030 	sw	$s4,48($sp)
  40a338:	afb3002c 	sw	$s3,44($sp)
  40a33c:	afb20028 	sw	$s2,40($sp)
  40a340:	afb10024 	sw	$s1,36($sp)
  40a344:	afb00020 	sw	$s0,32($sp)
  40a348:	afa500ec 	sw	$a1,236($sp)
  40a34c:	0080b025 	move	$s6,$a0
  40a350:	8c920000 	lw	$s2,0($a0)
  40a354:	2404000d 	li	$a0,13
  40a358:	0c10156c 	jal	4055b0 <_prctl>
  40a35c:	00002825 	move	$a1,$zero
  40a360:	04410003 	bgez	$v0,40a370 <_usclosepollsema+0x2a8>
  40a364:	00000000 	nop
  40a368:	10000055 	b	40a4c0 <_usclosepollsema+0x3f8>
  40a36c:	2402ffff 	li	$v0,-1
  40a370:	8e420424 	lw	$v0,1060($s2)
  40a374:	00008025 	move	$s0,$zero
  40a378:	18400050 	blez	$v0,40a4bc <_usclosepollsema+0x3f4>
  40a37c:	00008825 	move	$s1,$zero
  40a380:	2415ffff 	li	$s5,-1
  40a384:	8ece0008 	lw	$t6,8($s6)
  40a388:	00109c00 	sll	$s3,$s0,0x10
  40a38c:	01d17821 	addu	$t7,$t6,$s1
  40a390:	85f40000 	lh	$s4,0($t7)
  40a394:	0013c403 	sra	$t8,$s3,0x10
  40a398:	12950044 	beq	$s4,$s5,40a4ac <_usclosepollsema+0x3e4>
  40a39c:	02402025 	move	$a0,$s2
  40a3a0:	00182c00 	sll	$a1,$t8,0x10
  40a3a4:	0005cc03 	sra	$t9,$a1,0x10
  40a3a8:	03202825 	move	$a1,$t9
  40a3ac:	0c1037a4 	jal	40de90 <_usget_pid>
  40a3b0:	03009825 	move	$s3,$t8
  40a3b4:	2404000d 	li	$a0,13
  40a3b8:	0c10156c 	jal	4055b0 <_prctl>
  40a3bc:	00402825 	move	$a1,$v0
  40a3c0:	04410004 	bgez	$v0,40a3d4 <_usclosepollsema+0x30c>
  40a3c4:	30480002 	andi	$t0,$v0,0x2
  40a3c8:	8e420424 	lw	$v0,1060($s2)
  40a3cc:	10000038 	b	40a4b0 <_usclosepollsema+0x3e8>
  40a3d0:	26100001 	addiu	$s0,$s0,1
  40a3d4:	15000005 	bnez	$t0,40a3ec <_usclosepollsema+0x324>
  40a3d8:	87aa00ee 	lh	$t2,238($sp)
  40a3dc:	8e420424 	lw	$v0,1060($s2)
  40a3e0:	10000033 	b	40a4b0 <_usclosepollsema+0x3e8>
  40a3e4:	26100001 	addiu	$s0,$s0,1
  40a3e8:	87aa00ee 	lh	$t2,238($sp)
  40a3ec:	8ec90008 	lw	$t1,8($s6)
  40a3f0:	000a5840 	sll	$t3,$t2,0x1
  40a3f4:	012b6021 	addu	$t4,$t1,$t3
  40a3f8:	a5940000 	sh	$s4,0($t4)
  40a3fc:	8f8daf30 	lw	$t5,-20688($gp)
  40a400:	02802025 	move	$a0,$s4
  40a404:	11a0001c 	beqz	$t5,40a478 <_usclosepollsema+0x3b0>
  40a408:	00000000 	nop
  40a40c:	0c1032f8 	jal	40cbe0 <_fstat>
  40a410:	27a50050 	addiu	$a1,$sp,80
  40a414:	1440000a 	bnez	$v0,40a440 <_usclosepollsema+0x378>
  40a418:	02402025 	move	$a0,$s2
  40a41c:	8fae0064 	lw	$t6,100($sp)
  40a420:	24012000 	li	$at,8192
  40a424:	31cff000 	andi	$t7,$t6,0xf000
  40a428:	15e10006 	bne	$t7,$at,40a444 <_usclosepollsema+0x37c>
  40a42c:	00132c00 	sll	$a1,$s3,0x10
  40a430:	8fb80074 	lw	$t8,116($sp)
  40a434:	8ed90018 	lw	$t9,24($s6)
  40a438:	00000000 	nop
  40a43c:	1319000e 	beq	$t8,$t9,40a478 <_usclosepollsema+0x3b0>
  40a440:	00132c00 	sll	$a1,$s3,0x10
  40a444:	00054403 	sra	$t0,$a1,0x10
  40a448:	0c1037a4 	jal	40de90 <_usget_pid>
  40a44c:	01002825 	move	$a1,$t0
  40a450:	3c0a0020 	lui	$t2,0x20
  40a454:	8d460e00 	lw	$a2,3584($t2)
  40a458:	3c050042 	lui	$a1,0x42
  40a45c:	24a5a46c 	addiu	$a1,$a1,-23444
  40a460:	afb40010 	sw	$s4,16($sp)
  40a464:	00002025 	move	$a0,$zero
  40a468:	0c103f10 	jal	40fc40 <_uprint>
  40a46c:	00403825 	move	$a3,$v0
  40a470:	10000013 	b	40a4c0 <_usclosepollsema+0x3f8>
  40a474:	2402ffff 	li	$v0,-1
  40a478:	8f89af30 	lw	$t1,-20688($gp)
  40a47c:	00002025 	move	$a0,$zero
  40a480:	11200006 	beqz	$t1,40a49c <_usclosepollsema+0x3d4>
  40a484:	3c050042 	lui	$a1,0x42
  40a488:	87a600ee 	lh	$a2,238($sp)
  40a48c:	24a5a4b8 	addiu	$a1,$a1,-23368
  40a490:	02c03825 	move	$a3,$s6
  40a494:	0c103f10 	jal	40fc40 <_uprint>
  40a498:	afb40010 	sw	$s4,16($sp)
  40a49c:	00141400 	sll	$v0,$s4,0x10
  40a4a0:	00025c03 	sra	$t3,$v0,0x10
  40a4a4:	10000006 	b	40a4c0 <_usclosepollsema+0x3f8>
  40a4a8:	01601025 	move	$v0,$t3
  40a4ac:	26100001 	addiu	$s0,$s0,1
  40a4b0:	0202082a 	slt	$at,$s0,$v0
  40a4b4:	1420ffb3 	bnez	$at,40a384 <_usclosepollsema+0x2bc>
  40a4b8:	26310002 	addiu	$s1,$s1,2
  40a4bc:	2402ffff 	li	$v0,-1
  40a4c0:	8fbf003c 	lw	$ra,60($sp)
  40a4c4:	8fb00020 	lw	$s0,32($sp)
  40a4c8:	8fb10024 	lw	$s1,36($sp)
  40a4cc:	8fb20028 	lw	$s2,40($sp)
  40a4d0:	8fb3002c 	lw	$s3,44($sp)
  40a4d4:	8fb40030 	lw	$s4,48($sp)
  40a4d8:	8fb50034 	lw	$s5,52($sp)
  40a4dc:	8fb60038 	lw	$s6,56($sp)
  40a4e0:	03e00008 	jr	$ra
  40a4e4:	27bd00e8 	addiu	$sp,$sp,232

0040a4e8 <_usblock>:
  40a4e8:	27bdffc8 	addiu	$sp,$sp,-56
  40a4ec:	afbf002c 	sw	$ra,44($sp)
  40a4f0:	afb00020 	sw	$s0,32($sp)
  40a4f4:	00a08025 	move	$s0,$a1
  40a4f8:	afb20028 	sw	$s2,40($sp)
  40a4fc:	afb10024 	sw	$s1,36($sp)
  40a500:	afa40038 	sw	$a0,56($sp)
  40a504:	afa60040 	sw	$a2,64($sp)
  40a508:	0c103d4d 	jal	40f534 <__usfastadd>
  40a50c:	afa70044 	sw	$a3,68($sp)
  40a510:	2403ffff 	li	$v1,-1
  40a514:	1443000c 	bne	$v0,$v1,40a548 <_usblock+0x60>
  40a518:	a7a20032 	sh	$v0,50($sp)
  40a51c:	8f8e8a30 	lw	$t6,-30160($gp)
  40a520:	00002025 	move	$a0,$zero
  40a524:	11c00006 	beqz	$t6,40a540 <_usblock+0x58>
  40a528:	3c050042 	lui	$a1,0x42
  40a52c:	3c0f0020 	lui	$t7,0x20
  40a530:	8de70e00 	lw	$a3,3584($t7)
  40a534:	8fa60044 	lw	$a2,68($sp)
  40a538:	0c103f10 	jal	40fc40 <_uprint>
  40a53c:	24a5a4f8 	addiu	$a1,$a1,-23304
  40a540:	10000037 	b	40a620 <_usblock+0x138>
  40a544:	2402ffff 	li	$v0,-1
  40a548:	12000016 	beqz	$s0,40a5a4 <_usblock+0xbc>
  40a54c:	8fac0038 	lw	$t4,56($sp)
  40a550:	96180016 	lhu	$t8,22($s0)
  40a554:	00000000 	nop
  40a558:	33190008 	andi	$t9,$t8,0x8
  40a55c:	13200011 	beqz	$t9,40a5a4 <_usblock+0xbc>
  40a560:	8fac0038 	lw	$t4,56($sp)
  40a564:	8e080008 	lw	$t0,8($s0)
  40a568:	00024840 	sll	$t1,$v0,0x1
  40a56c:	01095021 	addu	$t2,$t0,$t1
  40a570:	85520000 	lh	$s2,0($t2)
  40a574:	87a50032 	lh	$a1,50($sp)
  40a578:	16430007 	bne	$s2,$v1,40a598 <_usblock+0xb0>
  40a57c:	3c110075 	lui	$s1,0x75
  40a580:	0c1028c9 	jal	40a324 <_usclosepollsema+0x25c>
  40a584:	02002025 	move	$a0,$s0
  40a588:	00029400 	sll	$s2,$v0,0x10
  40a58c:	00125c03 	sra	$t3,$s2,0x10
  40a590:	01609025 	move	$s2,$t3
  40a594:	3c110075 	lui	$s1,0x75
  40a598:	10000008 	b	40a5bc <_usblock+0xd4>
  40a59c:	36317304 	ori	$s1,$s1,0x7304
  40a5a0:	8fac0038 	lw	$t4,56($sp)
  40a5a4:	000270c0 	sll	$t6,$v0,0x3
  40a5a8:	8d8d000c 	lw	$t5,12($t4)
  40a5ac:	3c110075 	lui	$s1,0x75
  40a5b0:	01ae7821 	addu	$t7,$t5,$t6
  40a5b4:	85f20006 	lh	$s2,6($t7)
  40a5b8:	36317303 	ori	$s1,$s1,0x7303
  40a5bc:	24100004 	li	$s0,4
  40a5c0:	02402025 	move	$a0,$s2
  40a5c4:	0c10329c 	jal	40ca70 <_ioctl>
  40a5c8:	02202825 	move	$a1,$s1
  40a5cc:	10400014 	beqz	$v0,40a620 <_usblock+0x138>
  40a5d0:	00001025 	move	$v0,$zero
  40a5d4:	0c101eb8 	jal	407ae0 <_oserror>
  40a5d8:	00000000 	nop
  40a5dc:	1050fff9 	beq	$v0,$s0,40a5c4 <_usblock+0xdc>
  40a5e0:	02402025 	move	$a0,$s2
  40a5e4:	8f988a30 	lw	$t8,-30160($gp)
  40a5e8:	24040001 	li	$a0,1
  40a5ec:	13000009 	beqz	$t8,40a614 <_usblock+0x12c>
  40a5f0:	3c050042 	lui	$a1,0x42
  40a5f4:	3c190020 	lui	$t9,0x20
  40a5f8:	87a80032 	lh	$t0,50($sp)
  40a5fc:	8f270e00 	lw	$a3,3584($t9)
  40a600:	8fa60044 	lw	$a2,68($sp)
  40a604:	afb20014 	sw	$s2,20($sp)
  40a608:	24a5a518 	addiu	$a1,$a1,-23272
  40a60c:	0c103f10 	jal	40fc40 <_uprint>
  40a610:	afa80010 	sw	$t0,16($sp)
  40a614:	10000002 	b	40a620 <_usblock+0x138>
  40a618:	2402ffff 	li	$v0,-1
  40a61c:	00001025 	move	$v0,$zero
  40a620:	8fbf002c 	lw	$ra,44($sp)
  40a624:	8fb00020 	lw	$s0,32($sp)
  40a628:	8fb10024 	lw	$s1,36($sp)
  40a62c:	8fb20028 	lw	$s2,40($sp)
  40a630:	03e00008 	jr	$ra
  40a634:	27bd0038 	addiu	$sp,$sp,56

0040a638 <_usunblock>:
  40a638:	27bdffd0 	addiu	$sp,$sp,-48
  40a63c:	afbf0024 	sw	$ra,36($sp)
  40a640:	afb00020 	sw	$s0,32($sp)
  40a644:	afa40030 	sw	$a0,48($sp)
  40a648:	afa50034 	sw	$a1,52($sp)
  40a64c:	afa60038 	sw	$a2,56($sp)
  40a650:	0c103d4d 	jal	40f534 <__usfastadd>
  40a654:	afa7003c 	sw	$a3,60($sp)
  40a658:	2403ffff 	li	$v1,-1
  40a65c:	8fa40034 	lw	$a0,52($sp)
  40a660:	1443000c 	bne	$v0,$v1,40a694 <_usunblock+0x5c>
  40a664:	a7a2002a 	sh	$v0,42($sp)
  40a668:	8f8e8a30 	lw	$t6,-30160($gp)
  40a66c:	00002025 	move	$a0,$zero
  40a670:	11c00006 	beqz	$t6,40a68c <_usunblock+0x54>
  40a674:	3c050042 	lui	$a1,0x42
  40a678:	3c0f0020 	lui	$t7,0x20
  40a67c:	8de70e00 	lw	$a3,3584($t7)
  40a680:	8fa6003c 	lw	$a2,60($sp)
  40a684:	0c103f10 	jal	40fc40 <_uprint>
  40a688:	24a5a53c 	addiu	$a1,$a1,-23236
  40a68c:	10000039 	b	40a774 <_usunblock+0x13c>
  40a690:	2402ffff 	li	$v0,-1
  40a694:	10800016 	beqz	$a0,40a6f0 <_usunblock+0xb8>
  40a698:	8fac0030 	lw	$t4,48($sp)
  40a69c:	94980016 	lhu	$t8,22($a0)
  40a6a0:	00000000 	nop
  40a6a4:	33190008 	andi	$t9,$t8,0x8
  40a6a8:	13200011 	beqz	$t9,40a6f0 <_usunblock+0xb8>
  40a6ac:	8fac0030 	lw	$t4,48($sp)
  40a6b0:	8c880008 	lw	$t0,8($a0)
  40a6b4:	00024840 	sll	$t1,$v0,0x1
  40a6b8:	01095021 	addu	$t2,$t0,$t1
  40a6bc:	85500000 	lh	$s0,0($t2)
  40a6c0:	87a5002a 	lh	$a1,42($sp)
  40a6c4:	16030006 	bne	$s0,$v1,40a6e0 <_usunblock+0xa8>
  40a6c8:	00000000 	nop
  40a6cc:	0c1028c9 	jal	40a324 <_usclosepollsema+0x25c>
  40a6d0:	00000000 	nop
  40a6d4:	00028400 	sll	$s0,$v0,0x10
  40a6d8:	00105c03 	sra	$t3,$s0,0x10
  40a6dc:	01608025 	move	$s0,$t3
  40a6e0:	3c050075 	lui	$a1,0x75
  40a6e4:	10000008 	b	40a708 <_usunblock+0xd0>
  40a6e8:	34a57307 	ori	$a1,$a1,0x7307
  40a6ec:	8fac0030 	lw	$t4,48($sp)
  40a6f0:	000270c0 	sll	$t6,$v0,0x3
  40a6f4:	8d8d000c 	lw	$t5,12($t4)
  40a6f8:	3c050075 	lui	$a1,0x75
  40a6fc:	01ae7821 	addu	$t7,$t5,$t6
  40a700:	85f00006 	lh	$s0,6($t7)
  40a704:	34a57306 	ori	$a1,$a1,0x7306
  40a708:	8fa60038 	lw	$a2,56($sp)
  40a70c:	0c10329c 	jal	40ca70 <_ioctl>
  40a710:	02002025 	move	$a0,$s0
  40a714:	10400017 	beqz	$v0,40a774 <_usunblock+0x13c>
  40a718:	00001025 	move	$v0,$zero
  40a71c:	0c101eb8 	jal	407ae0 <_oserror>
  40a720:	00000000 	nop
  40a724:	24010003 	li	$at,3
  40a728:	14410003 	bne	$v0,$at,40a738 <_usunblock+0x100>
  40a72c:	00000000 	nop
  40a730:	10000010 	b	40a774 <_usunblock+0x13c>
  40a734:	24020001 	li	$v0,1
  40a738:	8f988a30 	lw	$t8,-30160($gp)
  40a73c:	24040001 	li	$a0,1
  40a740:	13000009 	beqz	$t8,40a768 <_usunblock+0x130>
  40a744:	3c050042 	lui	$a1,0x42
  40a748:	3c190020 	lui	$t9,0x20
  40a74c:	87a8002a 	lh	$t0,42($sp)
  40a750:	8f270e00 	lw	$a3,3584($t9)
  40a754:	8fa6003c 	lw	$a2,60($sp)
  40a758:	afb00014 	sw	$s0,20($sp)
  40a75c:	24a5a55c 	addiu	$a1,$a1,-23204
  40a760:	0c103f10 	jal	40fc40 <_uprint>
  40a764:	afa80010 	sw	$t0,16($sp)
  40a768:	10000002 	b	40a774 <_usunblock+0x13c>
  40a76c:	2402ffff 	li	$v0,-1
  40a770:	00001025 	move	$v0,$zero
  40a774:	8fbf0024 	lw	$ra,36($sp)
  40a778:	8fb00020 	lw	$s0,32($sp)
  40a77c:	03e00008 	jr	$ra
  40a780:	27bd0030 	addiu	$sp,$sp,48
	...

0040a790 <_seminit>:
  40a790:	8f8e8b90 	lw	$t6,-29808($gp)
  40a794:	27bdffc0 	addiu	$sp,$sp,-64
  40a798:	afbf001c 	sw	$ra,28($sp)
  40a79c:	afb10018 	sw	$s1,24($sp)
  40a7a0:	11c0000c 	beqz	$t6,40a7d4 <_seminit+0x44>
  40a7a4:	afb00014 	sw	$s0,20($sp)
  40a7a8:	8f8f8b8c 	lw	$t7,-29812($gp)
  40a7ac:	00000000 	nop
  40a7b0:	8de40404 	lw	$a0,1028($t7)
  40a7b4:	0c10387d 	jal	40e1f4 <_usany_tids_left>
  40a7b8:	00000000 	nop
  40a7bc:	04410003 	bgez	$v0,40a7cc <_seminit+0x3c>
  40a7c0:	00000000 	nop
  40a7c4:	1000009e 	b	40aa40 <_seminit+0x2b0>
  40a7c8:	2402ffff 	li	$v0,-1
  40a7cc:	1000009c 	b	40aa40 <_seminit+0x2b0>
  40a7d0:	00001025 	move	$v0,$zero
  40a7d4:	8f988b8c 	lw	$t8,-29812($gp)
  40a7d8:	24040001 	li	$a0,1
  40a7dc:	17000007 	bnez	$t8,40a7fc <_seminit+0x6c>
  40a7e0:	00000000 	nop
  40a7e4:	0c103348 	jal	40cd20 <_calloc>
  40a7e8:	24050408 	li	$a1,1032
  40a7ec:	14400003 	bnez	$v0,40a7fc <_seminit+0x6c>
  40a7f0:	af828b8c 	sw	$v0,-29812($gp)
  40a7f4:	10000092 	b	40aa40 <_seminit+0x2b0>
  40a7f8:	2402ffff 	li	$v0,-1
  40a7fc:	3c040042 	lui	$a0,0x42
  40a800:	0c10336c 	jal	40cdb0 <getenv>
  40a804:	2484a5c0 	addiu	$a0,$a0,-23104
  40a808:	10400007 	beqz	$v0,40a828 <_seminit+0x98>
  40a80c:	00002025 	move	$a0,$zero
  40a810:	8f888b8c 	lw	$t0,-29812($gp)
  40a814:	3c190042 	lui	$t9,0x42
  40a818:	2739a5d4 	addiu	$t9,$t9,-23084
  40a81c:	10000007 	b	40a83c <_seminit+0xac>
  40a820:	ad190400 	sw	$t9,1024($t0)
  40a824:	00002025 	move	$a0,$zero
  40a828:	0c103050 	jal	40c140 <_tempnam>
  40a82c:	278580c0 	addiu	$a1,$gp,-32576
  40a830:	8f898b8c 	lw	$t1,-29812($gp)
  40a834:	00000000 	nop
  40a838:	ad220400 	sw	$v0,1024($t1)
  40a83c:	24040001 	li	$a0,1
  40a840:	0c103fe0 	jal	40ff80 <_usconfig>
  40a844:	24050008 	li	$a1,8
  40a848:	00408025 	move	$s0,$v0
  40a84c:	24040001 	li	$a0,1
  40a850:	0c103fe0 	jal	40ff80 <_usconfig>
  40a854:	00402825 	move	$a1,$v0
  40a858:	0c1024bd 	jal	4092f4 <_ussemaspace>
  40a85c:	02002025 	move	$a0,$s0
  40a860:	00022940 	sll	$a1,$v0,0x5
  40a864:	00a22821 	addu	$a1,$a1,$v0
  40a868:	00052880 	sll	$a1,$a1,0x2
  40a86c:	00a22823 	subu	$a1,$a1,$v0
  40a870:	00052840 	sll	$a1,$a1,0x1
  40a874:	3401b240 	li	$at,0xb240
  40a878:	00a12821 	addu	$a1,$a1,$at
  40a87c:	0c103fe0 	jal	40ff80 <_usconfig>
  40a880:	24040002 	li	$a0,2
  40a884:	00408025 	move	$s0,$v0
  40a888:	24040010 	li	$a0,16
  40a88c:	0c103fe0 	jal	40ff80 <_usconfig>
  40a890:	24050001 	li	$a1,1
  40a894:	afa20024 	sw	$v0,36($sp)
  40a898:	24040014 	li	$a0,20
  40a89c:	0c103fe0 	jal	40ff80 <_usconfig>
  40a8a0:	00002825 	move	$a1,$zero
  40a8a4:	afa20034 	sw	$v0,52($sp)
  40a8a8:	24040015 	li	$a0,21
  40a8ac:	0c103fe0 	jal	40ff80 <_usconfig>
  40a8b0:	00002825 	move	$a1,$zero
  40a8b4:	8f8a8b8c 	lw	$t2,-29812($gp)
  40a8b8:	afa20030 	sw	$v0,48($sp)
  40a8bc:	8d440400 	lw	$a0,1024($t2)
  40a8c0:	0c103a2a 	jal	40e8a8 <_usinit>
  40a8c4:	00000000 	nop
  40a8c8:	00408825 	move	$s1,$v0
  40a8cc:	24040002 	li	$a0,2
  40a8d0:	0c103fe0 	jal	40ff80 <_usconfig>
  40a8d4:	02002825 	move	$a1,$s0
  40a8d8:	8fa50024 	lw	$a1,36($sp)
  40a8dc:	0c103fe0 	jal	40ff80 <_usconfig>
  40a8e0:	24040010 	li	$a0,16
  40a8e4:	8fa50034 	lw	$a1,52($sp)
  40a8e8:	0c103fe0 	jal	40ff80 <_usconfig>
  40a8ec:	24040014 	li	$a0,20
  40a8f0:	8fa50030 	lw	$a1,48($sp)
  40a8f4:	0c103fe0 	jal	40ff80 <_usconfig>
  40a8f8:	24040015 	li	$a0,21
  40a8fc:	16200003 	bnez	$s1,40a90c <_seminit+0x17c>
  40a900:	00000000 	nop
  40a904:	1000004e 	b	40aa40 <_seminit+0x2b0>
  40a908:	2402ffff 	li	$v0,-1
  40a90c:	8f998b9c 	lw	$t9,-29796($gp)
  40a910:	02202025 	move	$a0,$s1
  40a914:	0320f809 	jalr	$t9
  40a918:	00000000 	nop
  40a91c:	10400045 	beqz	$v0,40aa34 <_seminit+0x2a4>
  40a920:	af828b78 	sw	$v0,-29832($gp)
  40a924:	8f998b9c 	lw	$t9,-29796($gp)
  40a928:	02202025 	move	$a0,$s1
  40a92c:	0320f809 	jalr	$t9
  40a930:	00000000 	nop
  40a934:	1040003f 	beqz	$v0,40aa34 <_seminit+0x2a4>
  40a938:	af828b74 	sw	$v0,-29836($gp)
  40a93c:	8f998b9c 	lw	$t9,-29796($gp)
  40a940:	02202025 	move	$a0,$s1
  40a944:	0320f809 	jalr	$t9
  40a948:	00000000 	nop
  40a94c:	10400039 	beqz	$v0,40aa34 <_seminit+0x2a4>
  40a950:	af828b70 	sw	$v0,-29840($gp)
  40a954:	02202025 	move	$a0,$s1
  40a958:	0c102483 	jal	40920c <_usnewsema>
  40a95c:	24050001 	li	$a1,1
  40a960:	10400034 	beqz	$v0,40aa34 <_seminit+0x2a4>
  40a964:	af828b7c 	sw	$v0,-29828($gp)
  40a968:	00402025 	move	$a0,$v0
  40a96c:	0c1024f5 	jal	4093d4 <_usctlsema>
  40a970:	24050013 	li	$a1,19
  40a974:	02202025 	move	$a0,$s1
  40a978:	0c102483 	jal	40920c <_usnewsema>
  40a97c:	24050001 	li	$a1,1
  40a980:	1040002c 	beqz	$v0,40aa34 <_seminit+0x2a4>
  40a984:	af828b88 	sw	$v0,-29816($gp)
  40a988:	00402025 	move	$a0,$v0
  40a98c:	0c1024f5 	jal	4093d4 <_usctlsema>
  40a990:	24050013 	li	$a1,19
  40a994:	02202025 	move	$a0,$s1
  40a998:	0c102483 	jal	40920c <_usnewsema>
  40a99c:	24050001 	li	$a1,1
  40a9a0:	10400024 	beqz	$v0,40aa34 <_seminit+0x2a4>
  40a9a4:	af828b84 	sw	$v0,-29820($gp)
  40a9a8:	02202025 	move	$a0,$s1
  40a9ac:	0c102483 	jal	40920c <_usnewsema>
  40a9b0:	24050001 	li	$a1,1
  40a9b4:	1040001f 	beqz	$v0,40aa34 <_seminit+0x2a4>
  40a9b8:	af828b80 	sw	$v0,-29824($gp)
  40a9bc:	00402025 	move	$a0,$v0
  40a9c0:	0c1024f5 	jal	4093d4 <_usctlsema>
  40a9c4:	24050013 	li	$a1,19
  40a9c8:	00008025 	move	$s0,$zero
  40a9cc:	02202025 	move	$a0,$s1
  40a9d0:	0c102483 	jal	40920c <_usnewsema>
  40a9d4:	24050001 	li	$a1,1
  40a9d8:	8f8b8b8c 	lw	$t3,-29812($gp)
  40a9dc:	00402025 	move	$a0,$v0
  40a9e0:	01701821 	addu	$v1,$t3,$s0
  40a9e4:	10400013 	beqz	$v0,40aa34 <_seminit+0x2a4>
  40a9e8:	ac620000 	sw	$v0,0($v1)
  40a9ec:	0c1024f5 	jal	4093d4 <_usctlsema>
  40a9f0:	24050013 	li	$a1,19
  40a9f4:	26100004 	addiu	$s0,$s0,4
  40a9f8:	24010400 	li	$at,1024
  40a9fc:	1601fff4 	bne	$s0,$at,40a9d0 <_seminit+0x240>
  40aa00:	02202025 	move	$a0,$s1
  40aa04:	8f8c8b8c 	lw	$t4,-29812($gp)
  40aa08:	240d0001 	li	$t5,1
  40aa0c:	ad910404 	sw	$s1,1028($t4)
  40aa10:	8f8e80d0 	lw	$t6,-32560($gp)
  40aa14:	8f8f80d8 	lw	$t7,-32552($gp)
  40aa18:	8f9880e0 	lw	$t8,-32544($gp)
  40aa1c:	af8d8b90 	sw	$t5,-29808($gp)
  40aa20:	00001025 	move	$v0,$zero
  40aa24:	af8e80d4 	sw	$t6,-32556($gp)
  40aa28:	af8f80dc 	sw	$t7,-32548($gp)
  40aa2c:	10000004 	b	40aa40 <_seminit+0x2b0>
  40aa30:	af9880e4 	sw	$t8,-32540($gp)
  40aa34:	0c103f47 	jal	40fd1c <__usdetach>
  40aa38:	02202025 	move	$a0,$s1
  40aa3c:	2402ffff 	li	$v0,-1
  40aa40:	8fbf001c 	lw	$ra,28($sp)
  40aa44:	8fb00014 	lw	$s0,20($sp)
  40aa48:	8fb10018 	lw	$s1,24($sp)
  40aa4c:	03e00008 	jr	$ra
  40aa50:	27bd0040 	addiu	$sp,$sp,64

0040aa54 <_semadd>:
  40aa54:	27bdfed8 	addiu	$sp,$sp,-296
  40aa58:	8f8e8b8c 	lw	$t6,-29812($gp)
  40aa5c:	afbf001c 	sw	$ra,28($sp)
  40aa60:	afb00018 	sw	$s0,24($sp)
  40aa64:	8dc40404 	lw	$a0,1028($t6)
  40aa68:	0c103d16 	jal	40f458 <_usadd>
  40aa6c:	00000000 	nop
  40aa70:	10400024 	beqz	$v0,40ab04 <_semadd+0xb0>
  40aa74:	8fbf001c 	lw	$ra,28($sp)
  40aa78:	0c101eb8 	jal	407ae0 <_oserror>
  40aa7c:	00000000 	nop
  40aa80:	0c103240 	jal	40c900 <strerror>
  40aa84:	00402025 	move	$a0,$v0
  40aa88:	3c0f0020 	lui	$t7,0x20
  40aa8c:	8de60e00 	lw	$a2,3584($t7)
  40aa90:	27b00028 	addiu	$s0,$sp,40
  40aa94:	3c050042 	lui	$a1,0x42
  40aa98:	24a5a5e0 	addiu	$a1,$a1,-23072
  40aa9c:	02002025 	move	$a0,$s0
  40aaa0:	0c103038 	jal	40c0e0 <sprintf>
  40aaa4:	00403825 	move	$a3,$v0
  40aaa8:	0c103238 	jal	40c8e0 <strlen>
  40aaac:	02002025 	move	$a0,$s0
  40aab0:	24040002 	li	$a0,2
  40aab4:	02002825 	move	$a1,$s0
  40aab8:	0c101990 	jal	406640 <_write>
  40aabc:	00403025 	move	$a2,$v0
  40aac0:	0c101eb8 	jal	407ae0 <_oserror>
  40aac4:	00000000 	nop
  40aac8:	2401001c 	li	$at,28
  40aacc:	1441000a 	bne	$v0,$at,40aaf8 <_semadd+0xa4>
  40aad0:	02002025 	move	$a0,$s0
  40aad4:	3c050042 	lui	$a1,0x42
  40aad8:	0c103038 	jal	40c0e0 <sprintf>
  40aadc:	24a5a610 	addiu	$a1,$a1,-23024
  40aae0:	0c103238 	jal	40c8e0 <strlen>
  40aae4:	02002025 	move	$a0,$s0
  40aae8:	24040002 	li	$a0,2
  40aaec:	02002825 	move	$a1,$s0
  40aaf0:	0c101990 	jal	406640 <_write>
  40aaf4:	00403025 	move	$a2,$v0
  40aaf8:	0c101560 	jal	405580 <__exit>
  40aafc:	2404ffff 	li	$a0,-1
  40ab00:	8fbf001c 	lw	$ra,28($sp)
  40ab04:	8fb00018 	lw	$s0,24($sp)
  40ab08:	03e00008 	jr	$ra
  40ab0c:	27bd0128 	addiu	$sp,$sp,296

0040ab10 <_flockfile>:
  40ab10:	8f828b8c 	lw	$v0,-29812($gp)
  40ab14:	27bdffe8 	addiu	$sp,$sp,-24
  40ab18:	1040000b 	beqz	$v0,40ab48 <_flockfile+0x38>
  40ab1c:	afbf0014 	sw	$ra,20($sp)
  40ab20:	908e000d 	lbu	$t6,13($a0)
  40ab24:	00000000 	nop
  40ab28:	000e7880 	sll	$t7,$t6,0x2
  40ab2c:	004fc021 	addu	$t8,$v0,$t7
  40ab30:	8f040000 	lw	$a0,0($t8)
  40ab34:	00000000 	nop
  40ab38:	10800004 	beqz	$a0,40ab4c <_flockfile+0x3c>
  40ab3c:	8fbf0014 	lw	$ra,20($sp)
  40ab40:	0c101ecc 	jal	407b30 <_uspsema>
  40ab44:	00000000 	nop
  40ab48:	8fbf0014 	lw	$ra,20($sp)
  40ab4c:	27bd0018 	addiu	$sp,$sp,24
  40ab50:	03e00008 	jr	$ra
  40ab54:	00000000 	nop

0040ab58 <_ftrylockfile>:
  40ab58:	8f828b8c 	lw	$v0,-29812($gp)
  40ab5c:	27bdffe0 	addiu	$sp,$sp,-32
  40ab60:	afbf0014 	sw	$ra,20($sp)
  40ab64:	1040000f 	beqz	$v0,40aba4 <_ftrylockfile+0x4c>
  40ab68:	00001825 	move	$v1,$zero
  40ab6c:	908e000d 	lbu	$t6,13($a0)
  40ab70:	00000000 	nop
  40ab74:	000e7880 	sll	$t7,$t6,0x2
  40ab78:	004fc021 	addu	$t8,$v0,$t7
  40ab7c:	8f040000 	lw	$a0,0($t8)
  40ab80:	00000000 	nop
  40ab84:	10800008 	beqz	$a0,40aba8 <_ftrylockfile+0x50>
  40ab88:	8fbf0014 	lw	$ra,20($sp)
  40ab8c:	0c101ed0 	jal	407b40 <_uscpsema>
  40ab90:	afa00018 	sw	$zero,24($sp)
  40ab94:	8fa30018 	lw	$v1,24($sp)
  40ab98:	14400003 	bnez	$v0,40aba8 <_ftrylockfile+0x50>
  40ab9c:	8fbf0014 	lw	$ra,20($sp)
  40aba0:	24030001 	li	$v1,1
  40aba4:	8fbf0014 	lw	$ra,20($sp)
  40aba8:	27bd0020 	addiu	$sp,$sp,32
  40abac:	03e00008 	jr	$ra
  40abb0:	00601025 	move	$v0,$v1

0040abb4 <_funlockfile>:
  40abb4:	8f828b8c 	lw	$v0,-29812($gp)
  40abb8:	27bdffe8 	addiu	$sp,$sp,-24
  40abbc:	1040000b 	beqz	$v0,40abec <_funlockfile+0x38>
  40abc0:	afbf0014 	sw	$ra,20($sp)
  40abc4:	908e000d 	lbu	$t6,13($a0)
  40abc8:	00000000 	nop
  40abcc:	000e7880 	sll	$t7,$t6,0x2
  40abd0:	004fc021 	addu	$t8,$v0,$t7
  40abd4:	8f040000 	lw	$a0,0($t8)
  40abd8:	00000000 	nop
  40abdc:	10800004 	beqz	$a0,40abf0 <_funlockfile+0x3c>
  40abe0:	8fbf0014 	lw	$ra,20($sp)
  40abe4:	0c101ed4 	jal	407b50 <_usvsema>
  40abe8:	00000000 	nop
  40abec:	8fbf0014 	lw	$ra,20($sp)
  40abf0:	27bd0018 	addiu	$sp,$sp,24
  40abf4:	03e00008 	jr	$ra
  40abf8:	00000000 	nop

0040abfc <__fislockfile>:
  40abfc:	8f828b8c 	lw	$v0,-29812($gp)
  40ac00:	27bdffe0 	addiu	$sp,$sp,-32
  40ac04:	10400016 	beqz	$v0,40ac60 <__fislockfile+0x64>
  40ac08:	afbf0014 	sw	$ra,20($sp)
  40ac0c:	908e000d 	lbu	$t6,13($a0)
  40ac10:	00000000 	nop
  40ac14:	000e7880 	sll	$t7,$t6,0x2
  40ac18:	004fc021 	addu	$t8,$v0,$t7
  40ac1c:	8f040000 	lw	$a0,0($t8)
  40ac20:	00000000 	nop
  40ac24:	1080000f 	beqz	$a0,40ac64 <__fislockfile+0x68>
  40ac28:	24020001 	li	$v0,1
  40ac2c:	0c102438 	jal	4090e0 <_ustestsema>
  40ac30:	afa4001c 	sw	$a0,28($sp)
  40ac34:	8fa4001c 	lw	$a0,28($sp)
  40ac38:	28590001 	slti	$t9,$v0,1
  40ac3c:	13200009 	beqz	$t9,40ac64 <__fislockfile+0x68>
  40ac40:	03201025 	move	$v0,$t9
  40ac44:	3c080020 	lui	$t0,0x20
  40ac48:	8d090e00 	lw	$t1,3584($t0)
  40ac4c:	8c8a0004 	lw	$t2,4($a0)
  40ac50:	00000000 	nop
  40ac54:	012a1026 	xor	$v0,$t1,$t2
  40ac58:	10000002 	b	40ac64 <__fislockfile+0x68>
  40ac5c:	2c420001 	sltiu	$v0,$v0,1
  40ac60:	24020001 	li	$v0,1
  40ac64:	8fbf0014 	lw	$ra,20($sp)
  40ac68:	27bd0020 	addiu	$sp,$sp,32
  40ac6c:	03e00008 	jr	$ra
	...
  40ac80:	24020030 	li	$v0,48
  40ac84:	28a10064 	slti	$at,$a1,100
  40ac88:	14200007 	bnez	$at,40aca8 <__fislockfile+0xac>
  40ac8c:	a082000d 	sb	$v0,13($a0)
  40ac90:	908e000d 	lbu	$t6,13($a0)
  40ac94:	24a5ff9c 	addiu	$a1,$a1,-100
  40ac98:	28a10064 	slti	$at,$a1,100
  40ac9c:	25cf0001 	addiu	$t7,$t6,1
  40aca0:	1020fffb 	beqz	$at,40ac90 <__fislockfile+0x94>
  40aca4:	a08f000d 	sb	$t7,13($a0)
  40aca8:	28a1000a 	slti	$at,$a1,10
  40acac:	14200007 	bnez	$at,40accc <__fislockfile+0xd0>
  40acb0:	a082000e 	sb	$v0,14($a0)
  40acb4:	9098000e 	lbu	$t8,14($a0)
  40acb8:	24a5fff6 	addiu	$a1,$a1,-10
  40acbc:	28a1000a 	slti	$at,$a1,10
  40acc0:	27190001 	addiu	$t9,$t8,1
  40acc4:	1020fffb 	beqz	$at,40acb4 <__fislockfile+0xb8>
  40acc8:	a099000e 	sb	$t9,14($a0)
  40accc:	24a80030 	addiu	$t0,$a1,48
  40acd0:	03e00008 	jr	$ra
  40acd4:	a088000f 	sb	$t0,15($a0)

0040acd8 <_ushardlock_create>:
  40acd8:	27bdffa8 	addiu	$sp,$sp,-88
  40acdc:	afb00020 	sw	$s0,32($sp)
  40ace0:	afa5005c 	sw	$a1,92($sp)
  40ace4:	afa60060 	sw	$a2,96($sp)
  40ace8:	afbf0024 	sw	$ra,36($sp)
  40acec:	afa70064 	sw	$a3,100($sp)
  40acf0:	3c0f0042 	lui	$t7,0x42
  40acf4:	25efa640 	addiu	$t7,$t7,-22976
  40acf8:	8de10000 	lw	$at,0($t7)
  40acfc:	27ae0044 	addiu	$t6,$sp,68
  40ad00:	adc10000 	sw	$at,0($t6)
  40ad04:	8de10008 	lw	$at,8($t7)
  40ad08:	8de80004 	lw	$t0,4($t7)
  40ad0c:	adc10008 	sw	$at,8($t6)
  40ad10:	adc80004 	sw	$t0,4($t6)
  40ad14:	8de8000c 	lw	$t0,12($t7)
  40ad18:	91e10010 	lbu	$at,16($t7)
  40ad1c:	00808025 	move	$s0,$a0
  40ad20:	00a03025 	move	$a2,$a1
  40ad24:	00a02025 	move	$a0,$a1
  40ad28:	3c05686c 	lui	$a1,0x686c
  40ad2c:	adc8000c 	sw	$t0,12($t6)
  40ad30:	a1c10010 	sb	$at,16($t6)
  40ad34:	afa00034 	sw	$zero,52($sp)
  40ad38:	afa6005c 	sw	$a2,92($sp)
  40ad3c:	0c10329c 	jal	40ca70 <_ioctl>
  40ad40:	34a56167 	ori	$a1,$a1,0x6167
  40ad44:	1c400009 	bgtz	$v0,40ad6c <_ushardlock_create+0x94>
  40ad48:	00403825 	move	$a3,$v0
  40ad4c:	8f898a30 	lw	$t1,-30160($gp)
  40ad50:	24040001 	li	$a0,1
  40ad54:	11200003 	beqz	$t1,40ad64 <_ushardlock_create+0x8c>
  40ad58:	3c050042 	lui	$a1,0x42
  40ad5c:	0c103f10 	jal	40fc40 <_uprint>
  40ad60:	24a5a654 	addiu	$a1,$a1,-22956
  40ad64:	10000089 	b	40af8c <_ushardlock_create+0x2b4>
  40ad68:	00001025 	move	$v0,$zero
  40ad6c:	8f8aaf30 	lw	$t2,-20688($gp)
  40ad70:	00002025 	move	$a0,$zero
  40ad74:	11400008 	beqz	$t2,40ad98 <_ushardlock_create+0xc0>
  40ad78:	3c050042 	lui	$a1,0x42
  40ad7c:	3c0b0020 	lui	$t3,0x20
  40ad80:	8d660e00 	lw	$a2,3584($t3)
  40ad84:	afa70040 	sw	$a3,64($sp)
  40ad88:	0c103f10 	jal	40fc40 <_uprint>
  40ad8c:	24a5a670 	addiu	$a1,$a1,-22928
  40ad90:	8fa70040 	lw	$a3,64($sp)
  40ad94:	00000000 	nop
  40ad98:	27a40044 	addiu	$a0,$sp,68
  40ad9c:	0c102b20 	jal	40ac80 <__fislockfile+0x84>
  40ada0:	00e02825 	move	$a1,$a3
  40ada4:	26040454 	addiu	$a0,$s0,1108
  40ada8:	0c10320c 	jal	40c830 <strcpy>
  40adac:	27a50044 	addiu	$a1,$sp,68
  40adb0:	8fa4005c 	lw	$a0,92($sp)
  40adb4:	3c05686c 	lui	$a1,0x686c
  40adb8:	34a57372 	ori	$a1,$a1,0x7372
  40adbc:	0c10329c 	jal	40ca70 <_ioctl>
  40adc0:	00003025 	move	$a2,$zero
  40adc4:	1c400009 	bgtz	$v0,40adec <_ushardlock_create+0x114>
  40adc8:	00402825 	move	$a1,$v0
  40adcc:	8f8c8a30 	lw	$t4,-30160($gp)
  40add0:	24040001 	li	$a0,1
  40add4:	11800003 	beqz	$t4,40ade4 <_ushardlock_create+0x10c>
  40add8:	3c050042 	lui	$a1,0x42
  40addc:	0c103f10 	jal	40fc40 <_uprint>
  40ade0:	24a5a6a0 	addiu	$a1,$a1,-22880
  40ade4:	10000069 	b	40af8c <_ushardlock_create+0x2b4>
  40ade8:	00001025 	move	$v0,$zero
  40adec:	8fa40060 	lw	$a0,96($sp)
  40adf0:	24060003 	li	$a2,3
  40adf4:	1080000a 	beqz	$a0,40ae20 <_ushardlock_create+0x148>
  40adf8:	24070001 	li	$a3,1
  40adfc:	8fb90064 	lw	$t9,100($sp)
  40ae00:	3c01003f 	lui	$at,0x3f
  40ae04:	3421ffff 	ori	$at,$at,0xffff
  40ae08:	00992021 	addu	$a0,$a0,$t9
  40ae0c:	00812021 	addu	$a0,$a0,$at
  40ae10:	240d0001 	li	$t5,1
  40ae14:	00047d82 	srl	$t7,$a0,0x16
  40ae18:	afad0034 	sw	$t5,52($sp)
  40ae1c:	000f2580 	sll	$a0,$t7,0x16
  40ae20:	8fa9005c 	lw	$t1,92($sp)
  40ae24:	afa00014 	sw	$zero,20($sp)
  40ae28:	afa40060 	sw	$a0,96($sp)
  40ae2c:	afa5003c 	sw	$a1,60($sp)
  40ae30:	0c1032a8 	jal	40caa0 <_mmap>
  40ae34:	afa90010 	sw	$t1,16($sp)
  40ae38:	2401ffff 	li	$at,-1
  40ae3c:	1441000a 	bne	$v0,$at,40ae68 <_ushardlock_create+0x190>
  40ae40:	ae020854 	sw	$v0,2132($s0)
  40ae44:	8f8a8a30 	lw	$t2,-30160($gp)
  40ae48:	24040001 	li	$a0,1
  40ae4c:	11400004 	beqz	$t2,40ae60 <_ushardlock_create+0x188>
  40ae50:	3c050042 	lui	$a1,0x42
  40ae54:	8fa60060 	lw	$a2,96($sp)
  40ae58:	0c103f10 	jal	40fc40 <_uprint>
  40ae5c:	24a5a6bc 	addiu	$a1,$a1,-22852
  40ae60:	1000004a 	b	40af8c <_ushardlock_create+0x2b4>
  40ae64:	00001025 	move	$v0,$zero
  40ae68:	8fab0034 	lw	$t3,52($sp)
  40ae6c:	8fac0060 	lw	$t4,96($sp)
  40ae70:	11600014 	beqz	$t3,40aec4 <_ushardlock_create+0x1ec>
  40ae74:	00000000 	nop
  40ae78:	8e040854 	lw	$a0,2132($s0)
  40ae7c:	8fa5003c 	lw	$a1,60($sp)
  40ae80:	11840010 	beq	$t4,$a0,40aec4 <_ushardlock_create+0x1ec>
  40ae84:	00000000 	nop
  40ae88:	0c1032b4 	jal	40cad0 <_munmap>
  40ae8c:	00000000 	nop
  40ae90:	8f8d8a30 	lw	$t5,-30160($gp)
  40ae94:	00002025 	move	$a0,$zero
  40ae98:	11a00006 	beqz	$t5,40aeb4 <_ushardlock_create+0x1dc>
  40ae9c:	3c050042 	lui	$a1,0x42
  40aea0:	3c190020 	lui	$t9,0x20
  40aea4:	8f270e00 	lw	$a3,3584($t9)
  40aea8:	8fa60060 	lw	$a2,96($sp)
  40aeac:	0c103f10 	jal	40fc40 <_uprint>
  40aeb0:	24a5a6e8 	addiu	$a1,$a1,-22808
  40aeb4:	0c101ebd 	jal	407af4 <_setoserror>
  40aeb8:	24040010 	li	$a0,16
  40aebc:	10000033 	b	40af8c <_ushardlock_create+0x2b4>
  40aec0:	00001025 	move	$v0,$zero
  40aec4:	8f98af30 	lw	$t8,-20688($gp)
  40aec8:	00002025 	move	$a0,$zero
  40aecc:	13000006 	beqz	$t8,40aee8 <_ushardlock_create+0x210>
  40aed0:	3c050042 	lui	$a1,0x42
  40aed4:	3c0e0020 	lui	$t6,0x20
  40aed8:	8dc60e00 	lw	$a2,3584($t6)
  40aedc:	8e070854 	lw	$a3,2132($s0)
  40aee0:	0c103f10 	jal	40fc40 <_uprint>
  40aee4:	24a5a744 	addiu	$a1,$a1,-22716
  40aee8:	8fa4005c 	lw	$a0,92($sp)
  40aeec:	3c05686c 	lui	$a1,0x686c
  40aef0:	34a5616c 	ori	$a1,$a1,0x616c
  40aef4:	0c10329c 	jal	40ca70 <_ioctl>
  40aef8:	27a60038 	addiu	$a2,$sp,56
  40aefc:	2401ffff 	li	$at,-1
  40af00:	1441000f 	bne	$v0,$at,40af40 <_ushardlock_create+0x268>
  40af04:	26040858 	addiu	$a0,$s0,2136
  40af08:	8f8f8a30 	lw	$t7,-30160($gp)
  40af0c:	24040001 	li	$a0,1
  40af10:	11e00003 	beqz	$t7,40af20 <_ushardlock_create+0x248>
  40af14:	3c050042 	lui	$a1,0x42
  40af18:	0c103f10 	jal	40fc40 <_uprint>
  40af1c:	24a5a770 	addiu	$a1,$a1,-22672
  40af20:	8e040854 	lw	$a0,2132($s0)
  40af24:	8fa5003c 	lw	$a1,60($sp)
  40af28:	0c1032b4 	jal	40cad0 <_munmap>
  40af2c:	00000000 	nop
  40af30:	2408ffff 	li	$t0,-1
  40af34:	ae080854 	sw	$t0,2132($s0)
  40af38:	10000014 	b	40af8c <_ushardlock_create+0x2b4>
  40af3c:	00001025 	move	$v0,$zero
  40af40:	8fa90038 	lw	$t1,56($sp)
  40af44:	00002825 	move	$a1,$zero
  40af48:	ae090450 	sw	$t1,1104($s0)
  40af4c:	afa4002c 	sw	$a0,44($sp)
  40af50:	0c1033d4 	jal	40cf50 <_bfclr>
  40af54:	24061000 	li	$a2,4096
  40af58:	8fa4002c 	lw	$a0,44($sp)
  40af5c:	0c1033a8 	jal	40cea0 <_bset>
  40af60:	00002825 	move	$a1,$zero
  40af64:	8e0a0854 	lw	$t2,2132($s0)
  40af68:	24050001 	li	$a1,1
  40af6c:	ae0a0a58 	sw	$t2,2648($s0)
  40af70:	8fa4002c 	lw	$a0,44($sp)
  40af74:	0c1033a8 	jal	40cea0 <_bset>
  40af78:	00000000 	nop
  40af7c:	8e0b0854 	lw	$t3,2132($s0)
  40af80:	24020001 	li	$v0,1
  40af84:	256c0004 	addiu	$t4,$t3,4
  40af88:	ae0c0000 	sw	$t4,0($s0)
  40af8c:	8fbf0024 	lw	$ra,36($sp)
  40af90:	8fb00020 	lw	$s0,32($sp)
  40af94:	03e00008 	jr	$ra
  40af98:	27bd0058 	addiu	$sp,$sp,88

0040af9c <_ushardlock_attach>:
  40af9c:	27bdffd0 	addiu	$sp,$sp,-48
  40afa0:	8f8eaf30 	lw	$t6,-20688($gp)
  40afa4:	afbf001c 	sw	$ra,28($sp)
  40afa8:	afa40030 	sw	$a0,48($sp)
  40afac:	afa50034 	sw	$a1,52($sp)
  40afb0:	11c00008 	beqz	$t6,40afd4 <_ushardlock_attach+0x38>
  40afb4:	afa00024 	sw	$zero,36($sp)
  40afb8:	3c0f0020 	lui	$t7,0x20
  40afbc:	8de60e00 	lw	$a2,3584($t7)
  40afc0:	3c050042 	lui	$a1,0x42
  40afc4:	8fa70030 	lw	$a3,48($sp)
  40afc8:	24a5a794 	addiu	$a1,$a1,-22636
  40afcc:	0c103f10 	jal	40fc40 <_uprint>
  40afd0:	00002025 	move	$a0,$zero
  40afd4:	8fa40030 	lw	$a0,48($sp)
  40afd8:	0c1032c0 	jal	40cb00 <_open>
  40afdc:	24050002 	li	$a1,2
  40afe0:	0441000a 	bgez	$v0,40b00c <_ushardlock_attach+0x70>
  40afe4:	00402025 	move	$a0,$v0
  40afe8:	8f988a30 	lw	$t8,-30160($gp)
  40afec:	24040001 	li	$a0,1
  40aff0:	13000004 	beqz	$t8,40b004 <_ushardlock_attach+0x68>
  40aff4:	3c050042 	lui	$a1,0x42
  40aff8:	8fa60030 	lw	$a2,48($sp)
  40affc:	0c103f10 	jal	40fc40 <_uprint>
  40b000:	24a5a7c8 	addiu	$a1,$a1,-22584
  40b004:	1000005d 	b	40b17c <_ushardlock_attach+0x1e0>
  40b008:	2402ffff 	li	$v0,-1
  40b00c:	24050002 	li	$a1,2
  40b010:	24060001 	li	$a2,1
  40b014:	0c103290 	jal	40ca40 <_fcntl>
  40b018:	afa4002c 	sw	$a0,44($sp)
  40b01c:	8fa4002c 	lw	$a0,44($sp)
  40b020:	3c05686c 	lui	$a1,0x686c
  40b024:	34a57372 	ori	$a1,$a1,0x7372
  40b028:	0c10329c 	jal	40ca70 <_ioctl>
  40b02c:	00003025 	move	$a2,$zero
  40b030:	1c40000c 	bgtz	$v0,40b064 <_ushardlock_attach+0xc8>
  40b034:	00402825 	move	$a1,$v0
  40b038:	8f998a30 	lw	$t9,-30160($gp)
  40b03c:	24040001 	li	$a0,1
  40b040:	13200003 	beqz	$t9,40b050 <_ushardlock_attach+0xb4>
  40b044:	3c050042 	lui	$a1,0x42
  40b048:	0c103f10 	jal	40fc40 <_uprint>
  40b04c:	24a5a7f0 	addiu	$a1,$a1,-22544
  40b050:	8fa4002c 	lw	$a0,44($sp)
  40b054:	0c101978 	jal	4065e0 <_close>
  40b058:	00000000 	nop
  40b05c:	10000047 	b	40b17c <_ushardlock_attach+0x1e0>
  40b060:	2402ffff 	li	$v0,-1
  40b064:	8fa80034 	lw	$t0,52($sp)
  40b068:	2401ffff 	li	$at,-1
  40b06c:	8d040000 	lw	$a0,0($t0)
  40b070:	24060003 	li	$a2,3
  40b074:	10810005 	beq	$a0,$at,40b08c <_ushardlock_attach+0xf0>
  40b078:	24070001 	li	$a3,1
  40b07c:	24090001 	li	$t1,1
  40b080:	afa90024 	sw	$t1,36($sp)
  40b084:	10000002 	b	40b090 <_ushardlock_attach+0xf4>
  40b088:	afa40020 	sw	$a0,32($sp)
  40b08c:	afa00020 	sw	$zero,32($sp)
  40b090:	8faa002c 	lw	$t2,44($sp)
  40b094:	8fa40020 	lw	$a0,32($sp)
  40b098:	afa00014 	sw	$zero,20($sp)
  40b09c:	afa50028 	sw	$a1,40($sp)
  40b0a0:	0c1032a8 	jal	40caa0 <_mmap>
  40b0a4:	afaa0010 	sw	$t2,16($sp)
  40b0a8:	8fab0034 	lw	$t3,52($sp)
  40b0ac:	8fa50028 	lw	$a1,40($sp)
  40b0b0:	2401ffff 	li	$at,-1
  40b0b4:	1441000c 	bne	$v0,$at,40b0e8 <_ushardlock_attach+0x14c>
  40b0b8:	ad620000 	sw	$v0,0($t3)
  40b0bc:	8f8c8a30 	lw	$t4,-30160($gp)
  40b0c0:	24040001 	li	$a0,1
  40b0c4:	11800003 	beqz	$t4,40b0d4 <_ushardlock_attach+0x138>
  40b0c8:	3c050042 	lui	$a1,0x42
  40b0cc:	0c103f10 	jal	40fc40 <_uprint>
  40b0d0:	24a5a80c 	addiu	$a1,$a1,-22516
  40b0d4:	8fa4002c 	lw	$a0,44($sp)
  40b0d8:	0c101978 	jal	4065e0 <_close>
  40b0dc:	00000000 	nop
  40b0e0:	10000026 	b	40b17c <_ushardlock_attach+0x1e0>
  40b0e4:	2402ffff 	li	$v0,-1
  40b0e8:	8fad0024 	lw	$t5,36($sp)
  40b0ec:	8fae0034 	lw	$t6,52($sp)
  40b0f0:	11a00016 	beqz	$t5,40b14c <_ushardlock_attach+0x1b0>
  40b0f4:	00000000 	nop
  40b0f8:	8dc40000 	lw	$a0,0($t6)
  40b0fc:	8faf0020 	lw	$t7,32($sp)
  40b100:	00000000 	nop
  40b104:	11e40011 	beq	$t7,$a0,40b14c <_ushardlock_attach+0x1b0>
  40b108:	00000000 	nop
  40b10c:	0c1032b4 	jal	40cad0 <_munmap>
  40b110:	00000000 	nop
  40b114:	8f988a30 	lw	$t8,-30160($gp)
  40b118:	00002025 	move	$a0,$zero
  40b11c:	13000004 	beqz	$t8,40b130 <_ushardlock_attach+0x194>
  40b120:	3c050042 	lui	$a1,0x42
  40b124:	8fa60020 	lw	$a2,32($sp)
  40b128:	0c103f10 	jal	40fc40 <_uprint>
  40b12c:	24a5a830 	addiu	$a1,$a1,-22480
  40b130:	8fa4002c 	lw	$a0,44($sp)
  40b134:	0c101978 	jal	4065e0 <_close>
  40b138:	00000000 	nop
  40b13c:	0c101ebd 	jal	407af4 <_setoserror>
  40b140:	24040010 	li	$a0,16
  40b144:	1000000d 	b	40b17c <_ushardlock_attach+0x1e0>
  40b148:	2402ffff 	li	$v0,-1
  40b14c:	8f99af30 	lw	$t9,-20688($gp)
  40b150:	00002025 	move	$a0,$zero
  40b154:	13200007 	beqz	$t9,40b174 <_ushardlock_attach+0x1d8>
  40b158:	3c050042 	lui	$a1,0x42
  40b15c:	8fa90034 	lw	$t1,52($sp)
  40b160:	3c080020 	lui	$t0,0x20
  40b164:	8d060e00 	lw	$a2,3584($t0)
  40b168:	8d270000 	lw	$a3,0($t1)
  40b16c:	0c103f10 	jal	40fc40 <_uprint>
  40b170:	24a5a874 	addiu	$a1,$a1,-22412
  40b174:	8fa2002c 	lw	$v0,44($sp)
  40b178:	00000000 	nop
  40b17c:	8fbf001c 	lw	$ra,28($sp)
  40b180:	27bd0030 	addiu	$sp,$sp,48
  40b184:	03e00008 	jr	$ra
  40b188:	00000000 	nop

0040b18c <_ushardlock_detach>:
  40b18c:	27bdffd8 	addiu	$sp,$sp,-40
  40b190:	8f8faf30 	lw	$t7,-20688($gp)
  40b194:	240e0001 	li	$t6,1
  40b198:	afbf0014 	sw	$ra,20($sp)
  40b19c:	afa40028 	sw	$a0,40($sp)
  40b1a0:	afa5002c 	sw	$a1,44($sp)
  40b1a4:	afa60030 	sw	$a2,48($sp)
  40b1a8:	11e00008 	beqz	$t7,40b1cc <_ushardlock_detach+0x40>
  40b1ac:	afae001c 	sw	$t6,28($sp)
  40b1b0:	3c180020 	lui	$t8,0x20
  40b1b4:	8f060e00 	lw	$a2,3584($t8)
  40b1b8:	3c050042 	lui	$a1,0x42
  40b1bc:	8fa70028 	lw	$a3,40($sp)
  40b1c0:	24a5a8a0 	addiu	$a1,$a1,-22368
  40b1c4:	0c103f10 	jal	40fc40 <_uprint>
  40b1c8:	00002025 	move	$a0,$zero
  40b1cc:	8fb90030 	lw	$t9,48($sp)
  40b1d0:	8fa90030 	lw	$t1,48($sp)
  40b1d4:	0721000e 	bgez	$t9,40b210 <_ushardlock_detach+0x84>
  40b1d8:	00000000 	nop
  40b1dc:	8fa40028 	lw	$a0,40($sp)
  40b1e0:	0c1032c0 	jal	40cb00 <_open>
  40b1e4:	24050002 	li	$a1,2
  40b1e8:	0441000a 	bgez	$v0,40b214 <_ushardlock_detach+0x88>
  40b1ec:	afa20024 	sw	$v0,36($sp)
  40b1f0:	8f888a30 	lw	$t0,-30160($gp)
  40b1f4:	24040001 	li	$a0,1
  40b1f8:	11000003 	beqz	$t0,40b208 <_ushardlock_detach+0x7c>
  40b1fc:	3c050042 	lui	$a1,0x42
  40b200:	0c103f10 	jal	40fc40 <_uprint>
  40b204:	24a5a8d4 	addiu	$a1,$a1,-22316
  40b208:	10000026 	b	40b2a4 <_ushardlock_detach+0x118>
  40b20c:	00001025 	move	$v0,$zero
  40b210:	afa90024 	sw	$t1,36($sp)
  40b214:	8fa40024 	lw	$a0,36($sp)
  40b218:	3c05686c 	lui	$a1,0x686c
  40b21c:	34a57372 	ori	$a1,$a1,0x7372
  40b220:	0c10329c 	jal	40ca70 <_ioctl>
  40b224:	00003025 	move	$a2,$zero
  40b228:	1c400009 	bgtz	$v0,40b250 <_ushardlock_detach+0xc4>
  40b22c:	00402825 	move	$a1,$v0
  40b230:	8f8a8a30 	lw	$t2,-30160($gp)
  40b234:	24040001 	li	$a0,1
  40b238:	11400003 	beqz	$t2,40b248 <_ushardlock_detach+0xbc>
  40b23c:	3c050042 	lui	$a1,0x42
  40b240:	0c103f10 	jal	40fc40 <_uprint>
  40b244:	24a5a8fc 	addiu	$a1,$a1,-22276
  40b248:	1000000e 	b	40b284 <_ushardlock_detach+0xf8>
  40b24c:	afa0001c 	sw	$zero,28($sp)
  40b250:	8fa4002c 	lw	$a0,44($sp)
  40b254:	0c1032b4 	jal	40cad0 <_munmap>
  40b258:	00000000 	nop
  40b25c:	2401ffff 	li	$at,-1
  40b260:	14410009 	bne	$v0,$at,40b288 <_ushardlock_detach+0xfc>
  40b264:	8fac0030 	lw	$t4,48($sp)
  40b268:	8f8b8a30 	lw	$t3,-30160($gp)
  40b26c:	24040001 	li	$a0,1
  40b270:	11600003 	beqz	$t3,40b280 <_ushardlock_detach+0xf4>
  40b274:	3c050042 	lui	$a1,0x42
  40b278:	0c103f10 	jal	40fc40 <_uprint>
  40b27c:	24a5a91c 	addiu	$a1,$a1,-22244
  40b280:	afa0001c 	sw	$zero,28($sp)
  40b284:	8fac0030 	lw	$t4,48($sp)
  40b288:	8fa40024 	lw	$a0,36($sp)
  40b28c:	05810004 	bgez	$t4,40b2a0 <_ushardlock_detach+0x114>
  40b290:	8fa2001c 	lw	$v0,28($sp)
  40b294:	0c101978 	jal	4065e0 <_close>
  40b298:	00000000 	nop
  40b29c:	8fa2001c 	lw	$v0,28($sp)
  40b2a0:	00000000 	nop
  40b2a4:	8fbf0014 	lw	$ra,20($sp)
  40b2a8:	27bd0028 	addiu	$sp,$sp,40
  40b2ac:	03e00008 	jr	$ra
  40b2b0:	00000000 	nop
  40b2b4:	27bdffd8 	addiu	$sp,$sp,-40
  40b2b8:	afbf0014 	sw	$ra,20($sp)
  40b2bc:	8c8e0450 	lw	$t6,1104($a0)
  40b2c0:	00803825 	move	$a3,$a0
  40b2c4:	29c11000 	slti	$at,$t6,4096
  40b2c8:	1420000b 	bnez	$at,40b2f8 <_ushardlock_detach+0x16c>
  40b2cc:	24e60454 	addiu	$a2,$a3,1108
  40b2d0:	0c101ebd 	jal	407af4 <_setoserror>
  40b2d4:	2404001c 	li	$a0,28
  40b2d8:	8f8f8a30 	lw	$t7,-30160($gp)
  40b2dc:	00002025 	move	$a0,$zero
  40b2e0:	11e00003 	beqz	$t7,40b2f0 <_ushardlock_detach+0x164>
  40b2e4:	3c050042 	lui	$a1,0x42
  40b2e8:	0c103f10 	jal	40fc40 <_uprint>
  40b2ec:	24a5a944 	addiu	$a1,$a1,-22204
  40b2f0:	10000030 	b	40b3b4 <_ushardlock_detach+0x228>
  40b2f4:	00001025 	move	$v0,$zero
  40b2f8:	00c02025 	move	$a0,$a2
  40b2fc:	24050002 	li	$a1,2
  40b300:	afa60018 	sw	$a2,24($sp)
  40b304:	0c1032c0 	jal	40cb00 <_open>
  40b308:	afa70028 	sw	$a3,40($sp)
  40b30c:	8fa60018 	lw	$a2,24($sp)
  40b310:	8fa70028 	lw	$a3,40($sp)
  40b314:	04410009 	bgez	$v0,40b33c <_ushardlock_detach+0x1b0>
  40b318:	00402025 	move	$a0,$v0
  40b31c:	8f988a30 	lw	$t8,-30160($gp)
  40b320:	24040001 	li	$a0,1
  40b324:	13000003 	beqz	$t8,40b334 <_ushardlock_detach+0x1a8>
  40b328:	3c050042 	lui	$a1,0x42
  40b32c:	0c103f10 	jal	40fc40 <_uprint>
  40b330:	24a5a968 	addiu	$a1,$a1,-22168
  40b334:	1000001f 	b	40b3b4 <_ushardlock_detach+0x228>
  40b338:	00001025 	move	$v0,$zero
  40b33c:	3c05686c 	lui	$a1,0x686c
  40b340:	34a5616c 	ori	$a1,$a1,0x616c
  40b344:	27a6001c 	addiu	$a2,$sp,28
  40b348:	afa40024 	sw	$a0,36($sp)
  40b34c:	0c10329c 	jal	40ca70 <_ioctl>
  40b350:	afa70028 	sw	$a3,40($sp)
  40b354:	8fa70028 	lw	$a3,40($sp)
  40b358:	2401ffff 	li	$at,-1
  40b35c:	1441000c 	bne	$v0,$at,40b390 <_ushardlock_detach+0x204>
  40b360:	00000000 	nop
  40b364:	8f998a30 	lw	$t9,-30160($gp)
  40b368:	24040001 	li	$a0,1
  40b36c:	13200003 	beqz	$t9,40b37c <_ushardlock_detach+0x1f0>
  40b370:	3c050042 	lui	$a1,0x42
  40b374:	0c103f10 	jal	40fc40 <_uprint>
  40b378:	24a5a98c 	addiu	$a1,$a1,-22132
  40b37c:	8fa40024 	lw	$a0,36($sp)
  40b380:	0c101978 	jal	4065e0 <_close>
  40b384:	00000000 	nop
  40b388:	1000000a 	b	40b3b4 <_ushardlock_detach+0x228>
  40b38c:	00001025 	move	$v0,$zero
  40b390:	8ce80450 	lw	$t0,1104($a3)
  40b394:	8fa9001c 	lw	$t1,28($sp)
  40b398:	00000000 	nop
  40b39c:	01095021 	addu	$t2,$t0,$t1
  40b3a0:	acea0450 	sw	$t2,1104($a3)
  40b3a4:	8fa40024 	lw	$a0,36($sp)
  40b3a8:	0c101978 	jal	4065e0 <_close>
  40b3ac:	00000000 	nop
  40b3b0:	24020001 	li	$v0,1
  40b3b4:	8fbf0014 	lw	$ra,20($sp)
  40b3b8:	27bd0028 	addiu	$sp,$sp,40
  40b3bc:	03e00008 	jr	$ra
  40b3c0:	00000000 	nop
  40b3c4:	27bdffd0 	addiu	$sp,$sp,-48
  40b3c8:	afb00018 	sw	$s0,24($sp)
  40b3cc:	00808025 	move	$s0,$a0
  40b3d0:	afbf001c 	sw	$ra,28($sp)
  40b3d4:	8c840a58 	lw	$a0,2648($a0)
  40b3d8:	0c102d7e 	jal	40b5f8 <_ushardlock_detach+0x46c>
  40b3dc:	00000000 	nop
  40b3e0:	26040858 	addiu	$a0,$s0,2136
  40b3e4:	8e060450 	lw	$a2,1104($s0)
  40b3e8:	afa40024 	sw	$a0,36($sp)
  40b3ec:	0c1033e6 	jal	40cf98 <_bftstset>
  40b3f0:	00002825 	move	$a1,$zero
  40b3f4:	afa20028 	sw	$v0,40($sp)
  40b3f8:	8e0e0450 	lw	$t6,1104($s0)
  40b3fc:	00000000 	nop
  40b400:	004e082a 	slt	$at,$v0,$t6
  40b404:	1420000b 	bnez	$at,40b434 <_ushardlock_detach+0x2a8>
  40b408:	8fa40024 	lw	$a0,36($sp)
  40b40c:	0c102cad 	jal	40b2b4 <_ushardlock_detach+0x128>
  40b410:	02002025 	move	$a0,$s0
  40b414:	14400007 	bnez	$v0,40b434 <_ushardlock_detach+0x2a8>
  40b418:	8fa40024 	lw	$a0,36($sp)
  40b41c:	8e040a58 	lw	$a0,2648($s0)
  40b420:	0c102da2 	jal	40b688 <_ushardlock_detach+0x4fc>
  40b424:	00000000 	nop
  40b428:	10000017 	b	40b488 <_ushardlock_detach+0x2fc>
  40b42c:	00001025 	move	$v0,$zero
  40b430:	8fa40024 	lw	$a0,36($sp)
  40b434:	8fa50028 	lw	$a1,40($sp)
  40b438:	0c1033a8 	jal	40cea0 <_bset>
  40b43c:	00000000 	nop
  40b440:	8e040a58 	lw	$a0,2648($s0)
  40b444:	0c102da2 	jal	40b688 <_ushardlock_detach+0x4fc>
  40b448:	00000000 	nop
  40b44c:	8fb80028 	lw	$t8,40($sp)
  40b450:	8e0f0854 	lw	$t7,2132($s0)
  40b454:	07010003 	bgez	$t8,40b464 <_ushardlock_detach+0x2d8>
  40b458:	0018c983 	sra	$t9,$t8,0x6
  40b45c:	2701003f 	addiu	$at,$t8,63
  40b460:	0001c983 	sra	$t9,$at,0x6
  40b464:	00194340 	sll	$t0,$t9,0xd
  40b468:	01e84821 	addu	$t1,$t7,$t0
  40b46c:	07010004 	bgez	$t8,40b480 <_ushardlock_detach+0x2f4>
  40b470:	330a003f 	andi	$t2,$t8,0x3f
  40b474:	11400002 	beqz	$t2,40b480 <_ushardlock_detach+0x2f4>
  40b478:	00000000 	nop
  40b47c:	254affc0 	addiu	$t2,$t2,-64
  40b480:	000a5880 	sll	$t3,$t2,0x2
  40b484:	012b1021 	addu	$v0,$t1,$t3
  40b488:	8fbf001c 	lw	$ra,28($sp)
  40b48c:	8fb00018 	lw	$s0,24($sp)
  40b490:	03e00008 	jr	$ra
  40b494:	27bd0030 	addiu	$sp,$sp,48
  40b498:	ac800000 	sw	$zero,0($a0)
  40b49c:	03e00008 	jr	$ra
  40b4a0:	00001025 	move	$v0,$zero
  40b4a4:	27bdffe8 	addiu	$sp,$sp,-24
  40b4a8:	afbf0014 	sw	$ra,20($sp)
  40b4ac:	afa40018 	sw	$a0,24($sp)
  40b4b0:	0c102da2 	jal	40b688 <_ushardlock_detach+0x4fc>
  40b4b4:	afa5001c 	sw	$a1,28($sp)
  40b4b8:	8fae001c 	lw	$t6,28($sp)
  40b4bc:	00000000 	nop
  40b4c0:	8dc40a58 	lw	$a0,2648($t6)
  40b4c4:	0c102d7e 	jal	40b5f8 <_ushardlock_detach+0x46c>
  40b4c8:	00000000 	nop
  40b4cc:	8fa3001c 	lw	$v1,28($sp)
  40b4d0:	8faf0018 	lw	$t7,24($sp)
  40b4d4:	8c780854 	lw	$t8,2132($v1)
  40b4d8:	24640858 	addiu	$a0,$v1,2136
  40b4dc:	01f81023 	subu	$v0,$t7,$t8
  40b4e0:	00024883 	sra	$t1,$v0,0x2
  40b4e4:	04410003 	bgez	$v0,40b4f4 <_ushardlock_detach+0x368>
  40b4e8:	0002cb43 	sra	$t9,$v0,0xd
  40b4ec:	24411fff 	addiu	$at,$v0,8191
  40b4f0:	0001cb43 	sra	$t9,$at,0xd
  40b4f4:	00194180 	sll	$t0,$t9,0x6
  40b4f8:	05210004 	bgez	$t1,40b50c <_ushardlock_detach+0x380>
  40b4fc:	312a003f 	andi	$t2,$t1,0x3f
  40b500:	11400002 	beqz	$t2,40b50c <_ushardlock_detach+0x380>
  40b504:	00000000 	nop
  40b508:	254affc0 	addiu	$t2,$t2,-64
  40b50c:	0c1033b1 	jal	40cec4 <_bclr>
  40b510:	010a2821 	addu	$a1,$t0,$t2
  40b514:	8fab001c 	lw	$t3,28($sp)
  40b518:	00000000 	nop
  40b51c:	8d640a58 	lw	$a0,2648($t3)
  40b520:	0c102da2 	jal	40b688 <_ushardlock_detach+0x4fc>
  40b524:	00000000 	nop
  40b528:	8fbf0014 	lw	$ra,20($sp)
  40b52c:	27bd0018 	addiu	$sp,$sp,24
  40b530:	03e00008 	jr	$ra
  40b534:	00000000 	nop
  40b538:	27bdffe0 	addiu	$sp,$sp,-32
  40b53c:	afb10018 	sw	$s1,24($sp)
  40b540:	afb00014 	sw	$s0,20($sp)
  40b544:	00808025 	move	$s0,$a0
  40b548:	00a08825 	move	$s1,$a1
  40b54c:	afbf001c 	sw	$ra,28($sp)
  40b550:	02002025 	move	$a0,$s0
  40b554:	0c102d64 	jal	40b590 <_ushardlock_detach+0x404>
  40b558:	02202825 	move	$a1,$s1
  40b55c:	10400003 	beqz	$v0,40b56c <_ushardlock_detach+0x3e0>
  40b560:	00000000 	nop
  40b564:	10000005 	b	40b57c <_ushardlock_detach+0x3f0>
  40b568:	24020001 	li	$v0,1
  40b56c:	0c1032ec 	jal	40cbb0 <_sginap>
  40b570:	00002025 	move	$a0,$zero
  40b574:	1000fff7 	b	40b554 <_ushardlock_detach+0x3c8>
  40b578:	02002025 	move	$a0,$s0
  40b57c:	8fbf001c 	lw	$ra,28($sp)
  40b580:	8fb00014 	lw	$s0,20($sp)
  40b584:	8fb10018 	lw	$s1,24($sp)
  40b588:	03e00008 	jr	$ra
  40b58c:	27bd0020 	addiu	$sp,$sp,32
  40b590:	8c8e0000 	lw	$t6,0($a0)
  40b594:	24020001 	li	$v0,1
  40b598:	31cf0001 	andi	$t7,$t6,0x1
  40b59c:	11e0000a 	beqz	$t7,40b5c8 <_ushardlock_detach+0x43c>
  40b5a0:	24a5ffff 	addiu	$a1,$a1,-1
  40b5a4:	14a00003 	bnez	$a1,40b5b4 <_ushardlock_detach+0x428>
  40b5a8:	00000000 	nop
  40b5ac:	03e00008 	jr	$ra
  40b5b0:	00001025 	move	$v0,$zero
  40b5b4:	8c980000 	lw	$t8,0($a0)
  40b5b8:	00000000 	nop
  40b5bc:	33190001 	andi	$t9,$t8,0x1
  40b5c0:	1720fff8 	bnez	$t9,40b5a4 <_ushardlock_detach+0x418>
  40b5c4:	24a5ffff 	addiu	$a1,$a1,-1
  40b5c8:	03e00008 	jr	$ra
  40b5cc:	00000000 	nop
  40b5d0:	8c8e0000 	lw	$t6,0($a0)
  40b5d4:	24020001 	li	$v0,1
  40b5d8:	31cf0001 	andi	$t7,$t6,0x1
  40b5dc:	15e00004 	bnez	$t7,40b5f0 <_ushardlock_detach+0x464>
  40b5e0:	00000000 	nop
  40b5e4:	ac800000 	sw	$zero,0($a0)
  40b5e8:	03e00008 	jr	$ra
  40b5ec:	00001025 	move	$v0,$zero
  40b5f0:	03e00008 	jr	$ra
  40b5f4:	00000000 	nop
  40b5f8:	27bdffe0 	addiu	$sp,$sp,-32
  40b5fc:	afb10018 	sw	$s1,24($sp)
  40b600:	00808825 	move	$s1,$a0
  40b604:	afbf001c 	sw	$ra,28($sp)
  40b608:	afb00014 	sw	$s0,20($sp)
  40b60c:	8e2e0000 	lw	$t6,0($s1)
  40b610:	8f9080f4 	lw	$s0,-32524($gp)
  40b614:	8f8280f0 	lw	$v0,-32528($gp)
  40b618:	31cf0001 	andi	$t7,$t6,0x1
  40b61c:	11e00014 	beqz	$t7,40b670 <_ushardlock_detach+0x4e4>
  40b620:	2442ffff 	addiu	$v0,$v0,-1
  40b624:	1440000d 	bnez	$v0,40b65c <_ushardlock_detach+0x4d0>
  40b628:	00000000 	nop
  40b62c:	2610ffff 	addiu	$s0,$s0,-1
  40b630:	16000006 	bnez	$s0,40b64c <_ushardlock_detach+0x4c0>
  40b634:	00000000 	nop
  40b638:	0c1032ec 	jal	40cbb0 <_sginap>
  40b63c:	24040001 	li	$a0,1
  40b640:	8f9080f4 	lw	$s0,-32524($gp)
  40b644:	10000003 	b	40b654 <_ushardlock_detach+0x4c8>
  40b648:	00000000 	nop
  40b64c:	0c1032ec 	jal	40cbb0 <_sginap>
  40b650:	00002025 	move	$a0,$zero
  40b654:	8f8280f0 	lw	$v0,-32528($gp)
  40b658:	00000000 	nop
  40b65c:	8e380000 	lw	$t8,0($s1)
  40b660:	00000000 	nop
  40b664:	33190001 	andi	$t9,$t8,0x1
  40b668:	1720ffee 	bnez	$t9,40b624 <_ushardlock_detach+0x498>
  40b66c:	2442ffff 	addiu	$v0,$v0,-1
  40b670:	8fbf001c 	lw	$ra,28($sp)
  40b674:	8fb00014 	lw	$s0,20($sp)
  40b678:	8fb10018 	lw	$s1,24($sp)
  40b67c:	27bd0020 	addiu	$sp,$sp,32
  40b680:	03e00008 	jr	$ra
  40b684:	24020001 	li	$v0,1
  40b688:	ac800000 	sw	$zero,0($a0)
  40b68c:	03e00008 	jr	$ra
  40b690:	00001025 	move	$v0,$zero
  40b694:	afa40000 	sw	$a0,0($sp)
  40b698:	afa50004 	sw	$a1,4($sp)
  40b69c:	afa60008 	sw	$a2,8($sp)
  40b6a0:	03e00008 	jr	$ra
  40b6a4:	00001025 	move	$v0,$zero
  40b6a8:	27bdffe0 	addiu	$sp,$sp,-32
  40b6ac:	afbf0014 	sw	$ra,20($sp)
  40b6b0:	afa40020 	sw	$a0,32($sp)
  40b6b4:	afa50024 	sw	$a1,36($sp)
  40b6b8:	afa60028 	sw	$a2,40($sp)
  40b6bc:	afa7002c 	sw	$a3,44($sp)
  40b6c0:	0c101ebd 	jal	407af4 <_setoserror>
  40b6c4:	24040016 	li	$a0,22
  40b6c8:	8fbf0014 	lw	$ra,20($sp)
  40b6cc:	27bd0020 	addiu	$sp,$sp,32
  40b6d0:	03e00008 	jr	$ra
  40b6d4:	2402ffff 	li	$v0,-1
  40b6d8:	27bdffe0 	addiu	$sp,$sp,-32
  40b6dc:	afb10018 	sw	$s1,24($sp)
  40b6e0:	00808825 	move	$s1,$a0
  40b6e4:	afbf001c 	sw	$ra,28($sp)
  40b6e8:	afb00014 	sw	$s0,20($sp)
  40b6ec:	02202825 	move	$a1,$s1
  40b6f0:	0c102fa8 	jal	40bea0 <_usmalloc>
  40b6f4:	2404001c 	li	$a0,28
  40b6f8:	14400005 	bnez	$v0,40b710 <_ushardlock_detach+0x584>
  40b6fc:	00408025 	move	$s0,$v0
  40b700:	0c101ebd 	jal	407af4 <_setoserror>
  40b704:	2404000c 	li	$a0,12
  40b708:	10000040 	b	40b80c <_ushardlock_detach+0x680>
  40b70c:	00001025 	move	$v0,$zero
  40b710:	a4400012 	sh	$zero,18($v0)
  40b714:	ac510000 	sw	$s1,0($v0)
  40b718:	ac400014 	sw	$zero,20($v0)
  40b71c:	ac400018 	sw	$zero,24($v0)
  40b720:	ac400004 	sw	$zero,4($v0)
  40b724:	8e2e044c 	lw	$t6,1100($s1)
  40b728:	24040004 	li	$a0,4
  40b72c:	11c0001f 	beqz	$t6,40b7ac <_ushardlock_detach+0x620>
  40b730:	00000000 	nop
  40b734:	0c102fa8 	jal	40bea0 <_usmalloc>
  40b738:	02202825 	move	$a1,$s1
  40b73c:	14400008 	bnez	$v0,40b760 <_ushardlock_detach+0x5d4>
  40b740:	ae020018 	sw	$v0,24($s0)
  40b744:	02002025 	move	$a0,$s0
  40b748:	0c102fb1 	jal	40bec4 <_usfree>
  40b74c:	02202825 	move	$a1,$s1
  40b750:	0c101ebd 	jal	407af4 <_setoserror>
  40b754:	2404000c 	li	$a0,12
  40b758:	1000002c 	b	40b80c <_ushardlock_detach+0x680>
  40b75c:	00001025 	move	$v0,$zero
  40b760:	2404000c 	li	$a0,12
  40b764:	0c102fa8 	jal	40bea0 <_usmalloc>
  40b768:	02202825 	move	$a1,$s1
  40b76c:	1440000b 	bnez	$v0,40b79c <_ushardlock_detach+0x610>
  40b770:	ae020014 	sw	$v0,20($s0)
  40b774:	8e040018 	lw	$a0,24($s0)
  40b778:	0c102fb1 	jal	40bec4 <_usfree>
  40b77c:	02202825 	move	$a1,$s1
  40b780:	02002025 	move	$a0,$s0
  40b784:	0c102fb1 	jal	40bec4 <_usfree>
  40b788:	02202825 	move	$a1,$s1
  40b78c:	0c101ebd 	jal	407af4 <_setoserror>
  40b790:	2404000c 	li	$a0,12
  40b794:	1000001d 	b	40b80c <_ushardlock_detach+0x680>
  40b798:	00001025 	move	$v0,$zero
  40b79c:	960f0012 	lhu	$t7,18($s0)
  40b7a0:	00000000 	nop
  40b7a4:	35f80003 	ori	$t8,$t7,0x3
  40b7a8:	a6180012 	sh	$t8,18($s0)
  40b7ac:	0c102cf1 	jal	40b3c4 <_ushardlock_detach+0x238>
  40b7b0:	02202025 	move	$a0,$s1
  40b7b4:	14400012 	bnez	$v0,40b800 <_ushardlock_detach+0x674>
  40b7b8:	ae020008 	sw	$v0,8($s0)
  40b7bc:	8e040018 	lw	$a0,24($s0)
  40b7c0:	00000000 	nop
  40b7c4:	10800003 	beqz	$a0,40b7d4 <_ushardlock_detach+0x648>
  40b7c8:	00000000 	nop
  40b7cc:	0c102fb1 	jal	40bec4 <_usfree>
  40b7d0:	02202825 	move	$a1,$s1
  40b7d4:	8e040014 	lw	$a0,20($s0)
  40b7d8:	00000000 	nop
  40b7dc:	10800003 	beqz	$a0,40b7ec <_ushardlock_detach+0x660>
  40b7e0:	00000000 	nop
  40b7e4:	0c102fb1 	jal	40bec4 <_usfree>
  40b7e8:	02202825 	move	$a1,$s1
  40b7ec:	02002025 	move	$a0,$s0
  40b7f0:	0c102fb1 	jal	40bec4 <_usfree>
  40b7f4:	02202825 	move	$a1,$s1
  40b7f8:	10000004 	b	40b80c <_ushardlock_detach+0x680>
  40b7fc:	00001025 	move	$v0,$zero
  40b800:	0c102e08 	jal	40b820 <_ushardlock_detach+0x694>
  40b804:	02002025 	move	$a0,$s0
  40b808:	02001025 	move	$v0,$s0
  40b80c:	8fbf001c 	lw	$ra,28($sp)
  40b810:	8fb00014 	lw	$s0,20($sp)
  40b814:	8fb10018 	lw	$s1,24($sp)
  40b818:	03e00008 	jr	$ra
  40b81c:	27bd0020 	addiu	$sp,$sp,32
  40b820:	8c8e0008 	lw	$t6,8($a0)
  40b824:	ac800004 	sw	$zero,4($a0)
  40b828:	adc00000 	sw	$zero,0($t6)
  40b82c:	94820012 	lhu	$v0,18($a0)
  40b830:	00000000 	nop
  40b834:	10400014 	beqz	$v0,40b888 <_ushardlock_detach+0x6fc>
  40b838:	304f0001 	andi	$t7,$v0,0x1
  40b83c:	11e0000c 	beqz	$t7,40b870 <_ushardlock_detach+0x6e4>
  40b840:	00401825 	move	$v1,$v0
  40b844:	8c980014 	lw	$t8,20($a0)
  40b848:	00000000 	nop
  40b84c:	af000000 	sw	$zero,0($t8)
  40b850:	8c990014 	lw	$t9,20($a0)
  40b854:	00000000 	nop
  40b858:	af200004 	sw	$zero,4($t9)
  40b85c:	8c880014 	lw	$t0,20($a0)
  40b860:	00000000 	nop
  40b864:	ad000008 	sw	$zero,8($t0)
  40b868:	94830012 	lhu	$v1,18($a0)
  40b86c:	00000000 	nop
  40b870:	30690002 	andi	$t1,$v1,0x2
  40b874:	11200004 	beqz	$t1,40b888 <_ushardlock_detach+0x6fc>
  40b878:	00000000 	nop
  40b87c:	8c8b0018 	lw	$t3,24($a0)
  40b880:	240affff 	li	$t2,-1
  40b884:	ad6a0000 	sw	$t2,0($t3)
  40b888:	03e00008 	jr	$ra
  40b88c:	00001025 	move	$v0,$zero
  40b890:	27bdffe0 	addiu	$sp,$sp,-32
  40b894:	afbf001c 	sw	$ra,28($sp)
  40b898:	afb00018 	sw	$s0,24($sp)
  40b89c:	afa50024 	sw	$a1,36($sp)
  40b8a0:	94830012 	lhu	$v1,18($a0)
  40b8a4:	00808025 	move	$s0,$a0
  40b8a8:	10600010 	beqz	$v1,40b8ec <_ushardlock_detach+0x760>
  40b8ac:	306e0001 	andi	$t6,$v1,0x1
  40b8b0:	11c00007 	beqz	$t6,40b8d0 <_ushardlock_detach+0x744>
  40b8b4:	00601025 	move	$v0,$v1
  40b8b8:	8c840014 	lw	$a0,20($a0)
  40b8bc:	8e050000 	lw	$a1,0($s0)
  40b8c0:	0c102fb1 	jal	40bec4 <_usfree>
  40b8c4:	00000000 	nop
  40b8c8:	96020012 	lhu	$v0,18($s0)
  40b8cc:	00000000 	nop
  40b8d0:	304f0002 	andi	$t7,$v0,0x2
  40b8d4:	11e00005 	beqz	$t7,40b8ec <_ushardlock_detach+0x760>
  40b8d8:	00000000 	nop
  40b8dc:	8e040018 	lw	$a0,24($s0)
  40b8e0:	8e050000 	lw	$a1,0($s0)
  40b8e4:	0c102fb1 	jal	40bec4 <_usfree>
  40b8e8:	00000000 	nop
  40b8ec:	8e040008 	lw	$a0,8($s0)
  40b8f0:	8fa50024 	lw	$a1,36($sp)
  40b8f4:	0c102d29 	jal	40b4a4 <_ushardlock_detach+0x318>
  40b8f8:	00000000 	nop
  40b8fc:	8e050000 	lw	$a1,0($s0)
  40b900:	0c102fb1 	jal	40bec4 <_usfree>
  40b904:	02002025 	move	$a0,$s0
  40b908:	8fbf001c 	lw	$ra,28($sp)
  40b90c:	8fb00018 	lw	$s0,24($sp)
  40b910:	03e00008 	jr	$ra
  40b914:	27bd0020 	addiu	$sp,$sp,32

0040b918 <_dhwsetlock>:
  40b918:	27bdffd8 	addiu	$sp,$sp,-40
  40b91c:	afbf0024 	sw	$ra,36($sp)
  40b920:	afb10020 	sw	$s1,32($sp)
  40b924:	afb0001c 	sw	$s0,28($sp)
  40b928:	afa60030 	sw	$a2,48($sp)
  40b92c:	3c0e0020 	lui	$t6,0x20
  40b930:	8dc70e00 	lw	$a3,3584($t6)
  40b934:	8c8f0004 	lw	$t7,4($a0)
  40b938:	8c820000 	lw	$v0,0($a0)
  40b93c:	00808025 	move	$s0,$a0
  40b940:	14ef000b 	bne	$a3,$t7,40b970 <_dhwsetlock+0x58>
  40b944:	00a08825 	move	$s1,$a1
  40b948:	8c58044c 	lw	$t8,1100($v0)
  40b94c:	24010002 	li	$at,2
  40b950:	17010007 	bne	$t8,$at,40b970 <_dhwsetlock+0x58>
  40b954:	00002025 	move	$a0,$zero
  40b958:	8fb90030 	lw	$t9,48($sp)
  40b95c:	3c050042 	lui	$a1,0x42
  40b960:	24a5a9ac 	addiu	$a1,$a1,-22100
  40b964:	02003025 	move	$a2,$s0
  40b968:	0c103f10 	jal	40fc40 <_uprint>
  40b96c:	afb90010 	sw	$t9,16($sp)
  40b970:	02002025 	move	$a0,$s0
  40b974:	02202825 	move	$a1,$s1
  40b978:	0c102e70 	jal	40b9c0 <_dhwsetlock+0xa8>
  40b97c:	00003025 	move	$a2,$zero
  40b980:	1440000a 	bnez	$v0,40b9ac <_dhwsetlock+0x94>
  40b984:	8fbf0024 	lw	$ra,36($sp)
  40b988:	0c1032ec 	jal	40cbb0 <_sginap>
  40b98c:	00002025 	move	$a0,$zero
  40b990:	02002025 	move	$a0,$s0
  40b994:	02202825 	move	$a1,$s1
  40b998:	0c102e70 	jal	40b9c0 <_dhwsetlock+0xa8>
  40b99c:	24060001 	li	$a2,1
  40b9a0:	1040fff9 	beqz	$v0,40b988 <_dhwsetlock+0x70>
  40b9a4:	00000000 	nop
  40b9a8:	8fbf0024 	lw	$ra,36($sp)
  40b9ac:	8fb0001c 	lw	$s0,28($sp)
  40b9b0:	8fb10020 	lw	$s1,32($sp)
  40b9b4:	27bd0028 	addiu	$sp,$sp,40
  40b9b8:	03e00008 	jr	$ra
  40b9bc:	24020001 	li	$v0,1
  40b9c0:	27bdffd8 	addiu	$sp,$sp,-40
  40b9c4:	afb00018 	sw	$s0,24($sp)
  40b9c8:	00a08025 	move	$s0,$a1
  40b9cc:	afb20020 	sw	$s2,32($sp)
  40b9d0:	afb1001c 	sw	$s1,28($sp)
  40b9d4:	00808825 	move	$s1,$a0
  40b9d8:	00c09025 	move	$s2,$a2
  40b9dc:	afbf0024 	sw	$ra,36($sp)
  40b9e0:	00a01025 	move	$v0,$a1
  40b9e4:	12000030 	beqz	$s0,40baa8 <_dhwsetlock+0x190>
  40b9e8:	2610ffff 	addiu	$s0,$s0,-1
  40b9ec:	8f998bc4 	lw	$t9,-29756($gp)
  40b9f0:	02202025 	move	$a0,$s1
  40b9f4:	0320f809 	jalr	$t9
  40b9f8:	00000000 	nop
  40b9fc:	14400026 	bnez	$v0,40ba98 <_dhwsetlock+0x180>
  40ba00:	3c040020 	lui	$a0,0x20
  40ba04:	8c8e0e00 	lw	$t6,3584($a0)
  40ba08:	96230012 	lhu	$v1,18($s1)
  40ba0c:	ae2e0004 	sw	$t6,4($s1)
  40ba10:	1060001f 	beqz	$v1,40ba90 <_dhwsetlock+0x178>
  40ba14:	306f0002 	andi	$t7,$v1,0x2
  40ba18:	11e00007 	beqz	$t7,40ba38 <_dhwsetlock+0x120>
  40ba1c:	00601025 	move	$v0,$v1
  40ba20:	8c980e00 	lw	$t8,3584($a0)
  40ba24:	8e280018 	lw	$t0,24($s1)
  40ba28:	00000000 	nop
  40ba2c:	ad180000 	sw	$t8,0($t0)
  40ba30:	96220012 	lhu	$v0,18($s1)
  40ba34:	00000000 	nop
  40ba38:	30490001 	andi	$t1,$v0,0x1
  40ba3c:	11200014 	beqz	$t1,40ba90 <_dhwsetlock+0x178>
  40ba40:	00000000 	nop
  40ba44:	8e220014 	lw	$v0,20($s1)
  40ba48:	00000000 	nop
  40ba4c:	8c4a0004 	lw	$t2,4($v0)
  40ba50:	00000000 	nop
  40ba54:	254b0001 	addiu	$t3,$t2,1
  40ba58:	ac4b0004 	sw	$t3,4($v0)
  40ba5c:	8e220014 	lw	$v0,20($s1)
  40ba60:	00000000 	nop
  40ba64:	8c4c0008 	lw	$t4,8($v0)
  40ba68:	00000000 	nop
  40ba6c:	258d0001 	addiu	$t5,$t4,1
  40ba70:	12400007 	beqz	$s2,40ba90 <_dhwsetlock+0x178>
  40ba74:	ac4d0008 	sw	$t5,8($v0)
  40ba78:	8e220014 	lw	$v0,20($s1)
  40ba7c:	00000000 	nop
  40ba80:	8c590000 	lw	$t9,0($v0)
  40ba84:	00000000 	nop
  40ba88:	272e0001 	addiu	$t6,$t9,1
  40ba8c:	ac4e0000 	sw	$t6,0($v0)
  40ba90:	10000006 	b	40baac <_dhwsetlock+0x194>
  40ba94:	24020001 	li	$v0,1
  40ba98:	02001025 	move	$v0,$s0
  40ba9c:	24120001 	li	$s2,1
  40baa0:	1600ffd2 	bnez	$s0,40b9ec <_dhwsetlock+0xd4>
  40baa4:	2610ffff 	addiu	$s0,$s0,-1
  40baa8:	00001025 	move	$v0,$zero
  40baac:	8fbf0024 	lw	$ra,36($sp)
  40bab0:	8fb00018 	lw	$s0,24($sp)
  40bab4:	8fb1001c 	lw	$s1,28($sp)
  40bab8:	8fb20020 	lw	$s2,32($sp)
  40babc:	03e00008 	jr	$ra
  40bac0:	27bd0028 	addiu	$sp,$sp,40

0040bac4 <_dhcsetlock>:
  40bac4:	27bdffe8 	addiu	$sp,$sp,-24
  40bac8:	afbf0014 	sw	$ra,20($sp)
  40bacc:	afa40018 	sw	$a0,24($sp)
  40bad0:	0c102e70 	jal	40b9c0 <_dhwsetlock+0xa8>
  40bad4:	00003025 	move	$a2,$zero
  40bad8:	8fa40018 	lw	$a0,24($sp)
  40badc:	14400015 	bnez	$v0,40bb34 <_dhcsetlock+0x70>
  40bae0:	24020001 	li	$v0,1
  40bae4:	948e0012 	lhu	$t6,18($a0)
  40bae8:	00000000 	nop
  40baec:	31cf0001 	andi	$t7,$t6,0x1
  40baf0:	11e0000d 	beqz	$t7,40bb28 <_dhcsetlock+0x64>
  40baf4:	00000000 	nop
  40baf8:	8c820014 	lw	$v0,20($a0)
  40bafc:	00000000 	nop
  40bb00:	8c580004 	lw	$t8,4($v0)
  40bb04:	00000000 	nop
  40bb08:	27190001 	addiu	$t9,$t8,1
  40bb0c:	ac590004 	sw	$t9,4($v0)
  40bb10:	8c820014 	lw	$v0,20($a0)
  40bb14:	00000000 	nop
  40bb18:	8c480000 	lw	$t0,0($v0)
  40bb1c:	00000000 	nop
  40bb20:	25090001 	addiu	$t1,$t0,1
  40bb24:	ac490000 	sw	$t1,0($v0)
  40bb28:	10000002 	b	40bb34 <_dhcsetlock+0x70>
  40bb2c:	00001025 	move	$v0,$zero
  40bb30:	24020001 	li	$v0,1
  40bb34:	8fbf0014 	lw	$ra,20($sp)
  40bb38:	27bd0018 	addiu	$sp,$sp,24
  40bb3c:	03e00008 	jr	$ra
  40bb40:	00000000 	nop

0040bb44 <_dhsetlock>:
  40bb44:	27bdffd0 	addiu	$sp,$sp,-48
  40bb48:	afb20028 	sw	$s2,40($sp)
  40bb4c:	afb00020 	sw	$s0,32($sp)
  40bb50:	afbf002c 	sw	$ra,44($sp)
  40bb54:	afb10024 	sw	$s1,36($sp)
  40bb58:	afa50034 	sw	$a1,52($sp)
  40bb5c:	3c0e0020 	lui	$t6,0x20
  40bb60:	8dc70e00 	lw	$a3,3584($t6)
  40bb64:	8c8f0004 	lw	$t7,4($a0)
  40bb68:	8c820000 	lw	$v0,0($a0)
  40bb6c:	8f9080f4 	lw	$s0,-32524($gp)
  40bb70:	8f9280f0 	lw	$s2,-32528($gp)
  40bb74:	14ef000b 	bne	$a3,$t7,40bba4 <_dhsetlock+0x60>
  40bb78:	00808825 	move	$s1,$a0
  40bb7c:	8c58044c 	lw	$t8,1100($v0)
  40bb80:	24010002 	li	$at,2
  40bb84:	17010007 	bne	$t8,$at,40bba4 <_dhsetlock+0x60>
  40bb88:	00002025 	move	$a0,$zero
  40bb8c:	8fb90034 	lw	$t9,52($sp)
  40bb90:	3c050042 	lui	$a1,0x42
  40bb94:	24a5a9e8 	addiu	$a1,$a1,-22040
  40bb98:	02203025 	move	$a2,$s1
  40bb9c:	0c103f10 	jal	40fc40 <_uprint>
  40bba0:	afb90010 	sw	$t9,16($sp)
  40bba4:	02202025 	move	$a0,$s1
  40bba8:	02402825 	move	$a1,$s2
  40bbac:	0c102e70 	jal	40b9c0 <_dhwsetlock+0xa8>
  40bbb0:	00003025 	move	$a2,$zero
  40bbb4:	14400010 	bnez	$v0,40bbf8 <_dhsetlock+0xb4>
  40bbb8:	2610ffff 	addiu	$s0,$s0,-1
  40bbbc:	16000006 	bnez	$s0,40bbd8 <_dhsetlock+0x94>
  40bbc0:	00000000 	nop
  40bbc4:	0c1032ec 	jal	40cbb0 <_sginap>
  40bbc8:	24040001 	li	$a0,1
  40bbcc:	8f9080f4 	lw	$s0,-32524($gp)
  40bbd0:	10000004 	b	40bbe4 <_dhsetlock+0xa0>
  40bbd4:	02202025 	move	$a0,$s1
  40bbd8:	0c1032ec 	jal	40cbb0 <_sginap>
  40bbdc:	00002025 	move	$a0,$zero
  40bbe0:	02202025 	move	$a0,$s1
  40bbe4:	02402825 	move	$a1,$s2
  40bbe8:	0c102e70 	jal	40b9c0 <_dhwsetlock+0xa8>
  40bbec:	24060001 	li	$a2,1
  40bbf0:	1040fff2 	beqz	$v0,40bbbc <_dhsetlock+0x78>
  40bbf4:	2610ffff 	addiu	$s0,$s0,-1
  40bbf8:	8fbf002c 	lw	$ra,44($sp)
  40bbfc:	8fb00020 	lw	$s0,32($sp)
  40bc00:	8fb10024 	lw	$s1,36($sp)
  40bc04:	8fb20028 	lw	$s2,40($sp)
  40bc08:	27bd0030 	addiu	$sp,$sp,48
  40bc0c:	03e00008 	jr	$ra
  40bc10:	24020001 	li	$v0,1
  40bc14:	8c8e0008 	lw	$t6,8($a0)
  40bc18:	24020001 	li	$v0,1
  40bc1c:	8dcf0000 	lw	$t7,0($t6)
  40bc20:	00000000 	nop
  40bc24:	31f80001 	andi	$t8,$t7,0x1
  40bc28:	17000005 	bnez	$t8,40bc40 <_dhsetlock+0xfc>
  40bc2c:	00000000 	nop
  40bc30:	8c990008 	lw	$t9,8($a0)
  40bc34:	00001025 	move	$v0,$zero
  40bc38:	03e00008 	jr	$ra
  40bc3c:	af200000 	sw	$zero,0($t9)
  40bc40:	03e00008 	jr	$ra
  40bc44:	00000000 	nop

0040bc48 <_dhunsetlock>:
  40bc48:	27bdffe0 	addiu	$sp,$sp,-32
  40bc4c:	afbf001c 	sw	$ra,28($sp)
  40bc50:	afa50024 	sw	$a1,36($sp)
  40bc54:	3c0e0020 	lui	$t6,0x20
  40bc58:	8dc70e00 	lw	$a3,3584($t6)
  40bc5c:	8c820004 	lw	$v0,4($a0)
  40bc60:	8c830000 	lw	$v1,0($a0)
  40bc64:	10e20019 	beq	$a3,$v0,40bccc <_dhunsetlock+0x84>
  40bc68:	00803025 	move	$a2,$a0
  40bc6c:	8c6f044c 	lw	$t7,1100($v1)
  40bc70:	24010002 	li	$at,2
  40bc74:	15e10015 	bne	$t7,$at,40bccc <_dhunsetlock+0x84>
  40bc78:	00000000 	nop
  40bc7c:	1440000b 	bnez	$v0,40bcac <_dhunsetlock+0x64>
  40bc80:	00002025 	move	$a0,$zero
  40bc84:	8fb80024 	lw	$t8,36($sp)
  40bc88:	3c050042 	lui	$a1,0x42
  40bc8c:	24a5aa24 	addiu	$a1,$a1,-21980
  40bc90:	00002025 	move	$a0,$zero
  40bc94:	afa60020 	sw	$a2,32($sp)
  40bc98:	0c103f10 	jal	40fc40 <_uprint>
  40bc9c:	afb80010 	sw	$t8,16($sp)
  40bca0:	8fa60020 	lw	$a2,32($sp)
  40bca4:	1000000a 	b	40bcd0 <_dhunsetlock+0x88>
  40bca8:	94c80012 	lhu	$t0,18($a2)
  40bcac:	8fb90024 	lw	$t9,36($sp)
  40bcb0:	3c050042 	lui	$a1,0x42
  40bcb4:	24a5aa6c 	addiu	$a1,$a1,-21908
  40bcb8:	afa60020 	sw	$a2,32($sp)
  40bcbc:	0c103f10 	jal	40fc40 <_uprint>
  40bcc0:	afb90010 	sw	$t9,16($sp)
  40bcc4:	8fa60020 	lw	$a2,32($sp)
  40bcc8:	00000000 	nop
  40bccc:	94c80012 	lhu	$t0,18($a2)
  40bcd0:	00000000 	nop
  40bcd4:	31090002 	andi	$t1,$t0,0x2
  40bcd8:	11200004 	beqz	$t1,40bcec <_dhunsetlock+0xa4>
  40bcdc:	00000000 	nop
  40bce0:	8ccb0018 	lw	$t3,24($a2)
  40bce4:	240affff 	li	$t2,-1
  40bce8:	ad6a0000 	sw	$t2,0($t3)
  40bcec:	acc00004 	sw	$zero,4($a2)
  40bcf0:	8f998bc8 	lw	$t9,-29752($gp)
  40bcf4:	00c02025 	move	$a0,$a2
  40bcf8:	0320f809 	jalr	$t9
  40bcfc:	00000000 	nop
  40bd00:	8fbf001c 	lw	$ra,28($sp)
  40bd04:	27bd0020 	addiu	$sp,$sp,32
  40bd08:	03e00008 	jr	$ra
  40bd0c:	00001025 	move	$v0,$zero

0040bd10 <_ushardlocks_init>:
  40bd10:	24010003 	li	$at,3
  40bd14:	14810006 	bne	$a0,$at,40bd30 <_ushardlocks_init+0x20>
  40bd18:	afa50004 	sw	$a1,4($sp)
  40bd1c:	3c0e0041 	lui	$t6,0x41
  40bd20:	25cedb98 	addiu	$t6,$t6,-9320
  40bd24:	af8e8bc0 	sw	$t6,-29760($gp)
  40bd28:	03e00008 	jr	$ra
  40bd2c:	00001025 	move	$v0,$zero
  40bd30:	14800026 	bnez	$a0,40bdcc <_ushardlocks_init+0xbc>
  40bd34:	3c080041 	lui	$t0,0x41
  40bd38:	8f8f8b94 	lw	$t7,-29804($gp)
  40bd3c:	3c180040 	lui	$t8,0x40
  40bd40:	27187b70 	addiu	$t8,$t8,31600
  40bd44:	15f80003 	bne	$t7,$t8,40bd54 <_ushardlocks_init+0x44>
  40bd48:	3c190041 	lui	$t9,0x41
  40bd4c:	03e00008 	jr	$ra
  40bd50:	2402ffff 	li	$v0,-1
  40bd54:	3c080041 	lui	$t0,0x41
  40bd58:	3c090041 	lui	$t1,0x41
  40bd5c:	3c0a0041 	lui	$t2,0x41
  40bd60:	3c0b0041 	lui	$t3,0x41
  40bd64:	3c0c0041 	lui	$t4,0x41
  40bd68:	3c0d0041 	lui	$t5,0x41
  40bd6c:	3c0e0041 	lui	$t6,0x41
  40bd70:	3c0f0041 	lui	$t7,0x41
  40bd74:	3c180041 	lui	$t8,0x41
  40bd78:	2739b5f8 	addiu	$t9,$t9,-18952
  40bd7c:	2508b688 	addiu	$t0,$t0,-18808
  40bd80:	2529b3c4 	addiu	$t1,$t1,-19516
  40bd84:	254ab498 	addiu	$t2,$t2,-19304
  40bd88:	256bb4a4 	addiu	$t3,$t3,-19292
  40bd8c:	258cb538 	addiu	$t4,$t4,-19144
  40bd90:	25adb590 	addiu	$t5,$t5,-19056
  40bd94:	25ceb5d0 	addiu	$t6,$t6,-18992
  40bd98:	25efb6a8 	addiu	$t7,$t7,-18776
  40bd9c:	2718b694 	addiu	$t8,$t8,-18796
  40bda0:	af998b94 	sw	$t9,-29804($gp)
  40bda4:	af888b98 	sw	$t0,-29800($gp)
  40bda8:	af898b9c 	sw	$t1,-29796($gp)
  40bdac:	af8a8ba0 	sw	$t2,-29792($gp)
  40bdb0:	af8b8ba4 	sw	$t3,-29788($gp)
  40bdb4:	af8c8ba8 	sw	$t4,-29784($gp)
  40bdb8:	af8d8bac 	sw	$t5,-29780($gp)
  40bdbc:	af8e8bb0 	sw	$t6,-29776($gp)
  40bdc0:	af8f8bb4 	sw	$t7,-29772($gp)
  40bdc4:	10000024 	b	40be58 <_ushardlocks_init+0x148>
  40bdc8:	af988bb8 	sw	$t8,-29768($gp)
  40bdcc:	8f998b94 	lw	$t9,-29804($gp)
  40bdd0:	2508b5f8 	addiu	$t0,$t0,-18952
  40bdd4:	17280003 	bne	$t9,$t0,40bde4 <_ushardlocks_init+0xd4>
  40bdd8:	3c090040 	lui	$t1,0x40
  40bddc:	03e00008 	jr	$ra
  40bde0:	2402ffff 	li	$v0,-1
  40bde4:	3c0a0040 	lui	$t2,0x40
  40bde8:	3c0b0041 	lui	$t3,0x41
  40bdec:	3c0c0041 	lui	$t4,0x41
  40bdf0:	3c0d0041 	lui	$t5,0x41
  40bdf4:	3c0e0040 	lui	$t6,0x40
  40bdf8:	3c0f0041 	lui	$t7,0x41
  40bdfc:	3c180041 	lui	$t8,0x41
  40be00:	3c190040 	lui	$t9,0x40
  40be04:	3c080040 	lui	$t0,0x40
  40be08:	25297b70 	addiu	$t1,$t1,31600
  40be0c:	254a7b80 	addiu	$t2,$t2,31616
  40be10:	256bb6d8 	addiu	$t3,$t3,-18728
  40be14:	258cb820 	addiu	$t4,$t4,-18400
  40be18:	25adb890 	addiu	$t5,$t5,-18288
  40be1c:	25ce7b90 	addiu	$t6,$t6,31632
  40be20:	25efbac4 	addiu	$t7,$t7,-17724
  40be24:	2718bc14 	addiu	$t8,$t8,-17388
  40be28:	27397e30 	addiu	$t9,$t9,32304
  40be2c:	25087f90 	addiu	$t0,$t0,32656
  40be30:	af898b94 	sw	$t1,-29804($gp)
  40be34:	af8a8b98 	sw	$t2,-29800($gp)
  40be38:	af8b8b9c 	sw	$t3,-29796($gp)
  40be3c:	af8c8ba0 	sw	$t4,-29792($gp)
  40be40:	af8d8ba4 	sw	$t5,-29788($gp)
  40be44:	af8e8ba8 	sw	$t6,-29784($gp)
  40be48:	af8f8bac 	sw	$t7,-29780($gp)
  40be4c:	af988bb0 	sw	$t8,-29776($gp)
  40be50:	af998bb4 	sw	$t9,-29772($gp)
  40be54:	af888bb8 	sw	$t0,-29768($gp)
  40be58:	3c090041 	lui	$t1,0x41
  40be5c:	3c0a0041 	lui	$t2,0x41
  40be60:	3c0b0041 	lui	$t3,0x41
  40be64:	3c0c0041 	lui	$t4,0x41
  40be68:	2529db50 	addiu	$t1,$t1,-9392
  40be6c:	254adb98 	addiu	$t2,$t2,-9320
  40be70:	256bdbac 	addiu	$t3,$t3,-9300
  40be74:	258cdbc4 	addiu	$t4,$t4,-9276
  40be78:	af898bbc 	sw	$t1,-29764($gp)
  40be7c:	af8a8bc0 	sw	$t2,-29760($gp)
  40be80:	af8b8bc4 	sw	$t3,-29756($gp)
  40be84:	af8c8bc8 	sw	$t4,-29752($gp)
  40be88:	00001025 	move	$v0,$zero
  40be8c:	03e00008 	jr	$ra
	...

0040bea0 <_usmalloc>:
  40bea0:	27bdffe8 	addiu	$sp,$sp,-24
  40bea4:	afbf0014 	sw	$ra,20($sp)
  40bea8:	8ca50018 	lw	$a1,24($a1)
  40beac:	0c10411c 	jal	410470 <_amalloc>
  40beb0:	00000000 	nop
  40beb4:	8fbf0014 	lw	$ra,20($sp)
  40beb8:	27bd0018 	addiu	$sp,$sp,24
  40bebc:	03e00008 	jr	$ra
  40bec0:	00000000 	nop

0040bec4 <_usfree>:
  40bec4:	27bdffe8 	addiu	$sp,$sp,-24
  40bec8:	afbf0014 	sw	$ra,20($sp)
  40becc:	8ca50018 	lw	$a1,24($a1)
  40bed0:	0c104143 	jal	41050c <_afree>
  40bed4:	00000000 	nop
  40bed8:	8fbf0014 	lw	$ra,20($sp)
  40bedc:	27bd0018 	addiu	$sp,$sp,24
  40bee0:	03e00008 	jr	$ra
  40bee4:	00000000 	nop

0040bee8 <_usrealloc>:
  40bee8:	27bdffe8 	addiu	$sp,$sp,-24
  40beec:	afbf0014 	sw	$ra,20($sp)
  40bef0:	8cc60018 	lw	$a2,24($a2)
  40bef4:	0c1044b7 	jal	4112dc <_arealloc>
  40bef8:	00000000 	nop
  40befc:	8fbf0014 	lw	$ra,20($sp)
  40bf00:	27bd0018 	addiu	$sp,$sp,24
  40bf04:	03e00008 	jr	$ra
  40bf08:	00000000 	nop

0040bf0c <_uscalloc>:
  40bf0c:	27bdffe8 	addiu	$sp,$sp,-24
  40bf10:	afbf0014 	sw	$ra,20($sp)
  40bf14:	8cc60018 	lw	$a2,24($a2)
  40bf18:	0c10458a 	jal	411628 <_acalloc>
  40bf1c:	00000000 	nop
  40bf20:	8fbf0014 	lw	$ra,20($sp)
  40bf24:	27bd0018 	addiu	$sp,$sp,24
  40bf28:	03e00008 	jr	$ra
  40bf2c:	00000000 	nop

0040bf30 <_usmallinfo>:
  40bf30:	27bdffe8 	addiu	$sp,$sp,-24
  40bf34:	afbf0014 	sw	$ra,20($sp)
  40bf38:	8ca50018 	lw	$a1,24($a1)
  40bf3c:	0c10462a 	jal	4118a8 <_amallinfo>
  40bf40:	00000000 	nop
  40bf44:	8fbf0014 	lw	$ra,20($sp)
  40bf48:	27bd0018 	addiu	$sp,$sp,24
  40bf4c:	03e00008 	jr	$ra
  40bf50:	00000000 	nop

0040bf54 <_usmallopt>:
  40bf54:	27bdffe8 	addiu	$sp,$sp,-24
  40bf58:	afbf0014 	sw	$ra,20($sp)
  40bf5c:	8cc60018 	lw	$a2,24($a2)
  40bf60:	0c1045a9 	jal	4116a4 <_amallopt>
  40bf64:	00000000 	nop
  40bf68:	8fbf0014 	lw	$ra,20($sp)
  40bf6c:	27bd0018 	addiu	$sp,$sp,24
  40bf70:	03e00008 	jr	$ra
  40bf74:	00000000 	nop

0040bf78 <_usrecalloc>:
  40bf78:	27bdffe8 	addiu	$sp,$sp,-24
  40bf7c:	afbf0014 	sw	$ra,20($sp)
  40bf80:	afa70024 	sw	$a3,36($sp)
  40bf84:	8ce70018 	lw	$a3,24($a3)
  40bf88:	0c1041fe 	jal	4107f8 <_arecalloc>
  40bf8c:	00000000 	nop
  40bf90:	8fbf0014 	lw	$ra,20($sp)
  40bf94:	27bd0018 	addiu	$sp,$sp,24
  40bf98:	03e00008 	jr	$ra
  40bf9c:	00000000 	nop

0040bfa0 <_usmallocblksize>:
  40bfa0:	27bdffe8 	addiu	$sp,$sp,-24
  40bfa4:	afbf0014 	sw	$ra,20($sp)
  40bfa8:	8ca50018 	lw	$a1,24($a1)
  40bfac:	0c104741 	jal	411d04 <_amallocblksize>
  40bfb0:	00000000 	nop
  40bfb4:	8fbf0014 	lw	$ra,20($sp)
  40bfb8:	27bd0018 	addiu	$sp,$sp,24
  40bfbc:	03e00008 	jr	$ra
  40bfc0:	00000000 	nop

0040bfc4 <_usmemalign>:
  40bfc4:	27bdffe8 	addiu	$sp,$sp,-24
  40bfc8:	afbf0014 	sw	$ra,20($sp)
  40bfcc:	8cc60018 	lw	$a2,24($a2)
  40bfd0:	0c10478a 	jal	411e28 <_amemalign>
  40bfd4:	00000000 	nop
  40bfd8:	8fbf0014 	lw	$ra,20($sp)
  40bfdc:	27bd0018 	addiu	$sp,$sp,24
  40bfe0:	03e00008 	jr	$ra
	...

0040bff0 <fprintf>:
  40bff0:	27bdffd0 	addiu	$sp,$sp,-48
  40bff4:	8f8e80d4 	lw	$t6,-32556($gp)
  40bff8:	afa60038 	sw	$a2,56($sp)
  40bffc:	00803025 	move	$a2,$a0
  40c000:	afbf0014 	sw	$ra,20($sp)
  40c004:	afa40030 	sw	$a0,48($sp)
  40c008:	afa50034 	sw	$a1,52($sp)
  40c00c:	11c00006 	beqz	$t6,40c028 <fprintf+0x38>
  40c010:	afa7003c 	sw	$a3,60($sp)
  40c014:	0c102ac4 	jal	40ab10 <_flockfile>
  40c018:	afa60030 	sw	$a2,48($sp)
  40c01c:	8fa60030 	lw	$a2,48($sp)
  40c020:	10000002 	b	40c02c <fprintf+0x3c>
  40c024:	24030001 	li	$v1,1
  40c028:	00001825 	move	$v1,$zero
  40c02c:	90c2000c 	lbu	$v0,12($a2)
  40c030:	27a50038 	addiu	$a1,$sp,56
  40c034:	304f0002 	andi	$t7,$v0,0x2
  40c038:	15e00011 	bnez	$t7,40c080 <fprintf+0x90>
  40c03c:	30580080 	andi	$t8,$v0,0x80
  40c040:	13000007 	beqz	$t8,40c060 <fprintf+0x70>
  40c044:	30590011 	andi	$t9,$v0,0x11
  40c048:	24010001 	li	$at,1
  40c04c:	13210004 	beq	$t9,$at,40c060 <fprintf+0x70>
  40c050:	3048ffee 	andi	$t0,$v0,0xffee
  40c054:	35090002 	ori	$t1,$t0,0x2
  40c058:	10000009 	b	40c080 <fprintf+0x90>
  40c05c:	a0c9000c 	sb	$t1,12($a2)
  40c060:	10600003 	beqz	$v1,40c070 <fprintf+0x80>
  40c064:	00000000 	nop
  40c068:	0c102aed 	jal	40abb4 <_funlockfile>
  40c06c:	00c02025 	move	$a0,$a2
  40c070:	0c101ebd 	jal	407af4 <_setoserror>
  40c074:	24040009 	li	$a0,9
  40c078:	10000015 	b	40c0d0 <fprintf+0xe0>
  40c07c:	2402ffff 	li	$v0,-1
  40c080:	8fa40034 	lw	$a0,52($sp)
  40c084:	afa30020 	sw	$v1,32($sp)
  40c088:	0c104e9f 	jal	413a7c <_doprnt>
  40c08c:	afa60030 	sw	$a2,48($sp)
  40c090:	8fa60030 	lw	$a2,48($sp)
  40c094:	8fa30020 	lw	$v1,32($sp)
  40c098:	90ca000c 	lbu	$t2,12($a2)
  40c09c:	00402825 	move	$a1,$v0
  40c0a0:	314b0020 	andi	$t3,$t2,0x20
  40c0a4:	11600003 	beqz	$t3,40c0b4 <fprintf+0xc4>
  40c0a8:	00c02025 	move	$a0,$a2
  40c0ac:	10000001 	b	40c0b4 <fprintf+0xc4>
  40c0b0:	2405ffff 	li	$a1,-1
  40c0b4:	10600006 	beqz	$v1,40c0d0 <fprintf+0xe0>
  40c0b8:	00a01025 	move	$v0,$a1
  40c0bc:	0c102aed 	jal	40abb4 <_funlockfile>
  40c0c0:	afa5001c 	sw	$a1,28($sp)
  40c0c4:	8fa5001c 	lw	$a1,28($sp)
  40c0c8:	00000000 	nop
  40c0cc:	00a01025 	move	$v0,$a1
  40c0d0:	8fbf0014 	lw	$ra,20($sp)
  40c0d4:	27bd0030 	addiu	$sp,$sp,48
  40c0d8:	03e00008 	jr	$ra
  40c0dc:	00000000 	nop

0040c0e0 <sprintf>:
  40c0e0:	27bdffd0 	addiu	$sp,$sp,-48
  40c0e4:	afa40030 	sw	$a0,48($sp)
  40c0e8:	3c0e7fff 	lui	$t6,0x7fff
  40c0ec:	afa40020 	sw	$a0,32($sp)
  40c0f0:	afa40024 	sw	$a0,36($sp)
  40c0f4:	afbf0014 	sw	$ra,20($sp)
  40c0f8:	afa50034 	sw	$a1,52($sp)
  40c0fc:	afa60038 	sw	$a2,56($sp)
  40c100:	35ceffff 	ori	$t6,$t6,0xffff
  40c104:	240f0001 	li	$t7,1
  40c108:	00a02025 	move	$a0,$a1
  40c10c:	afa7003c 	sw	$a3,60($sp)
  40c110:	afae001c 	sw	$t6,28($sp)
  40c114:	a3af0028 	sb	$t7,40($sp)
  40c118:	27a50038 	addiu	$a1,$sp,56
  40c11c:	0c104e9f 	jal	413a7c <_doprnt>
  40c120:	27a6001c 	addiu	$a2,$sp,28
  40c124:	8fb80020 	lw	$t8,32($sp)
  40c128:	00000000 	nop
  40c12c:	a3000000 	sb	$zero,0($t8)
  40c130:	8fbf0014 	lw	$ra,20($sp)
  40c134:	27bd0030 	addiu	$sp,$sp,48
  40c138:	03e00008 	jr	$ra
  40c13c:	00000000 	nop

0040c140 <_tempnam>:
  40c140:	27bdffc8 	addiu	$sp,$sp,-56
  40c144:	afbf0014 	sw	$ra,20($sp)
  40c148:	afa40038 	sw	$a0,56($sp)
  40c14c:	afa5003c 	sw	$a1,60($sp)
  40c150:	afa00024 	sw	$zero,36($sp)
  40c154:	278489b4 	addiu	$a0,$gp,-30284
  40c158:	0c10336c 	jal	40cdb0 <getenv>
  40c15c:	afa00028 	sw	$zero,40($sp)
  40c160:	8fa60028 	lw	$a2,40($sp)
  40c164:	10400004 	beqz	$v0,40c178 <_tempnam+0x38>
  40c168:	afa2002c 	sw	$v0,44($sp)
  40c16c:	0c103238 	jal	40c8e0 <strlen>
  40c170:	00402025 	move	$a0,$v0
  40c174:	00403025 	move	$a2,$v0
  40c178:	8fae0038 	lw	$t6,56($sp)
  40c17c:	00000000 	nop
  40c180:	11c00005 	beqz	$t6,40c198 <_tempnam+0x58>
  40c184:	01c02025 	move	$a0,$t6
  40c188:	0c103238 	jal	40c8e0 <strlen>
  40c18c:	afa60028 	sw	$a2,40($sp)
  40c190:	8fa60028 	lw	$a2,40($sp)
  40c194:	afa20024 	sw	$v0,36($sp)
  40c198:	8fa50024 	lw	$a1,36($sp)
  40c19c:	00c01025 	move	$v0,$a2
  40c1a0:	00c5082a 	slt	$at,$a2,$a1
  40c1a4:	10200003 	beqz	$at,40c1b4 <_tempnam+0x74>
  40c1a8:	00000000 	nop
  40c1ac:	10000001 	b	40c1b4 <_tempnam+0x74>
  40c1b0:	00a01025 	move	$v0,$a1
  40c1b4:	28410009 	slti	$at,$v0,9
  40c1b8:	10200004 	beqz	$at,40c1cc <_tempnam+0x8c>
  40c1bc:	00c5082a 	slt	$at,$a2,$a1
  40c1c0:	10000007 	b	40c1e0 <_tempnam+0xa0>
  40c1c4:	24020009 	li	$v0,9
  40c1c8:	00c5082a 	slt	$at,$a2,$a1
  40c1cc:	10200003 	beqz	$at,40c1dc <_tempnam+0x9c>
  40c1d0:	00c01825 	move	$v1,$a2
  40c1d4:	10000001 	b	40c1dc <_tempnam+0x9c>
  40c1d8:	00a01825 	move	$v1,$a1
  40c1dc:	00601025 	move	$v0,$v1
  40c1e0:	24440010 	addiu	$a0,$v0,16
  40c1e4:	afa50024 	sw	$a1,36($sp)
  40c1e8:	0c101a6a 	jal	4069a8 <_malloc>
  40c1ec:	afa60028 	sw	$a2,40($sp)
  40c1f0:	8fa60028 	lw	$a2,40($sp)
  40c1f4:	14400003 	bnez	$v0,40c204 <_tempnam+0xc4>
  40c1f8:	afa20034 	sw	$v0,52($sp)
  40c1fc:	1000007c 	b	40c3f0 <_tempnam+0x2b0>
  40c200:	00001025 	move	$v0,$zero
  40c204:	8f8f80d4 	lw	$t7,-32556($gp)
  40c208:	8f848b80 	lw	$a0,-29824($gp)
  40c20c:	11e00008 	beqz	$t7,40c230 <_tempnam+0xf0>
  40c210:	00000000 	nop
  40c214:	0c101ecc 	jal	407b30 <_uspsema>
  40c218:	afa60028 	sw	$a2,40($sp)
  40c21c:	38580001 	xori	$t8,$v0,0x1
  40c220:	2f180001 	sltiu	$t8,$t8,1
  40c224:	8fa60028 	lw	$a2,40($sp)
  40c228:	10000002 	b	40c234 <_tempnam+0xf4>
  40c22c:	afb8001c 	sw	$t8,28($sp)
  40c230:	afa0001c 	sw	$zero,28($sp)
  40c234:	18c0000b 	blez	$a2,40c264 <_tempnam+0x124>
  40c238:	8fb90024 	lw	$t9,36($sp)
  40c23c:	8fa40034 	lw	$a0,52($sp)
  40c240:	8fa5002c 	lw	$a1,44($sp)
  40c244:	0c103100 	jal	40c400 <_tempnam+0x2c0>
  40c248:	00000000 	nop
  40c24c:	00402025 	move	$a0,$v0
  40c250:	0c103278 	jal	40c9e0 <_access>
  40c254:	24050003 	li	$a1,3
  40c258:	10400029 	beqz	$v0,40c300 <_tempnam+0x1c0>
  40c25c:	8fa40034 	lw	$a0,52($sp)
  40c260:	8fb90024 	lw	$t9,36($sp)
  40c264:	8fa40034 	lw	$a0,52($sp)
  40c268:	1b200009 	blez	$t9,40c290 <_tempnam+0x150>
  40c26c:	00000000 	nop
  40c270:	8fa50038 	lw	$a1,56($sp)
  40c274:	0c103100 	jal	40c400 <_tempnam+0x2c0>
  40c278:	00000000 	nop
  40c27c:	00402025 	move	$a0,$v0
  40c280:	0c103278 	jal	40c9e0 <_access>
  40c284:	24050003 	li	$a1,3
  40c288:	1040001d 	beqz	$v0,40c300 <_tempnam+0x1c0>
  40c28c:	8fa40034 	lw	$a0,52($sp)
  40c290:	8fa40034 	lw	$a0,52($sp)
  40c294:	0c103100 	jal	40c400 <_tempnam+0x2c0>
  40c298:	278589bc 	addiu	$a1,$gp,-30276
  40c29c:	00402025 	move	$a0,$v0
  40c2a0:	0c103278 	jal	40c9e0 <_access>
  40c2a4:	24050003 	li	$a1,3
  40c2a8:	10400015 	beqz	$v0,40c300 <_tempnam+0x1c0>
  40c2ac:	8fa40034 	lw	$a0,52($sp)
  40c2b0:	8fa40034 	lw	$a0,52($sp)
  40c2b4:	0c103100 	jal	40c400 <_tempnam+0x2c0>
  40c2b8:	278589c8 	addiu	$a1,$gp,-30264
  40c2bc:	00402025 	move	$a0,$v0
  40c2c0:	0c103278 	jal	40c9e0 <_access>
  40c2c4:	24050003 	li	$a1,3
  40c2c8:	1040000d 	beqz	$v0,40c300 <_tempnam+0x1c0>
  40c2cc:	8fa40034 	lw	$a0,52($sp)
  40c2d0:	8fa8001c 	lw	$t0,28($sp)
  40c2d4:	8f848b80 	lw	$a0,-29824($gp)
  40c2d8:	11000003 	beqz	$t0,40c2e8 <_tempnam+0x1a8>
  40c2dc:	00000000 	nop
  40c2e0:	0c101ed4 	jal	407b50 <_usvsema>
  40c2e4:	00000000 	nop
  40c2e8:	8fa40034 	lw	$a0,52($sp)
  40c2ec:	0c101e5f 	jal	40797c <_free>
  40c2f0:	00000000 	nop
  40c2f4:	1000003e 	b	40c3f0 <_tempnam+0x2b0>
  40c2f8:	00001025 	move	$v0,$zero
  40c2fc:	8fa40034 	lw	$a0,52($sp)
  40c300:	0c1031dc 	jal	40c770 <strcat>
  40c304:	278589d0 	addiu	$a1,$gp,-30256
  40c308:	8fa9003c 	lw	$t1,60($sp)
  40c30c:	8fa40034 	lw	$a0,52($sp)
  40c310:	1120000a 	beqz	$t1,40c33c <_tempnam+0x1fc>
  40c314:	00000000 	nop
  40c318:	0c103238 	jal	40c8e0 <strlen>
  40c31c:	00000000 	nop
  40c320:	8fa40034 	lw	$a0,52($sp)
  40c324:	24060005 	li	$a2,5
  40c328:	00825021 	addu	$t2,$a0,$v0
  40c32c:	a1400005 	sb	$zero,5($t2)
  40c330:	8fa5003c 	lw	$a1,60($sp)
  40c334:	0c10325c 	jal	40c970 <strncat>
  40c338:	00000000 	nop
  40c33c:	8fa40034 	lw	$a0,52($sp)
  40c340:	0c1031dc 	jal	40c770 <strcat>
  40c344:	278589b0 	addiu	$a1,$gp,-30288
  40c348:	8fa40034 	lw	$a0,52($sp)
  40c34c:	0c1031dc 	jal	40c770 <strcat>
  40c350:	278589d4 	addiu	$a1,$gp,-30252
  40c354:	938b89b0 	lbu	$t3,-30288($gp)
  40c358:	2404005a 	li	$a0,90
  40c35c:	148b0006 	bne	$a0,$t3,40c378 <_tempnam+0x238>
  40c360:	278389b0 	addiu	$v1,$gp,-30288
  40c364:	24020041 	li	$v0,65
  40c368:	906c0001 	lbu	$t4,1($v1)
  40c36c:	a0620000 	sb	$v0,0($v1)
  40c370:	108cfffd 	beq	$a0,$t4,40c368 <_tempnam+0x228>
  40c374:	24630001 	addiu	$v1,$v1,1
  40c378:	90620000 	lbu	$v0,0($v1)
  40c37c:	00000000 	nop
  40c380:	10400002 	beqz	$v0,40c38c <_tempnam+0x24c>
  40c384:	244d0001 	addiu	$t5,$v0,1
  40c388:	a06d0000 	sb	$t5,0($v1)
  40c38c:	8fa40034 	lw	$a0,52($sp)
  40c390:	0c105bcc 	jal	416f30 <_mktemp>
  40c394:	00000000 	nop
  40c398:	904e0000 	lbu	$t6,0($v0)
  40c39c:	8fb8001c 	lw	$t8,28($sp)
  40c3a0:	15c0000c 	bnez	$t6,40c3d4 <_tempnam+0x294>
  40c3a4:	00000000 	nop
  40c3a8:	8faf001c 	lw	$t7,28($sp)
  40c3ac:	8f848b80 	lw	$a0,-29824($gp)
  40c3b0:	11e00003 	beqz	$t7,40c3c0 <_tempnam+0x280>
  40c3b4:	00000000 	nop
  40c3b8:	0c101ed4 	jal	407b50 <_usvsema>
  40c3bc:	00000000 	nop
  40c3c0:	8fa40034 	lw	$a0,52($sp)
  40c3c4:	0c101e5f 	jal	40797c <_free>
  40c3c8:	00000000 	nop
  40c3cc:	10000008 	b	40c3f0 <_tempnam+0x2b0>
  40c3d0:	00001025 	move	$v0,$zero
  40c3d4:	13000005 	beqz	$t8,40c3ec <_tempnam+0x2ac>
  40c3d8:	8fa20034 	lw	$v0,52($sp)
  40c3dc:	8f848b80 	lw	$a0,-29824($gp)
  40c3e0:	0c101ed4 	jal	407b50 <_usvsema>
  40c3e4:	00000000 	nop
  40c3e8:	8fa20034 	lw	$v0,52($sp)
  40c3ec:	00000000 	nop
  40c3f0:	8fbf0014 	lw	$ra,20($sp)
  40c3f4:	27bd0038 	addiu	$sp,$sp,56
  40c3f8:	03e00008 	jr	$ra
  40c3fc:	00000000 	nop
  40c400:	27bdffe8 	addiu	$sp,$sp,-24
  40c404:	afbf0014 	sw	$ra,20($sp)
  40c408:	10a0000e 	beqz	$a1,40c444 <_tempnam+0x304>
  40c40c:	afa40018 	sw	$a0,24($sp)
  40c410:	0c10320c 	jal	40c830 <strcpy>
  40c414:	00000000 	nop
  40c418:	8fa40018 	lw	$a0,24($sp)
  40c41c:	0c103238 	jal	40c8e0 <strlen>
  40c420:	00000000 	nop
  40c424:	8fae0018 	lw	$t6,24($sp)
  40c428:	2401002f 	li	$at,47
  40c42c:	004e1821 	addu	$v1,$v0,$t6
  40c430:	906fffff 	lbu	$t7,-1($v1)
  40c434:	00000000 	nop
  40c438:	15e10003 	bne	$t7,$at,40c448 <_tempnam+0x308>
  40c43c:	8fbf0014 	lw	$ra,20($sp)
  40c440:	a060ffff 	sb	$zero,-1($v1)
  40c444:	8fbf0014 	lw	$ra,20($sp)
  40c448:	8fa20018 	lw	$v0,24($sp)
  40c44c:	03e00008 	jr	$ra
  40c450:	27bd0018 	addiu	$sp,$sp,24
	...

0040c460 <memcpy>:
  40c460:	10c0001a 	beqz	$a2,40c4cc <memcpy+0x6c>
  40c464:	00803825 	move	$a3,$a0
  40c468:	10a40018 	beq	$a1,$a0,40c4cc <memcpy+0x6c>
  40c46c:	0085082a 	slt	$at,$a0,$a1
  40c470:	14200008 	bnez	$at,40c494 <memcpy+0x34>
  40c474:	28c10010 	slti	$at,$a2,16
  40c478:	00a61020 	add	$v0,$a1,$a2
  40c47c:	0082082a 	slt	$at,$a0,$v0
  40c480:	10200004 	beqz	$at,40c494 <memcpy+0x34>
  40c484:	28c10010 	slti	$at,$a2,16
  40c488:	1000005b 	b	40c5f8 <memcpy+0x198>
  40c48c:	28c10010 	slti	$at,$a2,16
  40c490:	28c10010 	slti	$at,$a2,16
  40c494:	14200005 	bnez	$at,40c4ac <memcpy+0x4c>
  40c498:	00000000 	nop
  40c49c:	30a20003 	andi	$v0,$a1,0x3
  40c4a0:	30830003 	andi	$v1,$a0,0x3
  40c4a4:	1043000b 	beq	$v0,$v1,40c4d4 <memcpy+0x74>
  40c4a8:	00000000 	nop
  40c4ac:	10c00007 	beqz	$a2,40c4cc <memcpy+0x6c>
  40c4b0:	00000000 	nop
  40c4b4:	00a61821 	addu	$v1,$a1,$a2
  40c4b8:	80a20000 	lb	$v0,0($a1)
  40c4bc:	24a50001 	addiu	$a1,$a1,1
  40c4c0:	24840001 	addiu	$a0,$a0,1
  40c4c4:	14a3fffc 	bne	$a1,$v1,40c4b8 <memcpy+0x58>
  40c4c8:	a082ffff 	sb	$v0,-1($a0)
  40c4cc:	03e00008 	jr	$ra
  40c4d0:	00e01025 	move	$v0,$a3
  40c4d4:	10400018 	beqz	$v0,40c538 <memcpy+0xd8>
  40c4d8:	24010001 	li	$at,1
  40c4dc:	1041000f 	beq	$v0,$at,40c51c <memcpy+0xbc>
  40c4e0:	24010002 	li	$at,2
  40c4e4:	10410007 	beq	$v0,$at,40c504 <memcpy+0xa4>
  40c4e8:	00000000 	nop
  40c4ec:	80a20000 	lb	$v0,0($a1)
  40c4f0:	24a50001 	addiu	$a1,$a1,1
  40c4f4:	24840001 	addiu	$a0,$a0,1
  40c4f8:	24c6ffff 	addiu	$a2,$a2,-1
  40c4fc:	1000000e 	b	40c538 <memcpy+0xd8>
  40c500:	a082ffff 	sb	$v0,-1($a0)
  40c504:	84a20000 	lh	$v0,0($a1)
  40c508:	24a50002 	addiu	$a1,$a1,2
  40c50c:	24840002 	addiu	$a0,$a0,2
  40c510:	24c6fffe 	addiu	$a2,$a2,-2
  40c514:	10000008 	b	40c538 <memcpy+0xd8>
  40c518:	a482fffe 	sh	$v0,-2($a0)
  40c51c:	80a20000 	lb	$v0,0($a1)
  40c520:	84a30001 	lh	$v1,1($a1)
  40c524:	24a50003 	addiu	$a1,$a1,3
  40c528:	24840003 	addiu	$a0,$a0,3
  40c52c:	24c6fffd 	addiu	$a2,$a2,-3
  40c530:	a082fffd 	sb	$v0,-3($a0)
  40c534:	a483fffe 	sh	$v1,-2($a0)
  40c538:	28c10020 	slti	$at,$a2,32
  40c53c:	14200016 	bnez	$at,40c598 <memcpy+0x138>
  40c540:	28c10010 	slti	$at,$a2,16
  40c544:	8ca20000 	lw	$v0,0($a1)
  40c548:	8ca30004 	lw	$v1,4($a1)
  40c54c:	8ca80008 	lw	$t0,8($a1)
  40c550:	8ca9000c 	lw	$t1,12($a1)
  40c554:	8caa0010 	lw	$t2,16($a1)
  40c558:	8cab0014 	lw	$t3,20($a1)
  40c55c:	8cac0018 	lw	$t4,24($a1)
  40c560:	8cad001c 	lw	$t5,28($a1)
  40c564:	24a50020 	addiu	$a1,$a1,32
  40c568:	24840020 	addiu	$a0,$a0,32
  40c56c:	24c6ffe0 	addiu	$a2,$a2,-32
  40c570:	ac82ffe0 	sw	$v0,-32($a0)
  40c574:	ac83ffe4 	sw	$v1,-28($a0)
  40c578:	ac88ffe8 	sw	$t0,-24($a0)
  40c57c:	ac89ffec 	sw	$t1,-20($a0)
  40c580:	ac8afff0 	sw	$t2,-16($a0)
  40c584:	ac8bfff4 	sw	$t3,-12($a0)
  40c588:	ac8cfff8 	sw	$t4,-8($a0)
  40c58c:	1000ffea 	b	40c538 <memcpy+0xd8>
  40c590:	ac8dfffc 	sw	$t5,-4($a0)
  40c594:	28c10010 	slti	$at,$a2,16
  40c598:	1420000e 	bnez	$at,40c5d4 <memcpy+0x174>
  40c59c:	28c10004 	slti	$at,$a2,4
  40c5a0:	8ca20000 	lw	$v0,0($a1)
  40c5a4:	8ca30004 	lw	$v1,4($a1)
  40c5a8:	8ca80008 	lw	$t0,8($a1)
  40c5ac:	8ca9000c 	lw	$t1,12($a1)
  40c5b0:	24a50010 	addiu	$a1,$a1,16
  40c5b4:	24840010 	addiu	$a0,$a0,16
  40c5b8:	24c6fff0 	addiu	$a2,$a2,-16
  40c5bc:	ac82fff0 	sw	$v0,-16($a0)
  40c5c0:	ac83fff4 	sw	$v1,-12($a0)
  40c5c4:	ac88fff8 	sw	$t0,-8($a0)
  40c5c8:	1000fff2 	b	40c594 <memcpy+0x134>
  40c5cc:	ac89fffc 	sw	$t1,-4($a0)
  40c5d0:	28c10004 	slti	$at,$a2,4
  40c5d4:	1420ffb5 	bnez	$at,40c4ac <memcpy+0x4c>
  40c5d8:	00000000 	nop
  40c5dc:	8ca20000 	lw	$v0,0($a1)
  40c5e0:	24a50004 	addiu	$a1,$a1,4
  40c5e4:	24840004 	addiu	$a0,$a0,4
  40c5e8:	24c6fffc 	addiu	$a2,$a2,-4
  40c5ec:	1000fff8 	b	40c5d0 <memcpy+0x170>
  40c5f0:	ac82fffc 	sw	$v0,-4($a0)
  40c5f4:	28c10010 	slti	$at,$a2,16
  40c5f8:	00a62820 	add	$a1,$a1,$a2
  40c5fc:	14200005 	bnez	$at,40c614 <memcpy+0x1b4>
  40c600:	00862020 	add	$a0,$a0,$a2
  40c604:	30a20003 	andi	$v0,$a1,0x3
  40c608:	30830003 	andi	$v1,$a0,0x3
  40c60c:	1043000d 	beq	$v0,$v1,40c644 <memcpy+0x1e4>
  40c610:	00000000 	nop
  40c614:	10c0ffad 	beqz	$a2,40c4cc <memcpy+0x6c>
  40c618:	00000000 	nop
  40c61c:	24a5ffff 	addiu	$a1,$a1,-1
  40c620:	2484ffff 	addiu	$a0,$a0,-1
  40c624:	00a61823 	subu	$v1,$a1,$a2
  40c628:	80a20000 	lb	$v0,0($a1)
  40c62c:	24a5ffff 	addiu	$a1,$a1,-1
  40c630:	2484ffff 	addiu	$a0,$a0,-1
  40c634:	14a3fffc 	bne	$a1,$v1,40c628 <memcpy+0x1c8>
  40c638:	a0820001 	sb	$v0,1($a0)
  40c63c:	03e00008 	jr	$ra
  40c640:	00e01025 	move	$v0,$a3
  40c644:	10400018 	beqz	$v0,40c6a8 <memcpy+0x248>
  40c648:	24010003 	li	$at,3
  40c64c:	1041000f 	beq	$v0,$at,40c68c <memcpy+0x22c>
  40c650:	24010002 	li	$at,2
  40c654:	10410007 	beq	$v0,$at,40c674 <memcpy+0x214>
  40c658:	00000000 	nop
  40c65c:	80a2ffff 	lb	$v0,-1($a1)
  40c660:	24a5ffff 	addiu	$a1,$a1,-1
  40c664:	2484ffff 	addiu	$a0,$a0,-1
  40c668:	24c6ffff 	addiu	$a2,$a2,-1
  40c66c:	1000000e 	b	40c6a8 <memcpy+0x248>
  40c670:	a0820000 	sb	$v0,0($a0)
  40c674:	84a2fffe 	lh	$v0,-2($a1)
  40c678:	24a5fffe 	addiu	$a1,$a1,-2
  40c67c:	2484fffe 	addiu	$a0,$a0,-2
  40c680:	24c6fffe 	addiu	$a2,$a2,-2
  40c684:	10000008 	b	40c6a8 <memcpy+0x248>
  40c688:	a4820000 	sh	$v0,0($a0)
  40c68c:	80a2ffff 	lb	$v0,-1($a1)
  40c690:	84a3fffd 	lh	$v1,-3($a1)
  40c694:	24a5fffd 	addiu	$a1,$a1,-3
  40c698:	2484fffd 	addiu	$a0,$a0,-3
  40c69c:	24c6fffd 	addiu	$a2,$a2,-3
  40c6a0:	a0820002 	sb	$v0,2($a0)
  40c6a4:	a4830000 	sh	$v1,0($a0)
  40c6a8:	28c10020 	slti	$at,$a2,32
  40c6ac:	14200016 	bnez	$at,40c708 <memcpy+0x2a8>
  40c6b0:	28c10010 	slti	$at,$a2,16
  40c6b4:	8ca2fffc 	lw	$v0,-4($a1)
  40c6b8:	8ca3fff8 	lw	$v1,-8($a1)
  40c6bc:	8ca8fff4 	lw	$t0,-12($a1)
  40c6c0:	8ca9fff0 	lw	$t1,-16($a1)
  40c6c4:	8caaffec 	lw	$t2,-20($a1)
  40c6c8:	8cabffe8 	lw	$t3,-24($a1)
  40c6cc:	8cacffe4 	lw	$t4,-28($a1)
  40c6d0:	8cadffe0 	lw	$t5,-32($a1)
  40c6d4:	24a5ffe0 	addiu	$a1,$a1,-32
  40c6d8:	2484ffe0 	addiu	$a0,$a0,-32
  40c6dc:	24c6ffe0 	addiu	$a2,$a2,-32
  40c6e0:	ac82001c 	sw	$v0,28($a0)
  40c6e4:	ac830018 	sw	$v1,24($a0)
  40c6e8:	ac880014 	sw	$t0,20($a0)
  40c6ec:	ac890010 	sw	$t1,16($a0)
  40c6f0:	ac8a000c 	sw	$t2,12($a0)
  40c6f4:	ac8b0008 	sw	$t3,8($a0)
  40c6f8:	ac8c0004 	sw	$t4,4($a0)
  40c6fc:	1000ffea 	b	40c6a8 <memcpy+0x248>
  40c700:	ac8d0000 	sw	$t5,0($a0)
  40c704:	28c10010 	slti	$at,$a2,16
  40c708:	1420000e 	bnez	$at,40c744 <memcpy+0x2e4>
  40c70c:	28c10004 	slti	$at,$a2,4
  40c710:	8ca2fffc 	lw	$v0,-4($a1)
  40c714:	8ca3fff8 	lw	$v1,-8($a1)
  40c718:	8ca8fff4 	lw	$t0,-12($a1)
  40c71c:	8ca9fff0 	lw	$t1,-16($a1)
  40c720:	24a5fff0 	addiu	$a1,$a1,-16
  40c724:	2484fff0 	addiu	$a0,$a0,-16
  40c728:	24c6fff0 	addiu	$a2,$a2,-16
  40c72c:	ac82000c 	sw	$v0,12($a0)
  40c730:	ac830008 	sw	$v1,8($a0)
  40c734:	ac880004 	sw	$t0,4($a0)
  40c738:	1000fff2 	b	40c704 <memcpy+0x2a4>
  40c73c:	ac890000 	sw	$t1,0($a0)
  40c740:	28c10004 	slti	$at,$a2,4
  40c744:	1420ffb3 	bnez	$at,40c614 <memcpy+0x1b4>
  40c748:	00000000 	nop
  40c74c:	8ca2fffc 	lw	$v0,-4($a1)
  40c750:	24a5fffc 	addiu	$a1,$a1,-4
  40c754:	2484fffc 	addiu	$a0,$a0,-4
  40c758:	24c6fffc 	addiu	$a2,$a2,-4
  40c75c:	1000fff8 	b	40c740 <memcpy+0x2e0>
  40c760:	ac820000 	sw	$v0,0($a0)
	...

0040c770 <strcat>:
  40c770:	00801025 	move	$v0,$a0
  40c774:	80880000 	lb	$t0,0($a0)
  40c778:	00000000 	nop
  40c77c:	1500fffd 	bnez	$t0,40c774 <strcat+0x4>
  40c780:	20840001 	addi	$a0,$a0,1
  40c784:	2084ffff 	addi	$a0,$a0,-1
  40c788:	80a80000 	lb	$t0,0($a1)
  40c78c:	348d0003 	ori	$t5,$a0,0x3
  40c790:	11000024 	beqz	$t0,40c824 <strcat+0xb4>
  40c794:	01a47022 	sub	$t6,$t5,$a0
  40c798:	80a90001 	lb	$t1,1($a1)
  40c79c:	00ae7820 	add	$t7,$a1,$t6
  40c7a0:	1120001f 	beqz	$t1,40c820 <strcat+0xb0>
  40c7a4:	00000000 	nop
  40c7a8:	80aa0002 	lb	$t2,2($a1)
  40c7ac:	00000000 	nop
  40c7b0:	1140001a 	beqz	$t2,40c81c <strcat+0xac>
  40c7b4:	88ac0000 	lwl	$t4,0($a1)
  40c7b8:	80ab0003 	lb	$t3,3($a1)
  40c7bc:	98ac0003 	lwr	$t4,3($a1)
  40c7c0:	11600014 	beqz	$t3,40c814 <strcat+0xa4>
  40c7c4:	a88c0000 	swl	$t4,0($a0)
  40c7c8:	21a4fffd 	addi	$a0,$t5,-3
  40c7cc:	81e80001 	lb	$t0,1($t7)
  40c7d0:	21ef0004 	addi	$t7,$t7,4
  40c7d4:	11000013 	beqz	$t0,40c824 <strcat+0xb4>
  40c7d8:	20840004 	addi	$a0,$a0,4
  40c7dc:	81e9fffe 	lb	$t1,-2($t7)
  40c7e0:	00000000 	nop
  40c7e4:	1120000e 	beqz	$t1,40c820 <strcat+0xb0>
  40c7e8:	00000000 	nop
  40c7ec:	81eaffff 	lb	$t2,-1($t7)
  40c7f0:	00000000 	nop
  40c7f4:	11400009 	beqz	$t2,40c81c <strcat+0xac>
  40c7f8:	89ecfffd 	lwl	$t4,-3($t7)
  40c7fc:	81eb0000 	lb	$t3,0($t7)
  40c800:	99ec0000 	lwr	$t4,0($t7)
  40c804:	1560fff1 	bnez	$t3,40c7cc <strcat+0x5c>
  40c808:	ac8c0000 	sw	$t4,0($a0)
  40c80c:	03e00008 	jr	$ra
  40c810:	00000000 	nop
  40c814:	03e00008 	jr	$ra
  40c818:	b88c0003 	swr	$t4,3($a0)
  40c81c:	a08a0002 	sb	$t2,2($a0)
  40c820:	a0890001 	sb	$t1,1($a0)
  40c824:	03e00008 	jr	$ra
  40c828:	a0880000 	sb	$t0,0($a0)
  40c82c:	00000000 	nop

0040c830 <strcpy>:
  40c830:	00801025 	move	$v0,$a0
  40c834:	80a80000 	lb	$t0,0($a1)
  40c838:	348d0003 	ori	$t5,$a0,0x3
  40c83c:	11000024 	beqz	$t0,40c8d0 <strcpy+0xa0>
  40c840:	01a47022 	sub	$t6,$t5,$a0
  40c844:	80a90001 	lb	$t1,1($a1)
  40c848:	00ae7820 	add	$t7,$a1,$t6
  40c84c:	1120001f 	beqz	$t1,40c8cc <strcpy+0x9c>
  40c850:	00000000 	nop
  40c854:	80aa0002 	lb	$t2,2($a1)
  40c858:	00000000 	nop
  40c85c:	1140001a 	beqz	$t2,40c8c8 <strcpy+0x98>
  40c860:	88ac0000 	lwl	$t4,0($a1)
  40c864:	80ab0003 	lb	$t3,3($a1)
  40c868:	98ac0003 	lwr	$t4,3($a1)
  40c86c:	11600014 	beqz	$t3,40c8c0 <strcpy+0x90>
  40c870:	a88c0000 	swl	$t4,0($a0)
  40c874:	21a4fffd 	addi	$a0,$t5,-3
  40c878:	81e80001 	lb	$t0,1($t7)
  40c87c:	21ef0004 	addi	$t7,$t7,4
  40c880:	11000013 	beqz	$t0,40c8d0 <strcpy+0xa0>
  40c884:	20840004 	addi	$a0,$a0,4
  40c888:	81e9fffe 	lb	$t1,-2($t7)
  40c88c:	00000000 	nop
  40c890:	1120000e 	beqz	$t1,40c8cc <strcpy+0x9c>
  40c894:	00000000 	nop
  40c898:	81eaffff 	lb	$t2,-1($t7)
  40c89c:	00000000 	nop
  40c8a0:	11400009 	beqz	$t2,40c8c8 <strcpy+0x98>
  40c8a4:	89ecfffd 	lwl	$t4,-3($t7)
  40c8a8:	81eb0000 	lb	$t3,0($t7)
  40c8ac:	99ec0000 	lwr	$t4,0($t7)
  40c8b0:	1560fff1 	bnez	$t3,40c878 <strcpy+0x48>
  40c8b4:	ac8c0000 	sw	$t4,0($a0)
  40c8b8:	03e00008 	jr	$ra
  40c8bc:	00000000 	nop
  40c8c0:	03e00008 	jr	$ra
  40c8c4:	b88c0003 	swr	$t4,3($a0)
  40c8c8:	a08a0002 	sb	$t2,2($a0)
  40c8cc:	a0890001 	sb	$t1,1($a0)
  40c8d0:	03e00008 	jr	$ra
  40c8d4:	a0880000 	sb	$t0,0($a0)
	...

0040c8e0 <strlen>:
  40c8e0:	2482ffff 	addiu	$v0,$a0,-1
  40c8e4:	90430001 	lbu	$v1,1($v0)
  40c8e8:	20420001 	addi	$v0,$v0,1
  40c8ec:	1460fffd 	bnez	$v1,40c8e4 <strlen+0x4>
  40c8f0:	00000000 	nop
  40c8f4:	03e00008 	jr	$ra
  40c8f8:	00441023 	subu	$v0,$v0,$a0
  40c8fc:	00000000 	nop

0040c900 <strerror>:
  40c900:	27bdffe8 	addiu	$sp,$sp,-24
  40c904:	288103e8 	slti	$at,$a0,1000
  40c908:	14200005 	bnez	$at,40c920 <strerror+0x20>
  40c90c:	afbf0014 	sw	$ra,20($sp)
  40c910:	0c103490 	jal	40d240 <__irixerror>
  40c914:	00000000 	nop
  40c918:	10000011 	b	40c960 <strerror+0x60>
  40c91c:	8fbf0014 	lw	$ra,20($sp)
  40c920:	8f8e8a08 	lw	$t6,-30200($gp)
  40c924:	00000000 	nop
  40c928:	008e082a 	slt	$at,$a0,$t6
  40c92c:	14200005 	bnez	$at,40c944 <strerror+0x44>
  40c930:	00000000 	nop
  40c934:	0c1034ac 	jal	40d2b0 <__svr4error>
  40c938:	00000000 	nop
  40c93c:	10000008 	b	40c960 <strerror+0x60>
  40c940:	8fbf0014 	lw	$ra,20($sp)
  40c944:	04800005 	bltz	$a0,40c95c <strerror+0x5c>
  40c948:	00001025 	move	$v0,$zero
  40c94c:	0c1034c8 	jal	40d320 <__sys_errlisterror>
  40c950:	00000000 	nop
  40c954:	10000002 	b	40c960 <strerror+0x60>
  40c958:	8fbf0014 	lw	$ra,20($sp)
  40c95c:	8fbf0014 	lw	$ra,20($sp)
  40c960:	27bd0018 	addiu	$sp,$sp,24
  40c964:	03e00008 	jr	$ra
	...

0040c970 <strncat>:
  40c970:	90820000 	lbu	$v0,0($a0)
  40c974:	00801825 	move	$v1,$a0
  40c978:	24c60001 	addiu	$a2,$a2,1
  40c97c:	10400005 	beqz	$v0,40c994 <strncat+0x24>
  40c980:	24840001 	addiu	$a0,$a0,1
  40c984:	90820000 	lbu	$v0,0($a0)
  40c988:	24840001 	addiu	$a0,$a0,1
  40c98c:	1440fffd 	bnez	$v0,40c984 <strncat+0x14>
  40c990:	00000000 	nop
  40c994:	90a20000 	lbu	$v0,0($a1)
  40c998:	24840000 	addiu	$a0,$a0,0
  40c99c:	24a50001 	addiu	$a1,$a1,1
  40c9a0:	1040000c 	beqz	$v0,40c9d4 <strncat+0x64>
  40c9a4:	a082ffff 	sb	$v0,-1($a0)
  40c9a8:	24c6ffff 	addiu	$a2,$a2,-1
  40c9ac:	14c00004 	bnez	$a2,40c9c0 <strncat+0x50>
  40c9b0:	00000000 	nop
  40c9b4:	a080ffff 	sb	$zero,-1($a0)
  40c9b8:	03e00008 	jr	$ra
  40c9bc:	00601025 	move	$v0,$v1
  40c9c0:	90a20000 	lbu	$v0,0($a1)
  40c9c4:	24840001 	addiu	$a0,$a0,1
  40c9c8:	24a50001 	addiu	$a1,$a1,1
  40c9cc:	1440fff6 	bnez	$v0,40c9a8 <strncat+0x38>
  40c9d0:	a082ffff 	sb	$v0,-1($a0)
  40c9d4:	03e00008 	jr	$ra
  40c9d8:	00601025 	move	$v0,$v1
  40c9dc:	00000000 	nop

0040c9e0 <_access>:
  40c9e0:	24020409 	li	$v0,1033
  40c9e4:	0000000c 	syscall
  40c9e8:	14e00003 	bnez	$a3,40c9f8 <_access+0x18>
  40c9ec:	00000000 	nop
  40c9f0:	03e00008 	jr	$ra
  40c9f4:	00000000 	nop
  40c9f8:	3c190040 	lui	$t9,0x40
  40c9fc:	273965c0 	addiu	$t9,$t9,26048
  40ca00:	03200008 	jr	$t9
	...

0040ca10 <_fchmod>:
  40ca10:	24020481 	li	$v0,1153
  40ca14:	0000000c 	syscall
  40ca18:	14e00003 	bnez	$a3,40ca28 <_fchmod+0x18>
  40ca1c:	00000000 	nop
  40ca20:	03e00008 	jr	$ra
  40ca24:	00000000 	nop
  40ca28:	3c190040 	lui	$t9,0x40
  40ca2c:	273965c0 	addiu	$t9,$t9,26048
  40ca30:	03200008 	jr	$t9
	...

0040ca40 <_fcntl>:
  40ca40:	24020426 	li	$v0,1062
  40ca44:	0000000c 	syscall
  40ca48:	14e00003 	bnez	$a3,40ca58 <_fcntl+0x18>
  40ca4c:	00000000 	nop
  40ca50:	03e00008 	jr	$ra
  40ca54:	00000000 	nop
  40ca58:	3c190040 	lui	$t9,0x40
  40ca5c:	273965c0 	addiu	$t9,$t9,26048
  40ca60:	03200008 	jr	$t9
	...

0040ca70 <_ioctl>:
  40ca70:	2402041e 	li	$v0,1054
  40ca74:	0000000c 	syscall
  40ca78:	14e00003 	bnez	$a3,40ca88 <_ioctl+0x18>
  40ca7c:	00000000 	nop
  40ca80:	03e00008 	jr	$ra
  40ca84:	00000000 	nop
  40ca88:	3c190040 	lui	$t9,0x40
  40ca8c:	273965c0 	addiu	$t9,$t9,26048
  40ca90:	03200008 	jr	$t9
	...

0040caa0 <_mmap>:
  40caa0:	2402046e 	li	$v0,1134
  40caa4:	0000000c 	syscall
  40caa8:	14e00003 	bnez	$a3,40cab8 <_mmap+0x18>
  40caac:	00000000 	nop
  40cab0:	03e00008 	jr	$ra
  40cab4:	00000000 	nop
  40cab8:	3c190040 	lui	$t9,0x40
  40cabc:	273965c0 	addiu	$t9,$t9,26048
  40cac0:	03200008 	jr	$t9
	...

0040cad0 <_munmap>:
  40cad0:	2402046f 	li	$v0,1135
  40cad4:	0000000c 	syscall
  40cad8:	14e00003 	bnez	$a3,40cae8 <_munmap+0x18>
  40cadc:	00000000 	nop
  40cae0:	03e00008 	jr	$ra
  40cae4:	00000000 	nop
  40cae8:	3c190040 	lui	$t9,0x40
  40caec:	273965c0 	addiu	$t9,$t9,26048
  40caf0:	03200008 	jr	$t9
	...

0040cb00 <_open>:
  40cb00:	240203ed 	li	$v0,1005
  40cb04:	0000000c 	syscall
  40cb08:	14e00003 	bnez	$a3,40cb18 <_open+0x18>
  40cb0c:	00000000 	nop
  40cb10:	03e00008 	jr	$ra
  40cb14:	00000000 	nop
  40cb18:	3c190040 	lui	$t9,0x40
  40cb1c:	273965c0 	addiu	$t9,$t9,26048
  40cb20:	03200008 	jr	$t9
	...

0040cb30 <_sbrk>:
  40cb30:	8f8389e4 	lw	$v1,-30236($gp)
  40cb34:	10800009 	beqz	$a0,40cb5c <_sbrk+0x2c>
  40cb38:	00000000 	nop
  40cb3c:	00832021 	addu	$a0,$a0,$v1
  40cb40:	240203f9 	li	$v0,1017
  40cb44:	0000000c 	syscall
  40cb48:	14e00006 	bnez	$a3,40cb64 <_sbrk+0x34>
  40cb4c:	00000000 	nop
  40cb50:	00601025 	move	$v0,$v1
  40cb54:	03e00008 	jr	$ra
  40cb58:	af8489e4 	sw	$a0,-30236($gp)
  40cb5c:	03e00008 	jr	$ra
  40cb60:	00601025 	move	$v0,$v1
  40cb64:	3c190040 	lui	$t9,0x40
  40cb68:	273965c0 	addiu	$t9,$t9,26048
  40cb6c:	03200008 	jr	$t9
  40cb70:	00000000 	nop

0040cb74 <_brk>:
  40cb74:	8f8289e0 	lw	$v0,-30240($gp)
  40cb78:	00000000 	nop
  40cb7c:	0082082b 	sltu	$at,$a0,$v0
  40cb80:	10200002 	beqz	$at,40cb8c <_brk+0x18>
  40cb84:	00000000 	nop
  40cb88:	00402025 	move	$a0,$v0
  40cb8c:	240203f9 	li	$v0,1017
  40cb90:	0000000c 	syscall
  40cb94:	14e0fff3 	bnez	$a3,40cb64 <_sbrk+0x34>
  40cb98:	00000000 	nop
  40cb9c:	af8489e4 	sw	$a0,-30236($gp)
  40cba0:	03e00008 	jr	$ra
  40cba4:	00001025 	move	$v0,$zero
	...

0040cbb0 <_sginap>:
  40cbb0:	2402043a 	li	$v0,1082
  40cbb4:	0000000c 	syscall
  40cbb8:	14e00003 	bnez	$a3,40cbc8 <_sginap+0x18>
  40cbbc:	00000000 	nop
  40cbc0:	03e00008 	jr	$ra
  40cbc4:	00000000 	nop
  40cbc8:	3c190040 	lui	$t9,0x40
  40cbcc:	273965c0 	addiu	$t9,$t9,26048
  40cbd0:	03200008 	jr	$t9
	...

0040cbe0 <_fstat>:
  40cbe0:	27bdffe8 	addiu	$sp,$sp,-24
  40cbe4:	00a03025 	move	$a2,$a1
  40cbe8:	00802825 	move	$a1,$a0
  40cbec:	afbf0014 	sw	$ra,20($sp)
  40cbf0:	afa40018 	sw	$a0,24($sp)
  40cbf4:	0c105e24 	jal	417890 <_fxstat>
  40cbf8:	24040002 	li	$a0,2
  40cbfc:	8fbf0014 	lw	$ra,20($sp)
  40cc00:	27bd0018 	addiu	$sp,$sp,24
  40cc04:	03e00008 	jr	$ra
	...

0040cc10 <_getpagesize>:
  40cc10:	27bdffe8 	addiu	$sp,$sp,-24
  40cc14:	afbf0014 	sw	$ra,20($sp)
  40cc18:	0c10330c 	jal	40cc30 <_sysmp>
  40cc1c:	2404000e 	li	$a0,14
  40cc20:	8fbf0014 	lw	$ra,20($sp)
  40cc24:	27bd0018 	addiu	$sp,$sp,24
  40cc28:	03e00008 	jr	$ra
  40cc2c:	00000000 	nop

0040cc30 <_sysmp>:
  40cc30:	27bdffe0 	addiu	$sp,$sp,-32
  40cc34:	afa50024 	sw	$a1,36($sp)
  40cc38:	afa60028 	sw	$a2,40($sp)
  40cc3c:	afa7002c 	sw	$a3,44($sp)
  40cc40:	8fae002c 	lw	$t6,44($sp)
  40cc44:	8faf0030 	lw	$t7,48($sp)
  40cc48:	8fa70028 	lw	$a3,40($sp)
  40cc4c:	8fa60024 	lw	$a2,36($sp)
  40cc50:	00802825 	move	$a1,$a0
  40cc54:	afbf001c 	sw	$ra,28($sp)
  40cc58:	afa40020 	sw	$a0,32($sp)
  40cc5c:	24040420 	li	$a0,1056
  40cc60:	afae0010 	sw	$t6,16($sp)
  40cc64:	0c105e60 	jal	417980 <_syscall>
  40cc68:	afaf0014 	sw	$t7,20($sp)
  40cc6c:	8fbf001c 	lw	$ra,28($sp)
  40cc70:	27bd0020 	addiu	$sp,$sp,32
  40cc74:	03e00008 	jr	$ra
	...

0040cc80 <abort>:
  40cc80:	27bdffe0 	addiu	$sp,$sp,-32
  40cc84:	afbf0014 	sw	$ra,20($sp)
  40cc88:	24040006 	li	$a0,6
  40cc8c:	0c105a68 	jal	4169a0 <signal>
  40cc90:	00002825 	move	$a1,$zero
  40cc94:	10400006 	beqz	$v0,40ccb0 <abort+0x30>
  40cc98:	afa2001c 	sw	$v0,28($sp)
  40cc9c:	24040006 	li	$a0,6
  40cca0:	0c105a68 	jal	4169a0 <signal>
  40cca4:	00402825 	move	$a1,$v0
  40cca8:	10000009 	b	40ccd0 <abort+0x50>
  40ccac:	8fae001c 	lw	$t6,28($sp)
  40ccb0:	8f8289f0 	lw	$v0,-30224($gp)
  40ccb4:	24010001 	li	$at,1
  40ccb8:	24420001 	addiu	$v0,$v0,1
  40ccbc:	14410003 	bne	$v0,$at,40cccc <abort+0x4c>
  40ccc0:	af8289f0 	sw	$v0,-30224($gp)
  40ccc4:	0c1019c5 	jal	406714 <_exithandle>
  40ccc8:	00000000 	nop
  40cccc:	8fae001c 	lw	$t6,28($sp)
  40ccd0:	00000000 	nop
  40ccd4:	15c00003 	bnez	$t6,40cce4 <abort+0x64>
  40ccd8:	00000000 	nop
  40ccdc:	0c101580 	jal	405600 <_cleanup>
  40cce0:	00000000 	nop
  40cce4:	0c1059a0 	jal	416680 <raise>
  40cce8:	24040006 	li	$a0,6
  40ccec:	24040006 	li	$a0,6
  40ccf0:	0c105a68 	jal	4169a0 <signal>
  40ccf4:	00002825 	move	$a1,$zero
  40ccf8:	0c101580 	jal	405600 <_cleanup>
  40ccfc:	00000000 	nop
  40cd00:	0c1059a0 	jal	416680 <raise>
  40cd04:	24040006 	li	$a0,6
  40cd08:	0c101560 	jal	405580 <__exit>
  40cd0c:	24040001 	li	$a0,1
  40cd10:	8fbf0014 	lw	$ra,20($sp)
  40cd14:	27bd0020 	addiu	$sp,$sp,32
  40cd18:	03e00008 	jr	$ra
  40cd1c:	00000000 	nop

0040cd20 <_calloc>:
  40cd20:	27bdffe0 	addiu	$sp,$sp,-32
  40cd24:	afbf0014 	sw	$ra,20($sp)
  40cd28:	10800003 	beqz	$a0,40cd38 <_calloc+0x18>
  40cd2c:	00a03025 	move	$a2,$a1
  40cd30:	14a00003 	bnez	$a1,40cd40 <_calloc+0x20>
  40cd34:	00000000 	nop
  40cd38:	1000000e 	b	40cd74 <_calloc+0x54>
  40cd3c:	00002825 	move	$a1,$zero
  40cd40:	00860019 	multu	$a0,$a2
  40cd44:	00001012 	mflo	$v0
  40cd48:	00402825 	move	$a1,$v0
  40cd4c:	00000000 	nop
  40cd50:	0044001b 	divu	$zero,$v0,$a0
  40cd54:	14800002 	bnez	$a0,40cd60 <_calloc+0x40>
  40cd58:	00000000 	nop
  40cd5c:	0007000d 	break	0x7
  40cd60:	00007012 	mflo	$t6
  40cd64:	10ce0004 	beq	$a2,$t6,40cd78 <_calloc+0x58>
  40cd68:	00a02025 	move	$a0,$a1
  40cd6c:	1000000c 	b	40cda0 <_calloc+0x80>
  40cd70:	00001025 	move	$v0,$zero
  40cd74:	00a02025 	move	$a0,$a1
  40cd78:	0c101a6a 	jal	4069a8 <_malloc>
  40cd7c:	afa50018 	sw	$a1,24($sp)
  40cd80:	8fa50018 	lw	$a1,24($sp)
  40cd84:	10400005 	beqz	$v0,40cd9c <_calloc+0x7c>
  40cd88:	00402025 	move	$a0,$v0
  40cd8c:	0c105d10 	jal	417440 <_blkclr>
  40cd90:	afa2001c 	sw	$v0,28($sp)
  40cd94:	8fa4001c 	lw	$a0,28($sp)
  40cd98:	00000000 	nop
  40cd9c:	00801025 	move	$v0,$a0
  40cda0:	8fbf0014 	lw	$ra,20($sp)
  40cda4:	27bd0020 	addiu	$sp,$sp,32
  40cda8:	03e00008 	jr	$ra
  40cdac:	00000000 	nop

0040cdb0 <getenv>:
  40cdb0:	27bdffe0 	addiu	$sp,$sp,-32
  40cdb4:	afb00014 	sw	$s0,20($sp)
  40cdb8:	8f908020 	lw	$s0,-32736($gp)
  40cdbc:	afb10018 	sw	$s1,24($sp)
  40cdc0:	00808825 	move	$s1,$a0
  40cdc4:	16000003 	bnez	$s0,40cdd4 <getenv+0x24>
  40cdc8:	afbf001c 	sw	$ra,28($sp)
  40cdcc:	10000015 	b	40ce24 <getenv+0x74>
  40cdd0:	00001025 	move	$v0,$zero
  40cdd4:	8f8e8020 	lw	$t6,-32736($gp)
  40cdd8:	00000000 	nop
  40cddc:	8dcf0000 	lw	$t7,0($t6)
  40cde0:	00000000 	nop
  40cde4:	11e0000f 	beqz	$t7,40ce24 <getenv+0x74>
  40cde8:	00001025 	move	$v0,$zero
  40cdec:	8e050000 	lw	$a1,0($s0)
  40cdf0:	00000000 	nop
  40cdf4:	02202025 	move	$a0,$s1
  40cdf8:	0c10338e 	jal	40ce38 <getenv+0x88>
  40cdfc:	26100004 	addiu	$s0,$s0,4
  40ce00:	10400003 	beqz	$v0,40ce10 <getenv+0x60>
  40ce04:	00000000 	nop
  40ce08:	10000007 	b	40ce28 <getenv+0x78>
  40ce0c:	8fbf001c 	lw	$ra,28($sp)
  40ce10:	8e050000 	lw	$a1,0($s0)
  40ce14:	00000000 	nop
  40ce18:	14a0fff7 	bnez	$a1,40cdf8 <getenv+0x48>
  40ce1c:	02202025 	move	$a0,$s1
  40ce20:	00001025 	move	$v0,$zero
  40ce24:	8fbf001c 	lw	$ra,28($sp)
  40ce28:	8fb00014 	lw	$s0,20($sp)
  40ce2c:	8fb10018 	lw	$s1,24($sp)
  40ce30:	03e00008 	jr	$ra
  40ce34:	27bd0020 	addiu	$sp,$sp,32
  40ce38:	90830000 	lbu	$v1,0($a0)
  40ce3c:	90ae0000 	lbu	$t6,0($a1)
  40ce40:	24a50001 	addiu	$a1,$a1,1
  40ce44:	146e000a 	bne	$v1,$t6,40ce70 <getenv+0xc0>
  40ce48:	2406003d 	li	$a2,61
  40ce4c:	14c30003 	bne	$a2,$v1,40ce5c <getenv+0xac>
  40ce50:	24840001 	addiu	$a0,$a0,1
  40ce54:	03e00008 	jr	$ra
  40ce58:	00a01025 	move	$v0,$a1
  40ce5c:	90830000 	lbu	$v1,0($a0)
  40ce60:	90af0000 	lbu	$t7,0($a1)
  40ce64:	24a50001 	addiu	$a1,$a1,1
  40ce68:	106ffff8 	beq	$v1,$t7,40ce4c <getenv+0x9c>
  40ce6c:	00000000 	nop
  40ce70:	14600007 	bnez	$v1,40ce90 <getenv+0xe0>
  40ce74:	2406003d 	li	$a2,61
  40ce78:	90b8ffff 	lbu	$t8,-1($a1)
  40ce7c:	00000000 	nop
  40ce80:	14d80004 	bne	$a2,$t8,40ce94 <getenv+0xe4>
  40ce84:	00001025 	move	$v0,$zero
  40ce88:	03e00008 	jr	$ra
  40ce8c:	00a01025 	move	$v0,$a1
  40ce90:	00001025 	move	$v0,$zero
  40ce94:	03e00008 	jr	$ra
	...

0040cea0 <_bset>:
  40cea0:	000570c2 	srl	$t6,$a1,0x3
  40cea4:	01c41021 	addu	$v0,$t6,$a0
  40cea8:	904f0000 	lbu	$t7,0($v0)
  40ceac:	30b80007 	andi	$t8,$a1,0x7
  40ceb0:	24190001 	li	$t9,1
  40ceb4:	03194004 	sllv	$t0,$t9,$t8
  40ceb8:	01e84825 	or	$t1,$t7,$t0
  40cebc:	03e00008 	jr	$ra
  40cec0:	a0490000 	sb	$t1,0($v0)

0040cec4 <_bclr>:
  40cec4:	000570c2 	srl	$t6,$a1,0x3
  40cec8:	01c41021 	addu	$v0,$t6,$a0
  40cecc:	30b80007 	andi	$t8,$a1,0x7
  40ced0:	24190001 	li	$t9,1
  40ced4:	904f0000 	lbu	$t7,0($v0)
  40ced8:	03194004 	sllv	$t0,$t9,$t8
  40cedc:	01004827 	nor	$t1,$t0,$zero
  40cee0:	01e95024 	and	$t2,$t7,$t1
  40cee4:	03e00008 	jr	$ra
  40cee8:	a04a0000 	sb	$t2,0($v0)

0040ceec <_btst>:
  40ceec:	000570c2 	srl	$t6,$a1,0x3
  40cef0:	01c47821 	addu	$t7,$t6,$a0
  40cef4:	91f80000 	lbu	$t8,0($t7)
  40cef8:	30b90007 	andi	$t9,$a1,0x7
  40cefc:	24080001 	li	$t0,1
  40cf00:	03284804 	sllv	$t1,$t0,$t9
  40cf04:	03e00008 	jr	$ra
  40cf08:	03091024 	and	$v0,$t8,$t1

0040cf0c <_bfset>:
  40cf0c:	00c01025 	move	$v0,$a2
  40cf10:	10c0000d 	beqz	$a2,40cf48 <_bfset+0x3c>
  40cf14:	24c6ffff 	addiu	$a2,$a2,-1
  40cf18:	000570c2 	srl	$t6,$a1,0x3
  40cf1c:	01c41821 	addu	$v1,$t6,$a0
  40cf20:	906f0000 	lbu	$t7,0($v1)
  40cf24:	30b80007 	andi	$t8,$a1,0x7
  40cf28:	24190001 	li	$t9,1
  40cf2c:	03194004 	sllv	$t0,$t9,$t8
  40cf30:	00c01025 	move	$v0,$a2
  40cf34:	01e84825 	or	$t1,$t7,$t0
  40cf38:	a0690000 	sb	$t1,0($v1)
  40cf3c:	24a50001 	addiu	$a1,$a1,1
  40cf40:	14c0fff5 	bnez	$a2,40cf18 <_bfset+0xc>
  40cf44:	24c6ffff 	addiu	$a2,$a2,-1
  40cf48:	03e00008 	jr	$ra
  40cf4c:	00000000 	nop

0040cf50 <_bfclr>:
  40cf50:	00c01025 	move	$v0,$a2
  40cf54:	10c0000e 	beqz	$a2,40cf90 <_bfclr+0x40>
  40cf58:	24c6ffff 	addiu	$a2,$a2,-1
  40cf5c:	000570c2 	srl	$t6,$a1,0x3
  40cf60:	01c41821 	addu	$v1,$t6,$a0
  40cf64:	30b80007 	andi	$t8,$a1,0x7
  40cf68:	24190001 	li	$t9,1
  40cf6c:	906f0000 	lbu	$t7,0($v1)
  40cf70:	03194004 	sllv	$t0,$t9,$t8
  40cf74:	01004827 	nor	$t1,$t0,$zero
  40cf78:	00c01025 	move	$v0,$a2
  40cf7c:	01e95024 	and	$t2,$t7,$t1
  40cf80:	a06a0000 	sb	$t2,0($v1)
  40cf84:	24a50001 	addiu	$a1,$a1,1
  40cf88:	14c0fff4 	bnez	$a2,40cf5c <_bfclr+0xc>
  40cf8c:	24c6ffff 	addiu	$a2,$a2,-1
  40cf90:	03e00008 	jr	$ra
  40cf94:	00000000 	nop

0040cf98 <_bftstset>:
  40cf98:	308e0001 	andi	$t6,$a0,0x1
  40cf9c:	27bdfff0 	addiu	$sp,$sp,-16
  40cfa0:	00a03825 	move	$a3,$a1
  40cfa4:	15c00005 	bnez	$t6,40cfbc <_bftstset+0x24>
  40cfa8:	00001825 	move	$v1,$zero
  40cfac:	8fa20004 	lw	$v0,4($sp)
  40cfb0:	00000000 	nop
  40cfb4:	24420001 	addiu	$v0,$v0,1
  40cfb8:	afa20004 	sw	$v0,4($sp)
  40cfbc:	8fa20004 	lw	$v0,4($sp)
  40cfc0:	308f0002 	andi	$t7,$a0,0x2
  40cfc4:	15e00005 	bnez	$t7,40cfdc <_bftstset+0x44>
  40cfc8:	240a00ff 	li	$t2,255
  40cfcc:	8fa50008 	lw	$a1,8($sp)
  40cfd0:	00000000 	nop
  40cfd4:	24a50001 	addiu	$a1,$a1,1
  40cfd8:	afa50008 	sw	$a1,8($sp)
  40cfdc:	8fa50008 	lw	$a1,8($sp)
  40cfe0:	10c00040 	beqz	$a2,40d0e4 <_bftstset+0x14c>
  40cfe4:	27bd0010 	addiu	$sp,$sp,16
  40cfe8:	3409ffff 	li	$t1,0xffff
  40cfec:	2408ffff 	li	$t0,-1
  40cff0:	30f80007 	andi	$t8,$a3,0x7
  40cff4:	1700002d 	bnez	$t8,40d0ac <_bftstset+0x114>
  40cff8:	00000000 	nop
  40cffc:	1040001f 	beqz	$v0,40d07c <_bftstset+0xe4>
  40d000:	30f9000f 	andi	$t9,$a3,0xf
  40d004:	1720001e 	bnez	$t9,40d080 <_bftstset+0xe8>
  40d008:	2cc10008 	sltiu	$at,$a2,8
  40d00c:	10a0000f 	beqz	$a1,40d04c <_bftstset+0xb4>
  40d010:	30eb001f 	andi	$t3,$a3,0x1f
  40d014:	1560000d 	bnez	$t3,40d04c <_bftstset+0xb4>
  40d018:	2cc10020 	sltiu	$at,$a2,32
  40d01c:	1420000b 	bnez	$at,40d04c <_bftstset+0xb4>
  40d020:	000760c2 	srl	$t4,$a3,0x3
  40d024:	01846821 	addu	$t5,$t4,$a0
  40d028:	8dae0000 	lw	$t6,0($t5)
  40d02c:	00000000 	nop
  40d030:	150e0007 	bne	$t0,$t6,40d050 <_bftstset+0xb8>
  40d034:	2cc10010 	sltiu	$at,$a2,16
  40d038:	24c6ffe0 	addiu	$a2,$a2,-32
  40d03c:	2cc10020 	sltiu	$at,$a2,32
  40d040:	24e70020 	addiu	$a3,$a3,32
  40d044:	1020fff6 	beqz	$at,40d020 <_bftstset+0x88>
  40d048:	24630020 	addiu	$v1,$v1,32
  40d04c:	2cc10010 	sltiu	$at,$a2,16
  40d050:	1420000a 	bnez	$at,40d07c <_bftstset+0xe4>
  40d054:	000778c2 	srl	$t7,$a3,0x3
  40d058:	01e4c021 	addu	$t8,$t7,$a0
  40d05c:	97190000 	lhu	$t9,0($t8)
  40d060:	00000000 	nop
  40d064:	15390006 	bne	$t1,$t9,40d080 <_bftstset+0xe8>
  40d068:	2cc10008 	sltiu	$at,$a2,8
  40d06c:	24e70010 	addiu	$a3,$a3,16
  40d070:	24c6fff0 	addiu	$a2,$a2,-16
  40d074:	10000019 	b	40d0dc <_bftstset+0x144>
  40d078:	24630010 	addiu	$v1,$v1,16
  40d07c:	2cc10008 	sltiu	$at,$a2,8
  40d080:	1420000a 	bnez	$at,40d0ac <_bftstset+0x114>
  40d084:	000758c2 	srl	$t3,$a3,0x3
  40d088:	01646021 	addu	$t4,$t3,$a0
  40d08c:	918d0000 	lbu	$t5,0($t4)
  40d090:	00000000 	nop
  40d094:	154d0005 	bne	$t2,$t5,40d0ac <_bftstset+0x114>
  40d098:	00000000 	nop
  40d09c:	24e70008 	addiu	$a3,$a3,8
  40d0a0:	24c6fff8 	addiu	$a2,$a2,-8
  40d0a4:	1000000d 	b	40d0dc <_bftstset+0x144>
  40d0a8:	24630008 	addiu	$v1,$v1,8
  40d0ac:	10c0000d 	beqz	$a2,40d0e4 <_bftstset+0x14c>
  40d0b0:	000770c2 	srl	$t6,$a3,0x3
  40d0b4:	01c47821 	addu	$t7,$t6,$a0
  40d0b8:	91f80000 	lbu	$t8,0($t7)
  40d0bc:	30f90007 	andi	$t9,$a3,0x7
  40d0c0:	240b0001 	li	$t3,1
  40d0c4:	032b6004 	sllv	$t4,$t3,$t9
  40d0c8:	030c6824 	and	$t5,$t8,$t4
  40d0cc:	11a00005 	beqz	$t5,40d0e4 <_bftstset+0x14c>
  40d0d0:	24e70001 	addiu	$a3,$a3,1
  40d0d4:	24c6ffff 	addiu	$a2,$a2,-1
  40d0d8:	24630001 	addiu	$v1,$v1,1
  40d0dc:	14c0ffc5 	bnez	$a2,40cff4 <_bftstset+0x5c>
  40d0e0:	30f80007 	andi	$t8,$a3,0x7
  40d0e4:	03e00008 	jr	$ra
  40d0e8:	00601025 	move	$v0,$v1

0040d0ec <_bftstclr>:
  40d0ec:	308e0001 	andi	$t6,$a0,0x1
  40d0f0:	27bdfff0 	addiu	$sp,$sp,-16
  40d0f4:	15c00005 	bnez	$t6,40d10c <_bftstclr+0x20>
  40d0f8:	00a03825 	move	$a3,$a1
  40d0fc:	8fa20004 	lw	$v0,4($sp)
  40d100:	00000000 	nop
  40d104:	24420001 	addiu	$v0,$v0,1
  40d108:	afa20004 	sw	$v0,4($sp)
  40d10c:	8fa20004 	lw	$v0,4($sp)
  40d110:	308f0002 	andi	$t7,$a0,0x2
  40d114:	15e00006 	bnez	$t7,40d130 <_bftstclr+0x44>
  40d118:	8fa30008 	lw	$v1,8($sp)
  40d11c:	8fa30008 	lw	$v1,8($sp)
  40d120:	00000000 	nop
  40d124:	24630001 	addiu	$v1,$v1,1
  40d128:	afa30008 	sw	$v1,8($sp)
  40d12c:	8fa30008 	lw	$v1,8($sp)
  40d130:	10c0003e 	beqz	$a2,40d22c <_bftstclr+0x140>
  40d134:	00002825 	move	$a1,$zero
  40d138:	30f80007 	andi	$t8,$a3,0x7
  40d13c:	1700002d 	bnez	$t8,40d1f4 <_bftstclr+0x108>
  40d140:	00000000 	nop
  40d144:	1040001f 	beqz	$v0,40d1c4 <_bftstclr+0xd8>
  40d148:	30f9000f 	andi	$t9,$a3,0xf
  40d14c:	1720001e 	bnez	$t9,40d1c8 <_bftstclr+0xdc>
  40d150:	2cc10008 	sltiu	$at,$a2,8
  40d154:	1060000f 	beqz	$v1,40d194 <_bftstclr+0xa8>
  40d158:	30e8001f 	andi	$t0,$a3,0x1f
  40d15c:	1500000d 	bnez	$t0,40d194 <_bftstclr+0xa8>
  40d160:	2cc10020 	sltiu	$at,$a2,32
  40d164:	1420000b 	bnez	$at,40d194 <_bftstclr+0xa8>
  40d168:	000748c2 	srl	$t1,$a3,0x3
  40d16c:	01245021 	addu	$t2,$t1,$a0
  40d170:	8d4b0000 	lw	$t3,0($t2)
  40d174:	00000000 	nop
  40d178:	15600007 	bnez	$t3,40d198 <_bftstclr+0xac>
  40d17c:	2cc10010 	sltiu	$at,$a2,16
  40d180:	24c6ffe0 	addiu	$a2,$a2,-32
  40d184:	2cc10020 	sltiu	$at,$a2,32
  40d188:	24e70020 	addiu	$a3,$a3,32
  40d18c:	1020fff6 	beqz	$at,40d168 <_bftstclr+0x7c>
  40d190:	24a50020 	addiu	$a1,$a1,32
  40d194:	2cc10010 	sltiu	$at,$a2,16
  40d198:	1420000a 	bnez	$at,40d1c4 <_bftstclr+0xd8>
  40d19c:	000760c2 	srl	$t4,$a3,0x3
  40d1a0:	01846821 	addu	$t5,$t4,$a0
  40d1a4:	95ae0000 	lhu	$t6,0($t5)
  40d1a8:	00000000 	nop
  40d1ac:	15c00006 	bnez	$t6,40d1c8 <_bftstclr+0xdc>
  40d1b0:	2cc10008 	sltiu	$at,$a2,8
  40d1b4:	24e70010 	addiu	$a3,$a3,16
  40d1b8:	24c6fff0 	addiu	$a2,$a2,-16
  40d1bc:	10000019 	b	40d224 <_bftstclr+0x138>
  40d1c0:	24a50010 	addiu	$a1,$a1,16
  40d1c4:	2cc10008 	sltiu	$at,$a2,8
  40d1c8:	1420000a 	bnez	$at,40d1f4 <_bftstclr+0x108>
  40d1cc:	000778c2 	srl	$t7,$a3,0x3
  40d1d0:	01e4c021 	addu	$t8,$t7,$a0
  40d1d4:	93190000 	lbu	$t9,0($t8)
  40d1d8:	00000000 	nop
  40d1dc:	17200005 	bnez	$t9,40d1f4 <_bftstclr+0x108>
  40d1e0:	00000000 	nop
  40d1e4:	24e70008 	addiu	$a3,$a3,8
  40d1e8:	24c6fff8 	addiu	$a2,$a2,-8
  40d1ec:	1000000d 	b	40d224 <_bftstclr+0x138>
  40d1f0:	24a50008 	addiu	$a1,$a1,8
  40d1f4:	10c0000d 	beqz	$a2,40d22c <_bftstclr+0x140>
  40d1f8:	000740c2 	srl	$t0,$a3,0x3
  40d1fc:	01044821 	addu	$t1,$t0,$a0
  40d200:	912a0000 	lbu	$t2,0($t1)
  40d204:	30eb0007 	andi	$t3,$a3,0x7
  40d208:	240c0001 	li	$t4,1
  40d20c:	016c6804 	sllv	$t5,$t4,$t3
  40d210:	014d7024 	and	$t6,$t2,$t5
  40d214:	15c00005 	bnez	$t6,40d22c <_bftstclr+0x140>
  40d218:	24e70001 	addiu	$a3,$a3,1
  40d21c:	24c6ffff 	addiu	$a2,$a2,-1
  40d220:	24a50001 	addiu	$a1,$a1,1
  40d224:	14c0ffc5 	bnez	$a2,40d13c <_bftstclr+0x50>
  40d228:	30f80007 	andi	$t8,$a3,0x7
  40d22c:	00a01025 	move	$v0,$a1
  40d230:	03e00008 	jr	$ra
  40d234:	27bd0010 	addiu	$sp,$sp,16
	...

0040d240 <__irixerror>:
  40d240:	27bdffe8 	addiu	$sp,$sp,-24
  40d244:	3c030042 	lui	$v1,0x42
  40d248:	2462d6b4 	addiu	$v0,$v1,-10572
  40d24c:	afbf0014 	sw	$ra,20($sp)
  40d250:	8c4e0000 	lw	$t6,0($v0)
  40d254:	3c0f0042 	lui	$t7,0x42
  40d258:	11c00010 	beqz	$t6,40d29c <__irixerror+0x5c>
  40d25c:	25efd6b4 	addiu	$t7,$t7,-10572
  40d260:	8de30000 	lw	$v1,0($t7)
  40d264:	00000000 	nop
  40d268:	14830008 	bne	$a0,$v1,40d28c <__irixerror+0x4c>
  40d26c:	00000000 	nop
  40d270:	3c040042 	lui	$a0,0x42
  40d274:	8c450004 	lw	$a1,4($v0)
  40d278:	8c460008 	lw	$a2,8($v0)
  40d27c:	0c10350a 	jal	40d428 <__gtxt>
  40d280:	2484b7e0 	addiu	$a0,$a0,-18464
  40d284:	10000007 	b	40d2a4 <__irixerror+0x64>
  40d288:	8fbf0014 	lw	$ra,20($sp)
  40d28c:	8c43000c 	lw	$v1,12($v0)
  40d290:	2442000c 	addiu	$v0,$v0,12
  40d294:	1460fff4 	bnez	$v1,40d268 <__irixerror+0x28>
  40d298:	00000000 	nop
  40d29c:	00001025 	move	$v0,$zero
  40d2a0:	8fbf0014 	lw	$ra,20($sp)
  40d2a4:	27bd0018 	addiu	$sp,$sp,24
  40d2a8:	03e00008 	jr	$ra
  40d2ac:	00000000 	nop

0040d2b0 <__svr4error>:
  40d2b0:	27bdffe8 	addiu	$sp,$sp,-24
  40d2b4:	3c030042 	lui	$v1,0x42
  40d2b8:	2462d690 	addiu	$v0,$v1,-10608
  40d2bc:	afbf0014 	sw	$ra,20($sp)
  40d2c0:	8c4e0000 	lw	$t6,0($v0)
  40d2c4:	3c0f0042 	lui	$t7,0x42
  40d2c8:	11c00010 	beqz	$t6,40d30c <__svr4error+0x5c>
  40d2cc:	25efd690 	addiu	$t7,$t7,-10608
  40d2d0:	8de30000 	lw	$v1,0($t7)
  40d2d4:	00000000 	nop
  40d2d8:	14830008 	bne	$a0,$v1,40d2fc <__svr4error+0x4c>
  40d2dc:	00000000 	nop
  40d2e0:	3c040042 	lui	$a0,0x42
  40d2e4:	8c450004 	lw	$a1,4($v0)
  40d2e8:	8c460008 	lw	$a2,8($v0)
  40d2ec:	0c10350a 	jal	40d428 <__gtxt>
  40d2f0:	2484b7ec 	addiu	$a0,$a0,-18452
  40d2f4:	10000007 	b	40d314 <__svr4error+0x64>
  40d2f8:	8fbf0014 	lw	$ra,20($sp)
  40d2fc:	8c43000c 	lw	$v1,12($v0)
  40d300:	2442000c 	addiu	$v0,$v0,12
  40d304:	1460fff4 	bnez	$v1,40d2d8 <__svr4error+0x28>
  40d308:	00000000 	nop
  40d30c:	00001025 	move	$v0,$zero
  40d310:	8fbf0014 	lw	$ra,20($sp)
  40d314:	27bd0018 	addiu	$sp,$sp,24
  40d318:	03e00008 	jr	$ra
  40d31c:	00000000 	nop

0040d320 <__sys_errlisterror>:
  40d320:	00041080 	sll	$v0,$a0,0x2
  40d324:	3c050042 	lui	$a1,0x42
  40d328:	00a22821 	addu	$a1,$a1,$v0
  40d32c:	8ca5b800 	lw	$a1,-18432($a1)
  40d330:	27bdffe8 	addiu	$sp,$sp,-24
  40d334:	000573c0 	sll	$t6,$a1,0xf
  40d338:	05c10007 	bgez	$t6,40d358 <__sys_errlisterror+0x38>
  40d33c:	afbf0014 	sw	$ra,20($sp)
  40d340:	3c01fffe 	lui	$at,0xfffe
  40d344:	3c040042 	lui	$a0,0x42
  40d348:	00a17824 	and	$t7,$a1,$at
  40d34c:	2484b7e0 	addiu	$a0,$a0,-18464
  40d350:	10000003 	b	40d360 <__sys_errlisterror+0x40>
  40d354:	01e02825 	move	$a1,$t7
  40d358:	3c040042 	lui	$a0,0x42
  40d35c:	2484b7ec 	addiu	$a0,$a0,-18452
  40d360:	3c060042 	lui	$a2,0x42
  40d364:	00c23021 	addu	$a2,$a2,$v0
  40d368:	8cc6d430 	lw	$a2,-11216($a2)
  40d36c:	0c10350a 	jal	40d428 <__gtxt>
  40d370:	00000000 	nop
  40d374:	8fbf0014 	lw	$ra,20($sp)
  40d378:	27bd0018 	addiu	$sp,$sp,24
  40d37c:	03e00008 	jr	$ra
	...

0040d390 <_setcat>:
  40d390:	8f8e80dc 	lw	$t6,-32548($gp)
  40d394:	27bdffe0 	addiu	$sp,$sp,-32
  40d398:	afbf0014 	sw	$ra,20($sp)
  40d39c:	11c00008 	beqz	$t6,40d3c0 <_setcat+0x30>
  40d3a0:	00802825 	move	$a1,$a0
  40d3a4:	8f848b88 	lw	$a0,-29816($gp)
  40d3a8:	0c101ecc 	jal	407b30 <_uspsema>
  40d3ac:	afa50020 	sw	$a1,32($sp)
  40d3b0:	8fa50020 	lw	$a1,32($sp)
  40d3b4:	38430001 	xori	$v1,$v0,0x1
  40d3b8:	10000002 	b	40d3c4 <_setcat+0x34>
  40d3bc:	2c630001 	sltiu	$v1,$v1,1
  40d3c0:	00001825 	move	$v1,$zero
  40d3c4:	10a00008 	beqz	$a1,40d3e8 <_setcat+0x58>
  40d3c8:	3c040042 	lui	$a0,0x42
  40d3cc:	24840b00 	addiu	$a0,$a0,2816
  40d3d0:	2406000e 	li	$a2,14
  40d3d4:	0c105d78 	jal	4175e0 <strncpy>
  40d3d8:	afa3001c 	sw	$v1,28($sp)
  40d3dc:	3c010042 	lui	$at,0x42
  40d3e0:	8fa3001c 	lw	$v1,28($sp)
  40d3e4:	a0200b0e 	sb	$zero,2830($at)
  40d3e8:	10600004 	beqz	$v1,40d3fc <_setcat+0x6c>
  40d3ec:	00000000 	nop
  40d3f0:	8f848b88 	lw	$a0,-29816($gp)
  40d3f4:	0c101ed4 	jal	407b50 <_usvsema>
  40d3f8:	00000000 	nop
  40d3fc:	3c0f0042 	lui	$t7,0x42
  40d400:	91ef0b00 	lbu	$t7,2816($t7)
  40d404:	8fbf0014 	lw	$ra,20($sp)
  40d408:	11e00004 	beqz	$t7,40d41c <_setcat+0x8c>
  40d40c:	27bd0020 	addiu	$sp,$sp,32
  40d410:	3c030042 	lui	$v1,0x42
  40d414:	10000002 	b	40d420 <_setcat+0x90>
  40d418:	24630b00 	addiu	$v1,$v1,2816
  40d41c:	00001825 	move	$v1,$zero
  40d420:	03e00008 	jr	$ra
  40d424:	00601025 	move	$v0,$v1

0040d428 <__gtxt>:
  40d428:	27bdfb08 	addiu	$sp,$sp,-1272
  40d42c:	afbf0044 	sw	$ra,68($sp)
  40d430:	afb60038 	sw	$s6,56($sp)
  40d434:	00a0b025 	move	$s6,$a1
  40d438:	afbe0040 	sw	$s8,64($sp)
  40d43c:	afb7003c 	sw	$s7,60($sp)
  40d440:	afb50034 	sw	$s5,52($sp)
  40d444:	afb40030 	sw	$s4,48($sp)
  40d448:	afb3002c 	sw	$s3,44($sp)
  40d44c:	afb20028 	sw	$s2,40($sp)
  40d450:	afb10024 	sw	$s1,36($sp)
  40d454:	afb00020 	sw	$s0,32($sp)
  40d458:	afa404f8 	sw	$a0,1272($sp)
  40d45c:	0c101ec5 	jal	407b14 <__oserror>
  40d460:	afa60500 	sw	$a2,1280($sp)
  40d464:	8c4e0000 	lw	$t6,0($v0)
  40d468:	8f8f80dc 	lw	$t7,-32548($gp)
  40d46c:	8f848b88 	lw	$a0,-29816($gp)
  40d470:	11e00007 	beqz	$t7,40d490 <__gtxt+0x68>
  40d474:	afae00ec 	sw	$t6,236($sp)
  40d478:	0c101ecc 	jal	407b30 <_uspsema>
  40d47c:	00000000 	nop
  40d480:	38580001 	xori	$t8,$v0,0x1
  40d484:	2f180001 	sltiu	$t8,$t8,1
  40d488:	10000002 	b	40d494 <__gtxt+0x6c>
  40d48c:	afb80054 	sw	$t8,84($sp)
  40d490:	afa00054 	sw	$zero,84($sp)
  40d494:	06c0010d 	bltz	$s6,40d8cc <__gtxt+0x4a4>
  40d498:	8faa0054 	lw	$t2,84($sp)
  40d49c:	8f92af20 	lw	$s2,-20704($gp)
  40d4a0:	00000000 	nop
  40d4a4:	1640000a 	bnez	$s2,40d4d0 <__gtxt+0xa8>
  40d4a8:	8fb904f8 	lw	$t9,1272($sp)
  40d4ac:	0c101a6a 	jal	4069a8 <_malloc>
  40d4b0:	24040078 	li	$a0,120
  40d4b4:	14400003 	bnez	$v0,40d4c4 <__gtxt+0x9c>
  40d4b8:	00409025 	move	$s2,$v0
  40d4bc:	10000102 	b	40d8c8 <__gtxt+0x4a0>
  40d4c0:	af82af20 	sw	$v0,-20704($gp)
  40d4c4:	24020003 	li	$v0,3
  40d4c8:	af82af28 	sw	$v0,-20696($gp)
  40d4cc:	8fb904f8 	lw	$t9,1272($sp)
  40d4d0:	8f82af28 	lw	$v0,-20696($gp)
  40d4d4:	13200004 	beqz	$t9,40d4e8 <__gtxt+0xc0>
  40d4d8:	3c030042 	lui	$v1,0x42
  40d4dc:	93280000 	lbu	$t0,0($t9)
  40d4e0:	00000000 	nop
  40d4e4:	1500000c 	bnez	$t0,40d518 <__gtxt+0xf0>
  40d4e8:	24630b00 	addiu	$v1,$v1,2816
  40d4ec:	af82af28 	sw	$v0,-20696($gp)
  40d4f0:	106000f5 	beqz	$v1,40d8c8 <__gtxt+0x4a0>
  40d4f4:	af92af20 	sw	$s2,-20704($gp)
  40d4f8:	90690000 	lbu	$t1,0($v1)
  40d4fc:	00000000 	nop
  40d500:	15200004 	bnez	$t1,40d514 <__gtxt+0xec>
  40d504:	00000000 	nop
  40d508:	af92af20 	sw	$s2,-20704($gp)
  40d50c:	100000ee 	b	40d8c8 <__gtxt+0x4a0>
  40d510:	af82af28 	sw	$v0,-20696($gp)
  40d514:	afa304f8 	sw	$v1,1272($sp)
  40d518:	3c1e0042 	lui	$s8,0x42
  40d51c:	3c170042 	lui	$s7,0x42
  40d520:	26f7d9ab 	addiu	$s7,$s7,-9813
  40d524:	27debae8 	addiu	$s8,$s8,-17688
  40d528:	0000a025 	move	$s4,$zero
  40d52c:	00008825 	move	$s1,$zero
  40d530:	af82af28 	sw	$v0,-20696($gp)
  40d534:	af92af20 	sw	$s2,-20704($gp)
  40d538:	2415ffff 	li	$s5,-1
  40d53c:	27b300f8 	addiu	$s3,$sp,248
  40d540:	8f8aaf24 	lw	$t2,-20700($gp)
  40d544:	8fa604f8 	lw	$a2,1272($sp)
  40d548:	8f92af20 	lw	$s2,-20704($gp)
  40d54c:	028a082a 	slt	$at,$s4,$t2
  40d550:	10200015 	beqz	$at,40d5a8 <__gtxt+0x180>
  40d554:	00148080 	sll	$s0,$s4,0x2
  40d558:	02148021 	addu	$s0,$s0,$s4
  40d55c:	001080c0 	sll	$s0,$s0,0x3
  40d560:	afa604f8 	sw	$a2,1272($sp)
  40d564:	af92af20 	sw	$s2,-20704($gp)
  40d568:	8f92af20 	lw	$s2,-20704($gp)
  40d56c:	8fa404f8 	lw	$a0,1272($sp)
  40d570:	0c105cfc 	jal	4173f0 <strcmp>
  40d574:	02502821 	addu	$a1,$s2,$s0
  40d578:	14400004 	bnez	$v0,40d58c <__gtxt+0x164>
  40d57c:	00000000 	nop
  40d580:	8f92af20 	lw	$s2,-20704($gp)
  40d584:	10000008 	b	40d5a8 <__gtxt+0x180>
  40d588:	00000000 	nop
  40d58c:	8f8baf24 	lw	$t3,-20700($gp)
  40d590:	26940001 	addiu	$s4,$s4,1
  40d594:	028b082a 	slt	$at,$s4,$t3
  40d598:	1420fff3 	bnez	$at,40d568 <__gtxt+0x140>
  40d59c:	26100028 	addiu	$s0,$s0,40
  40d5a0:	8f92af20 	lw	$s2,-20704($gp)
  40d5a4:	00000000 	nop
  40d5a8:	8f8caf24 	lw	$t4,-20700($gp)
  40d5ac:	8f82af28 	lw	$v0,-20696($gp)
  40d5b0:	8fa604f8 	lw	$a2,1272($sp)
  40d5b4:	168c0022 	bne	$s4,$t4,40d640 <__gtxt+0x218>
  40d5b8:	00147880 	sll	$t7,$s4,0x2
  40d5bc:	af82af28 	sw	$v0,-20696($gp)
  40d5c0:	1582000e 	bne	$t4,$v0,40d5fc <__gtxt+0x1d4>
  40d5c4:	afa604f8 	sw	$a2,1272($sp)
  40d5c8:	24420001 	addiu	$v0,$v0,1
  40d5cc:	00022880 	sll	$a1,$v0,0x2
  40d5d0:	00a22821 	addu	$a1,$a1,$v0
  40d5d4:	000528c0 	sll	$a1,$a1,0x3
  40d5d8:	af82af28 	sw	$v0,-20696($gp)
  40d5dc:	02402025 	move	$a0,$s2
  40d5e0:	afa604f8 	sw	$a2,1272($sp)
  40d5e4:	0c101b29 	jal	406ca4 <_realloc>
  40d5e8:	af92af20 	sw	$s2,-20704($gp)
  40d5ec:	14400003 	bnez	$v0,40d5fc <__gtxt+0x1d4>
  40d5f0:	00409025 	move	$s2,$v0
  40d5f4:	100000b4 	b	40d8c8 <__gtxt+0x4a0>
  40d5f8:	af82af20 	sw	$v0,-20704($gp)
  40d5fc:	00148080 	sll	$s0,$s4,0x2
  40d600:	02148021 	addu	$s0,$s0,$s4
  40d604:	8fa504f8 	lw	$a1,1272($sp)
  40d608:	001080c0 	sll	$s0,$s0,0x3
  40d60c:	02502021 	addu	$a0,$s2,$s0
  40d610:	0c10320c 	jal	40c830 <strcpy>
  40d614:	af92af20 	sw	$s2,-20704($gp)
  40d618:	8f92af20 	lw	$s2,-20704($gp)
  40d61c:	00000000 	nop
  40d620:	02501821 	addu	$v1,$s2,$s0
  40d624:	a0710027 	sb	$s1,39($v1)
  40d628:	a0600018 	sb	$zero,24($v1)
  40d62c:	8f8daf24 	lw	$t5,-20700($gp)
  40d630:	00000000 	nop
  40d634:	25ae0001 	addiu	$t6,$t5,1
  40d638:	af8eaf24 	sw	$t6,-20700($gp)
  40d63c:	00147880 	sll	$t7,$s4,0x2
  40d640:	01f47821 	addu	$t7,$t7,$s4
  40d644:	000f78c0 	sll	$t7,$t7,0x3
  40d648:	01f21021 	addu	$v0,$t7,$s2
  40d64c:	00408825 	move	$s1,$v0
  40d650:	24450018 	addiu	$a1,$v0,24
  40d654:	02e02025 	move	$a0,$s7
  40d658:	0c105cfc 	jal	4173f0 <strcmp>
  40d65c:	af92af20 	sw	$s2,-20704($gp)
  40d660:	1040000e 	beqz	$v0,40d69c <__gtxt+0x274>
  40d664:	00000000 	nop
  40d668:	92230027 	lbu	$v1,39($s1)
  40d66c:	00000000 	nop
  40d670:	30780001 	andi	$t8,$v1,0x1
  40d674:	13000008 	beqz	$t8,40d698 <__gtxt+0x270>
  40d678:	3079fffc 	andi	$t9,$v1,0xfffc
  40d67c:	8e240010 	lw	$a0,16($s1)
  40d680:	8e250014 	lw	$a1,20($s1)
  40d684:	0c1032b4 	jal	40cad0 <_munmap>
  40d688:	00000000 	nop
  40d68c:	92230027 	lbu	$v1,39($s1)
  40d690:	00000000 	nop
  40d694:	3079fffc 	andi	$t9,$v1,0xfffc
  40d698:	a2390027 	sb	$t9,39($s1)
  40d69c:	92230027 	lbu	$v1,39($s1)
  40d6a0:	26300018 	addiu	$s0,$s1,24
  40d6a4:	30680002 	andi	$t0,$v1,0x2
  40d6a8:	15000049 	bnez	$t0,40d7d0 <__gtxt+0x3a8>
  40d6ac:	34690002 	ori	$t1,$v1,0x2
  40d6b0:	a2290027 	sb	$t1,39($s1)
  40d6b4:	02002025 	move	$a0,$s0
  40d6b8:	0c10320c 	jal	40c830 <strcpy>
  40d6bc:	02e02825 	move	$a1,$s7
  40d6c0:	8bc10000 	lwl	$at,0($s8)
  40d6c4:	9bc10003 	lwr	$at,3($s8)
  40d6c8:	8bcb0004 	lwl	$t3,4($s8)
  40d6cc:	ae610000 	sw	$at,0($s3)
  40d6d0:	9bcb0007 	lwr	$t3,7($s8)
  40d6d4:	8bc10008 	lwl	$at,8($s8)
  40d6d8:	9bc1000b 	lwr	$at,11($s8)
  40d6dc:	ae6b0004 	sw	$t3,4($s3)
  40d6e0:	8bcb000c 	lwl	$t3,12($s8)
  40d6e4:	ae610008 	sw	$at,8($s3)
  40d6e8:	93c10010 	lbu	$at,16($s8)
  40d6ec:	9bcb000f 	lwr	$t3,15($s8)
  40d6f0:	a2610010 	sb	$at,16($s3)
  40d6f4:	ae6b000c 	sw	$t3,12($s3)
  40d6f8:	922c0027 	lbu	$t4,39($s1)
  40d6fc:	02002825 	move	$a1,$s0
  40d700:	318d0004 	andi	$t5,$t4,0x4
  40d704:	11a00003 	beqz	$t5,40d714 <__gtxt+0x2ec>
  40d708:	00000000 	nop
  40d70c:	10000001 	b	40d714 <__gtxt+0x2ec>
  40d710:	27858a24 	addiu	$a1,$gp,-30172
  40d714:	0c10320c 	jal	40c830 <strcpy>
  40d718:	27a40108 	addiu	$a0,$sp,264
  40d71c:	3c050042 	lui	$a1,0x42
  40d720:	24a5bafc 	addiu	$a1,$a1,-17668
  40d724:	0c1031dc 	jal	40c770 <strcat>
  40d728:	02602025 	move	$a0,$s3
  40d72c:	02602025 	move	$a0,$s3
  40d730:	0c1031dc 	jal	40c770 <strcat>
  40d734:	02202825 	move	$a1,$s1
  40d738:	02602025 	move	$a0,$s3
  40d73c:	0c1032c0 	jal	40cb00 <_open>
  40d740:	00002825 	move	$a1,$zero
  40d744:	1055000f 	beq	$v0,$s5,40d784 <__gtxt+0x35c>
  40d748:	00408025 	move	$s0,$v0
  40d74c:	00402025 	move	$a0,$v0
  40d750:	0c1032f8 	jal	40cbe0 <_fstat>
  40d754:	27a50064 	addiu	$a1,$sp,100
  40d758:	1055000a 	beq	$v0,$s5,40d784 <__gtxt+0x35c>
  40d75c:	00002025 	move	$a0,$zero
  40d760:	8fa50094 	lw	$a1,148($sp)
  40d764:	24060001 	li	$a2,1
  40d768:	24070001 	li	$a3,1
  40d76c:	afb00010 	sw	$s0,16($sp)
  40d770:	0c1032a8 	jal	40caa0 <_mmap>
  40d774:	afa00014 	sw	$zero,20($sp)
  40d778:	2401ffff 	li	$at,-1
  40d77c:	1441000b 	bne	$v0,$at,40d7ac <__gtxt+0x384>
  40d780:	00409025 	move	$s2,$v0
  40d784:	12150004 	beq	$s0,$s5,40d798 <__gtxt+0x370>
  40d788:	8fa400ec 	lw	$a0,236($sp)
  40d78c:	0c101978 	jal	4065e0 <_close>
  40d790:	02002025 	move	$a0,$s0
  40d794:	8fa400ec 	lw	$a0,236($sp)
  40d798:	0c101ebd 	jal	407af4 <_setoserror>
  40d79c:	00000000 	nop
  40d7a0:	92230027 	lbu	$v1,39($s1)
  40d7a4:	1000000a 	b	40d7d0 <__gtxt+0x3a8>
  40d7a8:	00000000 	nop
  40d7ac:	0c101978 	jal	4065e0 <_close>
  40d7b0:	02002025 	move	$a0,$s0
  40d7b4:	922e0027 	lbu	$t6,39($s1)
  40d7b8:	ae320010 	sw	$s2,16($s1)
  40d7bc:	35cf0001 	ori	$t7,$t6,0x1
  40d7c0:	a22f0027 	sb	$t7,39($s1)
  40d7c4:	8fb80094 	lw	$t8,148($sp)
  40d7c8:	31e300ff 	andi	$v1,$t7,0xff
  40d7cc:	ae380014 	sw	$t8,20($s1)
  40d7d0:	12c00018 	beqz	$s6,40d834 <__gtxt+0x40c>
  40d7d4:	30790001 	andi	$t9,$v1,0x1
  40d7d8:	13200017 	beqz	$t9,40d838 <__gtxt+0x410>
  40d7dc:	306d0004 	andi	$t5,$v1,0x4
  40d7e0:	8e240010 	lw	$a0,16($s1)
  40d7e4:	00000000 	nop
  40d7e8:	8c880000 	lw	$t0,0($a0)
  40d7ec:	00000000 	nop
  40d7f0:	0116082a 	slt	$at,$t0,$s6
  40d7f4:	14200010 	bnez	$at,40d838 <__gtxt+0x410>
  40d7f8:	306d0004 	andi	$t5,$v1,0x4
  40d7fc:	8fa90054 	lw	$t1,84($sp)
  40d800:	00000000 	nop
  40d804:	11200007 	beqz	$t1,40d824 <__gtxt+0x3fc>
  40d808:	00165080 	sll	$t2,$s6,0x2
  40d80c:	8f848b88 	lw	$a0,-29816($gp)
  40d810:	0c101ed4 	jal	407b50 <_usvsema>
  40d814:	00000000 	nop
  40d818:	8e240010 	lw	$a0,16($s1)
  40d81c:	00000000 	nop
  40d820:	00165080 	sll	$t2,$s6,0x2
  40d824:	008a5821 	addu	$t3,$a0,$t2
  40d828:	8d6c0000 	lw	$t4,0($t3)
  40d82c:	1000002e 	b	40d8e8 <__gtxt+0x4c0>
  40d830:	01841021 	addu	$v0,$t4,$a0
  40d834:	306d0004 	andi	$t5,$v1,0x4
  40d838:	15a00005 	bnez	$t5,40d850 <__gtxt+0x428>
  40d83c:	26240018 	addiu	$a0,$s1,24
  40d840:	0c105cfc 	jal	4173f0 <strcmp>
  40d844:	27858a28 	addiu	$a1,$gp,-30168
  40d848:	14400013 	bnez	$v0,40d898 <__gtxt+0x470>
  40d84c:	00000000 	nop
  40d850:	8fae0054 	lw	$t6,84($sp)
  40d854:	8f848b88 	lw	$a0,-29816($gp)
  40d858:	11c00004 	beqz	$t6,40d86c <__gtxt+0x444>
  40d85c:	8fa20500 	lw	$v0,1280($sp)
  40d860:	0c101ed4 	jal	407b50 <_usvsema>
  40d864:	00000000 	nop
  40d868:	8fa20500 	lw	$v0,1280($sp)
  40d86c:	8f858a20 	lw	$a1,-30176($gp)
  40d870:	10400007 	beqz	$v0,40d890 <__gtxt+0x468>
  40d874:	00000000 	nop
  40d878:	904f0000 	lbu	$t7,0($v0)
  40d87c:	00000000 	nop
  40d880:	11e00003 	beqz	$t7,40d890 <__gtxt+0x468>
  40d884:	00000000 	nop
  40d888:	10000018 	b	40d8ec <__gtxt+0x4c4>
  40d88c:	8fbf0044 	lw	$ra,68($sp)
  40d890:	10000015 	b	40d8e8 <__gtxt+0x4c0>
  40d894:	00a01025 	move	$v0,$a1
  40d898:	92230027 	lbu	$v1,39($s1)
  40d89c:	00000000 	nop
  40d8a0:	30780001 	andi	$t8,$v1,0x1
  40d8a4:	17000005 	bnez	$t8,40d8bc <__gtxt+0x494>
  40d8a8:	34680004 	ori	$t0,$v1,0x4
  40d8ac:	a2280027 	sb	$t0,39($s1)
  40d8b0:	3109fffd 	andi	$t1,$t0,0xfffd
  40d8b4:	1000ff79 	b	40d69c <__gtxt+0x274>
  40d8b8:	a2290027 	sb	$t1,39($s1)
  40d8bc:	24110004 	li	$s1,4
  40d8c0:	1000ff1f 	b	40d540 <__gtxt+0x118>
  40d8c4:	26940001 	addiu	$s4,$s4,1
  40d8c8:	8faa0054 	lw	$t2,84($sp)
  40d8cc:	8f848b88 	lw	$a0,-29816($gp)
  40d8d0:	11400003 	beqz	$t2,40d8e0 <__gtxt+0x4b8>
  40d8d4:	00000000 	nop
  40d8d8:	0c101ed4 	jal	407b50 <_usvsema>
  40d8dc:	00000000 	nop
  40d8e0:	8f828a20 	lw	$v0,-30176($gp)
  40d8e4:	00000000 	nop
  40d8e8:	8fbf0044 	lw	$ra,68($sp)
  40d8ec:	8fb00020 	lw	$s0,32($sp)
  40d8f0:	8fb10024 	lw	$s1,36($sp)
  40d8f4:	8fb20028 	lw	$s2,40($sp)
  40d8f8:	8fb3002c 	lw	$s3,44($sp)
  40d8fc:	8fb40030 	lw	$s4,48($sp)
  40d900:	8fb50034 	lw	$s5,52($sp)
  40d904:	8fb60038 	lw	$s6,56($sp)
  40d908:	8fb7003c 	lw	$s7,60($sp)
  40d90c:	8fbe0040 	lw	$s8,64($sp)
  40d910:	03e00008 	jr	$ra
  40d914:	27bd04f8 	addiu	$sp,$sp,1272
	...

0040d920 <_cassearchstart>:
  40d920:	848d0012 	lh	$t5,18($a0)
  40d924:	848c0010 	lh	$t4,16($a0)
  40d928:	15a00027 	bnez	$t5,40d9c8 <_lockcas2end+0x48>
  40d92c:	00000000 	nop

0040d930 <_lockcas1start>:
  40d930:	8c85000c 	lw	$a1,12($a0)
  40d934:	3c020001 	lui	$v0,0x1
  40d938:	00057c02 	srl	$t7,$a1,0x10
  40d93c:	11ec0003 	beq	$t7,$t4,40d94c <_lockcas1start+0x1c>
  40d940:	30aeffff 	andi	$t6,$a1,0xffff
  40d944:	10000002 	b	40d950 <_lockcas1start+0x20>
  40d948:	00453021 	addu	$a2,$v0,$a1
  40d94c:	01c03025 	move	$a2,$t6
  40d950:	ac86000c 	sw	$a2,12($a0)

0040d954 <_lockcas1end>:
  40d954:	15ee0003 	bne	$t7,$t6,40d964 <_lockcas1end+0x10>
  40d958:	00000000 	nop
  40d95c:	03e00008 	jr	$ra
  40d960:	24020001 	li	$v0,1
  40d964:	3c0a0020 	lui	$t2,0x20
  40d968:	000f1080 	sll	$v0,$t7,0x2
  40d96c:	8d460e00 	lw	$a2,3584($t2)
  40d970:	00825821 	addu	$t3,$a0,$v0

0040d974 <_lockcas2start>:
  40d974:	8d65001c 	lw	$a1,28($t3)
  40d978:	00000000 	nop
  40d97c:	ad66001c 	sw	$a2,28($t3)

0040d980 <_lockcas2end>:
  40d980:	24030001 	li	$v1,1
  40d984:	10a3000c 	beq	$a1,$v1,40d9b8 <_lockcas2end+0x38>
  40d988:	00000000 	nop
  40d98c:	27bdffe0 	addiu	$sp,$sp,-32
  40d990:	afbf001c 	sw	$ra,28($sp)
  40d994:	8c840000 	lw	$a0,0($a0)
  40d998:	3c070042 	lui	$a3,0x42
  40d99c:	00002825 	move	$a1,$zero
  40d9a0:	00c03025 	move	$a2,$a2
  40d9a4:	0c10293a 	jal	40a4e8 <_usblock>
  40d9a8:	24e7d6f0 	addiu	$a3,$a3,-10512
  40d9ac:	8fbf001c 	lw	$ra,28($sp)
  40d9b0:	14400003 	bnez	$v0,40d9c0 <_lockcas2end+0x40>
  40d9b4:	27bd0020 	addiu	$sp,$sp,32
  40d9b8:	03e00008 	jr	$ra
  40d9bc:	24020001 	li	$v0,1
  40d9c0:	03e00008 	jr	$ra
  40d9c4:	2402ffff 	li	$v0,-1
  40d9c8:	3c190041 	lui	$t9,0x41
  40d9cc:	273980a0 	addiu	$t9,$t9,-32608
  40d9d0:	03200008 	jr	$t9
  40d9d4:	03e02825 	move	$a1,$ra

0040d9d8 <_scsetlock>:
  40d9d8:	848d0012 	lh	$t5,18($a0)
  40d9dc:	848c0010 	lh	$t4,16($a0)
  40d9e0:	15a00016 	bnez	$t5,40da3c <_clockcas1end+0x1c>
  40d9e4:	00000000 	nop
  40d9e8:	10a00012 	beqz	$a1,40da34 <_clockcas1end+0x14>
  40d9ec:	00000000 	nop

0040d9f0 <_clockcas1start>:
  40d9f0:	8c87000c 	lw	$a3,12($a0)
  40d9f4:	3c020001 	lui	$v0,0x1
  40d9f8:	00077c02 	srl	$t7,$a3,0x10
  40d9fc:	30eeffff 	andi	$t6,$a3,0xffff
  40da00:	15ee0009 	bne	$t7,$t6,40da28 <_clockcas1end+0x8>
  40da04:	00000000 	nop
  40da08:	11ec0003 	beq	$t7,$t4,40da18 <_clockcas1start+0x28>
  40da0c:	00000000 	nop
  40da10:	10000002 	b	40da1c <_clockcas1start+0x2c>
  40da14:	00473021 	addu	$a2,$v0,$a3
  40da18:	01c03025 	move	$a2,$t6
  40da1c:	ac86000c 	sw	$a2,12($a0)

0040da20 <_clockcas1end>:
  40da20:	03e00008 	jr	$ra
  40da24:	24020001 	li	$v0,1
  40da28:	24a5ffff 	addiu	$a1,$a1,-1
  40da2c:	14a0fff0 	bnez	$a1,40d9f0 <_clockcas1start>
  40da30:	00000000 	nop
  40da34:	03e00008 	jr	$ra
  40da38:	00001025 	move	$v0,$zero
  40da3c:	3c190041 	lui	$t9,0x41
  40da40:	27398490 	addiu	$t9,$t9,-31600
  40da44:	03200008 	jr	$t9
  40da48:	03e03025 	move	$a2,$ra

0040da4c <_sunsetlock>:
  40da4c:	848b0012 	lh	$t3,18($a0)
  40da50:	848c0010 	lh	$t4,16($a0)
  40da54:	15600032 	bnez	$t3,40db20 <_unlockcas2end+0x60>
  40da58:	00000000 	nop

0040da5c <_unlockcas1start>:
  40da5c:	8c85000c 	lw	$a1,12($a0)
  40da60:	3c03ffff 	lui	$v1,0xffff
  40da64:	30aeffff 	andi	$t6,$a1,0xffff
  40da68:	000e1080 	sll	$v0,$t6,0x2
  40da6c:	00057c02 	srl	$t7,$a1,0x10
  40da70:	11cf000b 	beq	$t6,$t7,40daa0 <_unlockcas1end+0x8>
  40da74:	00826821 	addu	$t5,$a0,$v0
  40da78:	ada0001c 	sw	$zero,28($t5)
  40da7c:	11cc0003 	beq	$t6,$t4,40da8c <_unlockcas1start+0x30>
  40da80:	25d80001 	addiu	$t8,$t6,1
  40da84:	10000003 	b	40da94 <_unlockcas1start+0x38>
  40da88:	24a60001 	addiu	$a2,$a1,1
  40da8c:	0000c025 	move	$t8,$zero
  40da90:	00a33024 	and	$a2,$a1,$v1
  40da94:	ac86000c 	sw	$a2,12($a0)

0040da98 <_unlockcas1end>:
  40da98:	15f80003 	bne	$t7,$t8,40daa8 <_unlockcas1end+0x10>
  40da9c:	00000000 	nop
  40daa0:	03e00008 	jr	$ra
  40daa4:	00001025 	move	$v0,$zero
  40daa8:	00181080 	sll	$v0,$t8,0x2
  40daac:	24060001 	li	$a2,1
  40dab0:	00825821 	addu	$t3,$a0,$v0

0040dab4 <_unlockcas2start>:
  40dab4:	8d6a001c 	lw	$t2,28($t3)
  40dab8:	00000000 	nop
  40dabc:	ad66001c 	sw	$a2,28($t3)

0040dac0 <_unlockcas2end>:
  40dac0:	2d430002 	sltiu	$v1,$t2,2
  40dac4:	1460000e 	bnez	$v1,40db00 <_unlockcas2end+0x40>
  40dac8:	00000000 	nop
  40dacc:	27bdffe0 	addiu	$sp,$sp,-32
  40dad0:	afbf001c 	sw	$ra,28($sp)
  40dad4:	afa40014 	sw	$a0,20($sp)
  40dad8:	8c840000 	lw	$a0,0($a0)
  40dadc:	3c070042 	lui	$a3,0x42
  40dae0:	00002825 	move	$a1,$zero
  40dae4:	01403025 	move	$a2,$t2
  40dae8:	0c10298e 	jal	40a638 <_usunblock>
  40daec:	24e7d6fa 	addiu	$a3,$a3,-10502
  40daf0:	8fa40014 	lw	$a0,20($sp)
  40daf4:	8fbf001c 	lw	$ra,28($sp)
  40daf8:	14400003 	bnez	$v0,40db08 <_unlockcas2end+0x48>
  40dafc:	27bd0020 	addiu	$sp,$sp,32
  40db00:	03e00008 	jr	$ra
  40db04:	00001025 	move	$v0,$zero
  40db08:	848c0010 	lh	$t4,16($a0)
  40db0c:	24010001 	li	$at,1
  40db10:	1041ffd2 	beq	$v0,$at,40da5c <_unlockcas1start>
  40db14:	00000000 	nop
  40db18:	03e00008 	jr	$ra
  40db1c:	00000000 	nop
  40db20:	3c190041 	lui	$t9,0x41
  40db24:	273982b0 	addiu	$t9,$t9,-32080
  40db28:	03200008 	jr	$t9
  40db2c:	03e02825 	move	$a1,$ra

0040db30 <_scas>:
  40db30:	8c880000 	lw	$t0,0($a0)
  40db34:	00000000 	nop
  40db38:	15050003 	bne	$t0,$a1,40db48 <_scasend>
  40db3c:	24020001 	li	$v0,1
  40db40:	03e00008 	jr	$ra
  40db44:	ac860000 	sw	$a2,0($a0)

0040db48 <_scasend>:
  40db48:	03e00008 	jr	$ra
  40db4c:	00001025 	move	$v0,$zero

0040db50 <_hcas>:
  40db50:	8cea0000 	lw	$t2,0($a3)
  40db54:	00000000 	nop

0040db58 <_hcasstart>:
  40db58:	8d490000 	lw	$t1,0($t2)

0040db5c <_hcasmayhave>:
  40db5c:	00000000 	nop
  40db60:	31290001 	andi	$t1,$t1,0x1
  40db64:	1520fffc 	bnez	$t1,40db58 <_hcasstart>
  40db68:	00000000 	nop

0040db6c <_hcashavelock>:
  40db6c:	8c880000 	lw	$t0,0($a0)
  40db70:	00000000 	nop
  40db74:	15050005 	bne	$t0,$a1,40db8c <_hcasfail>
  40db78:	24020001 	li	$v0,1
  40db7c:	ac860000 	sw	$a2,0($a0)

0040db80 <_hcasend>:
  40db80:	ad400000 	sw	$zero,0($t2)
  40db84:	03e00008 	jr	$ra
  40db88:	00000000 	nop

0040db8c <_hcasfail>:
  40db8c:	ad400000 	sw	$zero,0($t2)
  40db90:	03e00008 	jr	$ra
  40db94:	00001025 	move	$v0,$zero

0040db98 <_cassearchend>:
  40db98:	3c190041 	lui	$t9,0x41
  40db9c:	3c070042 	lui	$a3,0x42
  40dba0:	2739db50 	addiu	$t9,$t9,-9392
  40dba4:	03200008 	jr	$t9
  40dba8:	24e70910 	addiu	$a3,$a3,2320

0040dbac <_hgrablock>:
  40dbac:	8c880008 	lw	$t0,8($a0)
  40dbb0:	00000000 	nop
  40dbb4:	8d080000 	lw	$t0,0($t0)
  40dbb8:	00000000 	nop
  40dbbc:	03e00008 	jr	$ra
  40dbc0:	31020001 	andi	$v0,$t0,0x1

0040dbc4 <_hrellock>:
  40dbc4:	8c840008 	lw	$a0,8($a0)
  40dbc8:	03e00008 	jr	$ra
  40dbcc:	ac800000 	sw	$zero,0($a0)
  40dbd0:	27bdffb0 	addiu	$sp,$sp,-80
  40dbd4:	afbf003c 	sw	$ra,60($sp)
  40dbd8:	afb60038 	sw	$s6,56($sp)
  40dbdc:	afb50034 	sw	$s5,52($sp)
  40dbe0:	afb40030 	sw	$s4,48($sp)
  40dbe4:	afb3002c 	sw	$s3,44($sp)
  40dbe8:	afb20028 	sw	$s2,40($sp)
  40dbec:	afb10024 	sw	$s1,36($sp)
  40dbf0:	afb00020 	sw	$s0,32($sp)
  40dbf4:	afa60058 	sw	$a2,88($sp)
  40dbf8:	8c820424 	lw	$v0,1060($a0)
  40dbfc:	00809025 	move	$s2,$a0
  40dc00:	00a0a825 	move	$s5,$a1
  40dc04:	1840007b 	blez	$v0,40ddf4 <_hrellock+0x230>
  40dc08:	00008025 	move	$s0,$zero
  40dc0c:	3c160020 	lui	$s6,0x20
  40dc10:	2411ffff 	li	$s1,-1
  40dc14:	8e4e000c 	lw	$t6,12($s2)
  40dc18:	001098c0 	sll	$s3,$s0,0x3
  40dc1c:	01d37821 	addu	$t7,$t6,$s3
  40dc20:	8de60000 	lw	$a2,0($t7)
  40dc24:	8f98af30 	lw	$t8,-20688($gp)
  40dc28:	14d50003 	bne	$a2,$s5,40dc38 <_hrellock+0x74>
  40dc2c:	00000000 	nop
  40dc30:	1000006b 	b	40dde0 <_hrellock+0x21c>
  40dc34:	26140001 	addiu	$s4,$s0,1
  40dc38:	17000005 	bnez	$t8,40dc50 <_hrellock+0x8c>
  40dc3c:	26140001 	addiu	$s4,$s0,1
  40dc40:	14d10004 	bne	$a2,$s1,40dc54 <_hrellock+0x90>
  40dc44:	8fa50058 	lw	$a1,88($sp)
  40dc48:	10000065 	b	40dde0 <_hrellock+0x21c>
  40dc4c:	26140001 	addiu	$s4,$s0,1
  40dc50:	8fa50058 	lw	$a1,88($sp)
  40dc54:	02802025 	move	$a0,$s4
  40dc58:	0c104a8b 	jal	412a2c <_usfgetlock>
  40dc5c:	afa60044 	sw	$a2,68($sp)
  40dc60:	8fa60044 	lw	$a2,68($sp)
  40dc64:	14400043 	bnez	$v0,40dd74 <_hrellock+0x1b0>
  40dc68:	00401825 	move	$v1,$v0
  40dc6c:	14d10004 	bne	$a2,$s1,40dc80 <_hrellock+0xbc>
  40dc70:	00000000 	nop
  40dc74:	8e420424 	lw	$v0,1060($s2)
  40dc78:	1000005a 	b	40dde4 <_hrellock+0x220>
  40dc7c:	00148400 	sll	$s0,$s4,0x10
  40dc80:	8e590014 	lw	$t9,20($s2)
  40dc84:	8e4a0010 	lw	$t2,16($s2)
  40dc88:	03261824 	and	$v1,$t9,$a2
  40dc8c:	00034400 	sll	$t0,$v1,0x10
  40dc90:	00084c03 	sra	$t1,$t0,0x10
  40dc94:	00095840 	sll	$t3,$t1,0x1
  40dc98:	014b2021 	addu	$a0,$t2,$t3
  40dc9c:	84820000 	lh	$v0,0($a0)
  40dca0:	00000000 	nop
  40dca4:	14500007 	bne	$v0,$s0,40dcc4 <_hrellock+0x100>
  40dca8:	00000000 	nop
  40dcac:	8e4c000c 	lw	$t4,12($s2)
  40dcb0:	000268c0 	sll	$t5,$v0,0x3
  40dcb4:	018d7021 	addu	$t6,$t4,$t5
  40dcb8:	85cf0004 	lh	$t7,4($t6)
  40dcbc:	10000012 	b	40dd08 <_hrellock+0x144>
  40dcc0:	a48f0000 	sh	$t7,0($a0)
  40dcc4:	8e43000c 	lw	$v1,12($s2)
  40dcc8:	00000000 	nop
  40dccc:	0002c8c0 	sll	$t9,$v0,0x3
  40dcd0:	00022400 	sll	$a0,$v0,0x10
  40dcd4:	00794021 	addu	$t0,$v1,$t9
  40dcd8:	85020004 	lh	$v0,4($t0)
  40dcdc:	0004c403 	sra	$t8,$a0,0x10
  40dce0:	14500007 	bne	$v0,$s0,40dd00 <_hrellock+0x13c>
  40dce4:	000248c0 	sll	$t1,$v0,0x3
  40dce8:	00695021 	addu	$t2,$v1,$t1
  40dcec:	854b0004 	lh	$t3,4($t2)
  40dcf0:	001860c0 	sll	$t4,$t8,0x3
  40dcf4:	006c6821 	addu	$t5,$v1,$t4
  40dcf8:	10000003 	b	40dd08 <_hrellock+0x144>
  40dcfc:	a5ab0004 	sh	$t3,4($t5)
  40dd00:	1451fff3 	bne	$v0,$s1,40dcd0 <_hrellock+0x10c>
  40dd04:	0002c8c0 	sll	$t9,$v0,0x3
  40dd08:	04c0000b 	bltz	$a2,40dd38 <_hrellock+0x174>
  40dd0c:	00000000 	nop
  40dd10:	8f8eaf30 	lw	$t6,-20688($gp)
  40dd14:	00002025 	move	$a0,$zero
  40dd18:	11c00007 	beqz	$t6,40dd38 <_hrellock+0x174>
  40dd1c:	3c050042 	lui	$a1,0x42
  40dd20:	264f001c 	addiu	$t7,$s2,28
  40dd24:	afaf0010 	sw	$t7,16($sp)
  40dd28:	24a5bb10 	addiu	$a1,$a1,-17648
  40dd2c:	02003825 	move	$a3,$s0
  40dd30:	0c103f10 	jal	40fc40 <_uprint>
  40dd34:	afb50014 	sw	$s5,20($sp)
  40dd38:	8e58000c 	lw	$t8,12($s2)
  40dd3c:	00000000 	nop
  40dd40:	0313c821 	addu	$t9,$t8,$s3
  40dd44:	af310000 	sw	$s1,0($t9)
  40dd48:	8e48000c 	lw	$t0,12($s2)
  40dd4c:	00000000 	nop
  40dd50:	01134821 	addu	$t1,$t0,$s3
  40dd54:	a5310006 	sh	$s1,6($t1)
  40dd58:	8e4a000c 	lw	$t2,12($s2)
  40dd5c:	00000000 	nop
  40dd60:	01536021 	addu	$t4,$t2,$s3
  40dd64:	a5910004 	sh	$s1,4($t4)
  40dd68:	8ecb0e00 	lw	$t3,3584($s6)
  40dd6c:	1000001a 	b	40ddd8 <_hrellock+0x214>
  40dd70:	ae4b0a70 	sw	$t3,2672($s2)
  40dd74:	0441000b 	bgez	$v0,40dda4 <_hrellock+0x1e0>
  40dd78:	00000000 	nop
  40dd7c:	8f8d8a30 	lw	$t5,-30160($gp)
  40dd80:	24040001 	li	$a0,1
  40dd84:	11a0001b 	beqz	$t5,40ddf4 <_hrellock+0x230>
  40dd88:	3c050042 	lui	$a1,0x42
  40dd8c:	24a5bb64 	addiu	$a1,$a1,-17564
  40dd90:	02a03025 	move	$a2,$s5
  40dd94:	0c103f10 	jal	40fc40 <_uprint>
  40dd98:	2647001c 	addiu	$a3,$s2,28
  40dd9c:	10000016 	b	40ddf8 <_hrellock+0x234>
  40dda0:	8fbf003c 	lw	$ra,60($sp)
  40dda4:	8f8e8a30 	lw	$t6,-30160($gp)
  40dda8:	00000000 	nop
  40ddac:	11c0000a 	beqz	$t6,40ddd8 <_hrellock+0x214>
  40ddb0:	00000000 	nop
  40ddb4:	10460008 	beq	$v0,$a2,40ddd8 <_hrellock+0x214>
  40ddb8:	00002025 	move	$a0,$zero
  40ddbc:	3c050042 	lui	$a1,0x42
  40ddc0:	264f001c 	addiu	$t7,$s2,28
  40ddc4:	afaf0014 	sw	$t7,20($sp)
  40ddc8:	24a5bb9c 	addiu	$a1,$a1,-17508
  40ddcc:	02003825 	move	$a3,$s0
  40ddd0:	0c103f10 	jal	40fc40 <_uprint>
  40ddd4:	afa30010 	sw	$v1,16($sp)
  40ddd8:	8e420424 	lw	$v0,1060($s2)
  40dddc:	00000000 	nop
  40dde0:	00148400 	sll	$s0,$s4,0x10
  40dde4:	0010c403 	sra	$t8,$s0,0x10
  40dde8:	0302082a 	slt	$at,$t8,$v0
  40ddec:	1420ff89 	bnez	$at,40dc14 <_hrellock+0x50>
  40ddf0:	03008025 	move	$s0,$t8
  40ddf4:	8fbf003c 	lw	$ra,60($sp)
  40ddf8:	8fb00020 	lw	$s0,32($sp)
  40ddfc:	8fb10024 	lw	$s1,36($sp)
  40de00:	8fb20028 	lw	$s2,40($sp)
  40de04:	8fb3002c 	lw	$s3,44($sp)
  40de08:	8fb40030 	lw	$s4,48($sp)
  40de0c:	8fb50034 	lw	$s5,52($sp)
  40de10:	8fb60038 	lw	$s6,56($sp)
  40de14:	03e00008 	jr	$ra
  40de18:	27bd0050 	addiu	$sp,$sp,80
  40de1c:	27bdffd8 	addiu	$sp,$sp,-40
  40de20:	afb20020 	sw	$s2,32($sp)
  40de24:	afb1001c 	sw	$s1,28($sp)
  40de28:	00a08825 	move	$s1,$a1
  40de2c:	00809025 	move	$s2,$a0
  40de30:	afbf0024 	sw	$ra,36($sp)
  40de34:	afb00018 	sw	$s0,24($sp)
  40de38:	18a0000e 	blez	$a1,40de74 <_hrellock+0x2b0>
  40de3c:	00001025 	move	$v0,$zero
  40de40:	24500001 	addiu	$s0,$v0,1
  40de44:	02002025 	move	$a0,$s0
  40de48:	0c104a8b 	jal	412a2c <_usfgetlock>
  40de4c:	02402825 	move	$a1,$s2
  40de50:	10400003 	beqz	$v0,40de60 <_hrellock+0x29c>
  40de54:	00000000 	nop
  40de58:	10000008 	b	40de7c <_hrellock+0x2b8>
  40de5c:	8fbf0024 	lw	$ra,36($sp)
  40de60:	00101400 	sll	$v0,$s0,0x10
  40de64:	00027403 	sra	$t6,$v0,0x10
  40de68:	01d1082a 	slt	$at,$t6,$s1
  40de6c:	1420fff4 	bnez	$at,40de40 <_hrellock+0x27c>
  40de70:	01c01025 	move	$v0,$t6
  40de74:	00001025 	move	$v0,$zero
  40de78:	8fbf0024 	lw	$ra,36($sp)
  40de7c:	8fb00018 	lw	$s0,24($sp)
  40de80:	8fb1001c 	lw	$s1,28($sp)
  40de84:	8fb20020 	lw	$s2,32($sp)
  40de88:	03e00008 	jr	$ra
  40de8c:	27bd0028 	addiu	$sp,$sp,40

0040de90 <_usget_pid>:
  40de90:	afa50004 	sw	$a1,4($sp)
  40de94:	00057400 	sll	$t6,$a1,0x10
  40de98:	8c98000c 	lw	$t8,12($a0)
  40de9c:	000e7c03 	sra	$t7,$t6,0x10
  40dea0:	000fc8c0 	sll	$t9,$t7,0x3
  40dea4:	03194021 	addu	$t0,$t8,$t9
  40dea8:	8d020000 	lw	$v0,0($t0)
  40deac:	03e00008 	jr	$ra
  40deb0:	00000000 	nop

0040deb4 <_usgettid>:
  40deb4:	27bdffb8 	addiu	$sp,$sp,-72
  40deb8:	afbf001c 	sw	$ra,28($sp)
  40debc:	afb10018 	sw	$s1,24($sp)
  40dec0:	afb00014 	sw	$s0,20($sp)
  40dec4:	3c0e0020 	lui	$t6,0x20
  40dec8:	8dd00e00 	lw	$s0,3584($t6)
  40decc:	8c980014 	lw	$t8,20($a0)
  40ded0:	8c8f0010 	lw	$t7,16($a0)
  40ded4:	0218c824 	and	$t9,$s0,$t8
  40ded8:	00194040 	sll	$t0,$t9,0x1
  40dedc:	01e84821 	addu	$t1,$t7,$t0
  40dee0:	85230000 	lh	$v1,0($t1)
  40dee4:	2406ffff 	li	$a2,-1
  40dee8:	8c85000c 	lw	$a1,12($a0)
  40deec:	1066000d 	beq	$v1,$a2,40df24 <_usgettid+0x70>
  40def0:	00808825 	move	$s1,$a0
  40def4:	000350c0 	sll	$t2,$v1,0x3
  40def8:	00aa1021 	addu	$v0,$a1,$t2
  40defc:	8c4b0000 	lw	$t3,0($v0)
  40df00:	00000000 	nop
  40df04:	160b0003 	bne	$s0,$t3,40df14 <_usgettid+0x60>
  40df08:	00000000 	nop
  40df0c:	10000055 	b	40e064 <_usgettid+0x1b0>
  40df10:	00601025 	move	$v0,$v1
  40df14:	84430004 	lh	$v1,4($v0)
  40df18:	00000000 	nop
  40df1c:	1466fff6 	bne	$v1,$a2,40def8 <_usgettid+0x44>
  40df20:	000350c0 	sll	$t2,$v1,0x3
  40df24:	8f828a38 	lw	$v0,-30152($gp)
  40df28:	00c03825 	move	$a3,$a2
  40df2c:	1040000c 	beqz	$v0,40df60 <_usgettid+0xac>
  40df30:	27a40024 	addiu	$a0,$sp,36
  40df34:	8c4c0004 	lw	$t4,4($v0)
  40df38:	00000000 	nop
  40df3c:	162c0004 	bne	$s1,$t4,40df50 <_usgettid+0x9c>
  40df40:	00000000 	nop
  40df44:	8c470000 	lw	$a3,0($v0)
  40df48:	10000005 	b	40df60 <_usgettid+0xac>
  40df4c:	00000000 	nop
  40df50:	8c420008 	lw	$v0,8($v0)
  40df54:	00000000 	nop
  40df58:	1440fff6 	bnez	$v0,40df34 <_usgettid+0x80>
  40df5c:	00000000 	nop
  40df60:	14e6000b 	bne	$a3,$a2,40df90 <_usgettid+0xdc>
  40df64:	00000000 	nop
  40df68:	8f8d8a30 	lw	$t5,-30160($gp)
  40df6c:	00002025 	move	$a0,$zero
  40df70:	11a00005 	beqz	$t5,40df88 <_usgettid+0xd4>
  40df74:	3c050042 	lui	$a1,0x42
  40df78:	24a5bbdc 	addiu	$a1,$a1,-17444
  40df7c:	02003025 	move	$a2,$s0
  40df80:	0c103f10 	jal	40fc40 <_uprint>
  40df84:	02203825 	move	$a3,$s1
  40df88:	10000036 	b	40e064 <_usgettid+0x1b0>
  40df8c:	2402ffff 	li	$v0,-1
  40df90:	0c103f99 	jal	40fe64 <__usblockallsigs>
  40df94:	afa70034 	sw	$a3,52($sp)
  40df98:	8fa50034 	lw	$a1,52($sp)
  40df9c:	0c104a3e 	jal	4128f8 <_usfsplock>
  40dfa0:	00002025 	move	$a0,$zero
  40dfa4:	2406ffff 	li	$a2,-1
  40dfa8:	8fa70034 	lw	$a3,52($sp)
  40dfac:	1446000d 	bne	$v0,$a2,40dfe4 <_usgettid+0x130>
  40dfb0:	00002025 	move	$a0,$zero
  40dfb4:	0c103faf 	jal	40febc <__usunblockallsigs>
  40dfb8:	27a40024 	addiu	$a0,$sp,36
  40dfbc:	8f8e8a30 	lw	$t6,-30160($gp)
  40dfc0:	24040001 	li	$a0,1
  40dfc4:	11c00005 	beqz	$t6,40dfdc <_usgettid+0x128>
  40dfc8:	3c050042 	lui	$a1,0x42
  40dfcc:	24a5bc18 	addiu	$a1,$a1,-17384
  40dfd0:	02003025 	move	$a2,$s0
  40dfd4:	0c103f10 	jal	40fc40 <_uprint>
  40dfd8:	2627001c 	addiu	$a3,$s1,28
  40dfdc:	10000021 	b	40e064 <_usgettid+0x1b0>
  40dfe0:	2402ffff 	li	$v0,-1
  40dfe4:	8e390014 	lw	$t9,20($s1)
  40dfe8:	8e380010 	lw	$t8,16($s1)
  40dfec:	02197824 	and	$t7,$s0,$t9
  40dff0:	000f4040 	sll	$t0,$t7,0x1
  40dff4:	03084821 	addu	$t1,$t8,$t0
  40dff8:	85230000 	lh	$v1,0($t1)
  40dffc:	8e25000c 	lw	$a1,12($s1)
  40e000:	10660012 	beq	$v1,$a2,40e04c <_usgettid+0x198>
  40e004:	000350c0 	sll	$t2,$v1,0x3
  40e008:	00aa1021 	addu	$v0,$a1,$t2
  40e00c:	8c4b0000 	lw	$t3,0($v0)
  40e010:	00000000 	nop
  40e014:	160b0009 	bne	$s0,$t3,40e03c <_usgettid+0x188>
  40e018:	00000000 	nop
  40e01c:	00e02825 	move	$a1,$a3
  40e020:	0c104a68 	jal	4129a0 <_usfunsplock>
  40e024:	a7a30046 	sh	$v1,70($sp)
  40e028:	0c103faf 	jal	40febc <__usunblockallsigs>
  40e02c:	27a40024 	addiu	$a0,$sp,36
  40e030:	87a20046 	lh	$v0,70($sp)
  40e034:	1000000c 	b	40e068 <_usgettid+0x1b4>
  40e038:	8fbf001c 	lw	$ra,28($sp)
  40e03c:	84430004 	lh	$v1,4($v0)
  40e040:	00000000 	nop
  40e044:	1466fff0 	bne	$v1,$a2,40e008 <_usgettid+0x154>
  40e048:	000350c0 	sll	$t2,$v1,0x3
  40e04c:	00002025 	move	$a0,$zero
  40e050:	0c104a68 	jal	4129a0 <_usfunsplock>
  40e054:	00e02825 	move	$a1,$a3
  40e058:	0c103faf 	jal	40febc <__usunblockallsigs>
  40e05c:	27a40024 	addiu	$a0,$sp,36
  40e060:	2402ffff 	li	$v0,-1
  40e064:	8fbf001c 	lw	$ra,28($sp)
  40e068:	8fb00014 	lw	$s0,20($sp)
  40e06c:	8fb10018 	lw	$s1,24($sp)
  40e070:	03e00008 	jr	$ra
  40e074:	27bd0048 	addiu	$sp,$sp,72

0040e078 <_usclean_tidmap>:
  40e078:	27bdffb8 	addiu	$sp,$sp,-72
  40e07c:	afbf001c 	sw	$ra,28($sp)
  40e080:	afb00018 	sw	$s0,24($sp)
  40e084:	3c0e0020 	lui	$t6,0x20
  40e088:	8f828a38 	lw	$v0,-30152($gp)
  40e08c:	8dcf0e00 	lw	$t7,3584($t6)
  40e090:	00808025 	move	$s0,$a0
  40e094:	2406ffff 	li	$a2,-1
  40e098:	1040000c 	beqz	$v0,40e0cc <_usclean_tidmap+0x54>
  40e09c:	afaf0040 	sw	$t7,64($sp)
  40e0a0:	8c580004 	lw	$t8,4($v0)
  40e0a4:	00000000 	nop
  40e0a8:	16180004 	bne	$s0,$t8,40e0bc <_usclean_tidmap+0x44>
  40e0ac:	00000000 	nop
  40e0b0:	8c460000 	lw	$a2,0($v0)
  40e0b4:	10000006 	b	40e0d0 <_usclean_tidmap+0x58>
  40e0b8:	2407ffff 	li	$a3,-1
  40e0bc:	8c420008 	lw	$v0,8($v0)
  40e0c0:	00000000 	nop
  40e0c4:	1440fff6 	bnez	$v0,40e0a0 <_usclean_tidmap+0x28>
  40e0c8:	00000000 	nop
  40e0cc:	2407ffff 	li	$a3,-1
  40e0d0:	14c7000d 	bne	$a2,$a3,40e108 <_usclean_tidmap+0x90>
  40e0d4:	27a4002c 	addiu	$a0,$sp,44
  40e0d8:	8f998a30 	lw	$t9,-30160($gp)
  40e0dc:	00002025 	move	$a0,$zero
  40e0e0:	13200005 	beqz	$t9,40e0f8 <_usclean_tidmap+0x80>
  40e0e4:	3c050042 	lui	$a1,0x42
  40e0e8:	8fa60040 	lw	$a2,64($sp)
  40e0ec:	24a5bc60 	addiu	$a1,$a1,-17312
  40e0f0:	0c103f10 	jal	40fc40 <_uprint>
  40e0f4:	02003825 	move	$a3,$s0
  40e0f8:	0c101ebd 	jal	407af4 <_setoserror>
  40e0fc:	24040003 	li	$a0,3
  40e100:	10000038 	b	40e1e4 <_usclean_tidmap+0x16c>
  40e104:	2402ffff 	li	$v0,-1
  40e108:	0c103f99 	jal	40fe64 <__usblockallsigs>
  40e10c:	afa60028 	sw	$a2,40($sp)
  40e110:	8fa50028 	lw	$a1,40($sp)
  40e114:	0c104a3e 	jal	4128f8 <_usfsplock>
  40e118:	00002025 	move	$a0,$zero
  40e11c:	8fa60028 	lw	$a2,40($sp)
  40e120:	2407ffff 	li	$a3,-1
  40e124:	1447000d 	bne	$v0,$a3,40e15c <_usclean_tidmap+0xe4>
  40e128:	02002025 	move	$a0,$s0
  40e12c:	0c103faf 	jal	40febc <__usunblockallsigs>
  40e130:	27a4002c 	addiu	$a0,$sp,44
  40e134:	8f888a30 	lw	$t0,-30160($gp)
  40e138:	24040001 	li	$a0,1
  40e13c:	11000005 	beqz	$t0,40e154 <_usclean_tidmap+0xdc>
  40e140:	3c050042 	lui	$a1,0x42
  40e144:	8fa60040 	lw	$a2,64($sp)
  40e148:	24a5bca4 	addiu	$a1,$a1,-17244
  40e14c:	0c103f10 	jal	40fc40 <_uprint>
  40e150:	2607001c 	addiu	$a3,$s0,28
  40e154:	10000023 	b	40e1e4 <_usclean_tidmap+0x16c>
  40e158:	2402ffff 	li	$v0,-1
  40e15c:	8fa50040 	lw	$a1,64($sp)
  40e160:	0c1036f4 	jal	40dbd0 <_hrellock+0xc>
  40e164:	afa60028 	sw	$a2,40($sp)
  40e168:	8e030424 	lw	$v1,1060($s0)
  40e16c:	8fa60028 	lw	$a2,40($sp)
  40e170:	2407ffff 	li	$a3,-1
  40e174:	18600013 	blez	$v1,40e1c4 <_usclean_tidmap+0x14c>
  40e178:	00001025 	move	$v0,$zero
  40e17c:	8e04000c 	lw	$a0,12($s0)
  40e180:	00c02825 	move	$a1,$a2
  40e184:	000248c0 	sll	$t1,$v0,0x3
  40e188:	00895021 	addu	$t2,$a0,$t1
  40e18c:	8d4b0000 	lw	$t3,0($t2)
  40e190:	24420001 	addiu	$v0,$v0,1
  40e194:	14eb0007 	bne	$a3,$t3,40e1b4 <_usclean_tidmap+0x13c>
  40e198:	00026400 	sll	$t4,$v0,0x10
  40e19c:	0c104a68 	jal	4129a0 <_usfunsplock>
  40e1a0:	00002025 	move	$a0,$zero
  40e1a4:	0c103faf 	jal	40febc <__usunblockallsigs>
  40e1a8:	27a4002c 	addiu	$a0,$sp,44
  40e1ac:	1000000d 	b	40e1e4 <_usclean_tidmap+0x16c>
  40e1b0:	24020001 	li	$v0,1
  40e1b4:	000c1403 	sra	$v0,$t4,0x10
  40e1b8:	0043082a 	slt	$at,$v0,$v1
  40e1bc:	1420fff2 	bnez	$at,40e188 <_usclean_tidmap+0x110>
  40e1c0:	000248c0 	sll	$t1,$v0,0x3
  40e1c4:	00002025 	move	$a0,$zero
  40e1c8:	0c104a68 	jal	4129a0 <_usfunsplock>
  40e1cc:	00c02825 	move	$a1,$a2
  40e1d0:	0c103faf 	jal	40febc <__usunblockallsigs>
  40e1d4:	27a4002c 	addiu	$a0,$sp,44
  40e1d8:	0c101ebd 	jal	407af4 <_setoserror>
  40e1dc:	2404001c 	li	$a0,28
  40e1e0:	2402ffff 	li	$v0,-1
  40e1e4:	8fbf001c 	lw	$ra,28($sp)
  40e1e8:	8fb00018 	lw	$s0,24($sp)
  40e1ec:	03e00008 	jr	$ra
  40e1f0:	27bd0048 	addiu	$sp,$sp,72

0040e1f4 <_usany_tids_left>:
  40e1f4:	27bdffd0 	addiu	$sp,$sp,-48
  40e1f8:	afbf0024 	sw	$ra,36($sp)
  40e1fc:	afb00020 	sw	$s0,32($sp)
  40e200:	8c830424 	lw	$v1,1060($a0)
  40e204:	00808025 	move	$s0,$a0
  40e208:	1860000f 	blez	$v1,40e248 <_usany_tids_left+0x54>
  40e20c:	00001025 	move	$v0,$zero
  40e210:	8c84000c 	lw	$a0,12($a0)
  40e214:	2405ffff 	li	$a1,-1
  40e218:	000270c0 	sll	$t6,$v0,0x3
  40e21c:	008e7821 	addu	$t7,$a0,$t6
  40e220:	8df80000 	lw	$t8,0($t7)
  40e224:	24420001 	addiu	$v0,$v0,1
  40e228:	14b80003 	bne	$a1,$t8,40e238 <_usany_tids_left+0x44>
  40e22c:	0002cc00 	sll	$t9,$v0,0x10
  40e230:	1000001e 	b	40e2ac <_usany_tids_left+0xb8>
  40e234:	00001025 	move	$v0,$zero
  40e238:	00191403 	sra	$v0,$t9,0x10
  40e23c:	0043082a 	slt	$at,$v0,$v1
  40e240:	1420fff6 	bnez	$at,40e21c <_usany_tids_left+0x28>
  40e244:	000270c0 	sll	$t6,$v0,0x3
  40e248:	0c10381e 	jal	40e078 <_usclean_tidmap>
  40e24c:	02002025 	move	$a0,$s0
  40e250:	2405ffff 	li	$a1,-1
  40e254:	14450013 	bne	$v0,$a1,40e2a4 <_usany_tids_left+0xb0>
  40e258:	afa20028 	sw	$v0,40($sp)
  40e25c:	0c101eb8 	jal	407ae0 <_oserror>
  40e260:	00000000 	nop
  40e264:	2401001c 	li	$at,28
  40e268:	1441000f 	bne	$v0,$at,40e2a8 <_usany_tids_left+0xb4>
  40e26c:	8fa20028 	lw	$v0,40($sp)
  40e270:	8f898a30 	lw	$t1,-30160($gp)
  40e274:	00002025 	move	$a0,$zero
  40e278:	1120000a 	beqz	$t1,40e2a4 <_usany_tids_left+0xb0>
  40e27c:	3c050042 	lui	$a1,0x42
  40e280:	8e0b0420 	lw	$t3,1056($s0)
  40e284:	3c0a0020 	lui	$t2,0x20
  40e288:	8d460e00 	lw	$a2,3584($t2)
  40e28c:	afab0010 	sw	$t3,16($sp)
  40e290:	8e0c0424 	lw	$t4,1060($s0)
  40e294:	24a5bce4 	addiu	$a1,$a1,-17180
  40e298:	2607001c 	addiu	$a3,$s0,28
  40e29c:	0c103f10 	jal	40fc40 <_uprint>
  40e2a0:	afac0014 	sw	$t4,20($sp)
  40e2a4:	8fa20028 	lw	$v0,40($sp)
  40e2a8:	00000000 	nop
  40e2ac:	8fbf0024 	lw	$ra,36($sp)
  40e2b0:	8fb00020 	lw	$s0,32($sp)
  40e2b4:	03e00008 	jr	$ra
  40e2b8:	27bd0030 	addiu	$sp,$sp,48
  40e2bc:	27bdffa0 	addiu	$sp,$sp,-96
  40e2c0:	afb00028 	sw	$s0,40($sp)
  40e2c4:	00808025 	move	$s0,$a0
  40e2c8:	afbf002c 	sw	$ra,44($sp)
  40e2cc:	afa50064 	sw	$a1,100($sp)
  40e2d0:	04c10020 	bgez	$a2,40e354 <_usany_tids_left+0x160>
  40e2d4:	afa60068 	sw	$a2,104($sp)
  40e2d8:	8f828a38 	lw	$v0,-30152($gp)
  40e2dc:	8f84af34 	lw	$a0,-20684($gp)
  40e2e0:	1040000c 	beqz	$v0,40e314 <_usany_tids_left+0x120>
  40e2e4:	2408ffff 	li	$t0,-1
  40e2e8:	8c4e0004 	lw	$t6,4($v0)
  40e2ec:	00000000 	nop
  40e2f0:	160e0004 	bne	$s0,$t6,40e304 <_usany_tids_left+0x110>
  40e2f4:	00000000 	nop
  40e2f8:	8c460000 	lw	$a2,0($v0)
  40e2fc:	10000005 	b	40e314 <_usany_tids_left+0x120>
  40e300:	00000000 	nop
  40e304:	8c420008 	lw	$v0,8($v0)
  40e308:	00000000 	nop
  40e30c:	1440fff6 	bnez	$v0,40e2e8 <_usany_tids_left+0xf4>
  40e310:	00000000 	nop
  40e314:	14c80003 	bne	$a2,$t0,40e324 <_usany_tids_left+0x130>
  40e318:	240f0003 	li	$t7,3
  40e31c:	1000008a 	b	40e548 <_usany_tids_left+0x354>
  40e320:	afaf0054 	sw	$t7,84($sp)
  40e324:	0c1049c4 	jal	412710 <_syncinit>
  40e328:	afa60068 	sw	$a2,104($sp)
  40e32c:	8fa50068 	lw	$a1,104($sp)
  40e330:	0c104a3e 	jal	4128f8 <_usfsplock>
  40e334:	00002025 	move	$a0,$zero
  40e338:	2408ffff 	li	$t0,-1
  40e33c:	14480006 	bne	$v0,$t0,40e358 <_usany_tids_left+0x164>
  40e340:	8fa50068 	lw	$a1,104($sp)
  40e344:	0c101eb8 	jal	407ae0 <_oserror>
  40e348:	00000000 	nop
  40e34c:	1000007e 	b	40e548 <_usany_tids_left+0x354>
  40e350:	afa20054 	sw	$v0,84($sp)
  40e354:	8fa50068 	lw	$a1,104($sp)
  40e358:	0c103dd5 	jal	40f754 <_usretsfd+0x144>
  40e35c:	02002025 	move	$a0,$s0
  40e360:	2408ffff 	li	$t0,-1
  40e364:	14480011 	bne	$v0,$t0,40e3ac <_usany_tids_left+0x1b8>
  40e368:	afa20058 	sw	$v0,88($sp)
  40e36c:	0c101eb8 	jal	407ae0 <_oserror>
  40e370:	00000000 	nop
  40e374:	8fa50068 	lw	$a1,104($sp)
  40e378:	afa20054 	sw	$v0,84($sp)
  40e37c:	0c104a68 	jal	4129a0 <_usfunsplock>
  40e380:	00002025 	move	$a0,$zero
  40e384:	8f988a30 	lw	$t8,-30160($gp)
  40e388:	24040001 	li	$a0,1
  40e38c:	1300006e 	beqz	$t8,40e548 <_usany_tids_left+0x354>
  40e390:	3c050042 	lui	$a1,0x42
  40e394:	3c190020 	lui	$t9,0x20
  40e398:	8f260e00 	lw	$a2,3584($t9)
  40e39c:	0c103f10 	jal	40fc40 <_uprint>
  40e3a0:	24a5bd30 	addiu	$a1,$a1,-17104
  40e3a4:	10000068 	b	40e548 <_usany_tids_left+0x354>
  40e3a8:	00000000 	nop
  40e3ac:	8fa50064 	lw	$a1,100($sp)
  40e3b0:	8fa60068 	lw	$a2,104($sp)
  40e3b4:	0c1036f4 	jal	40dbd0 <_hrellock+0xc>
  40e3b8:	02002025 	move	$a0,$s0
  40e3bc:	8e020424 	lw	$v0,1060($s0)
  40e3c0:	2408ffff 	li	$t0,-1
  40e3c4:	18400050 	blez	$v0,40e508 <_usany_tids_left+0x314>
  40e3c8:	00003825 	move	$a3,$zero
  40e3cc:	8e04000c 	lw	$a0,12($s0)
  40e3d0:	00000000 	nop
  40e3d4:	000718c0 	sll	$v1,$a3,0x3
  40e3d8:	00834821 	addu	$t1,$a0,$v1
  40e3dc:	8d2a0000 	lw	$t2,0($t1)
  40e3e0:	00000000 	nop
  40e3e4:	150a0042 	bne	$t0,$t2,40e4f0 <_usany_tids_left+0x2fc>
  40e3e8:	00000000 	nop
  40e3ec:	8fa50068 	lw	$a1,104($sp)
  40e3f0:	24e40001 	addiu	$a0,$a3,1
  40e3f4:	afa30034 	sw	$v1,52($sp)
  40e3f8:	0c104a3e 	jal	4128f8 <_usfsplock>
  40e3fc:	a7a7005e 	sh	$a3,94($sp)
  40e400:	8fa30034 	lw	$v1,52($sp)
  40e404:	87a7005e 	lh	$a3,94($sp)
  40e408:	2408ffff 	li	$t0,-1
  40e40c:	14480009 	bne	$v0,$t0,40e434 <_usany_tids_left+0x240>
  40e410:	00000000 	nop
  40e414:	0c101eb8 	jal	407ae0 <_oserror>
  40e418:	00000000 	nop
  40e41c:	8fa50068 	lw	$a1,104($sp)
  40e420:	afa20054 	sw	$v0,84($sp)
  40e424:	0c104a68 	jal	4129a0 <_usfunsplock>
  40e428:	00002025 	move	$a0,$zero
  40e42c:	10000046 	b	40e548 <_usany_tids_left+0x354>
  40e430:	00000000 	nop
  40e434:	8e0f000c 	lw	$t7,12($s0)
  40e438:	8fac0064 	lw	$t4,100($sp)
  40e43c:	8e0b0014 	lw	$t3,20($s0)
  40e440:	01e3c021 	addu	$t8,$t7,$v1
  40e444:	af0c0000 	sw	$t4,0($t8)
  40e448:	8e09000c 	lw	$t1,12($s0)
  40e44c:	8fb90058 	lw	$t9,88($sp)
  40e450:	016c2024 	and	$a0,$t3,$t4
  40e454:	01235021 	addu	$t2,$t1,$v1
  40e458:	00046c00 	sll	$t5,$a0,0x10
  40e45c:	a5590006 	sh	$t9,6($t2)
  40e460:	8e0b0010 	lw	$t3,16($s0)
  40e464:	000d7403 	sra	$t6,$t5,0x10
  40e468:	000e1040 	sll	$v0,$t6,0x1
  40e46c:	8e0f000c 	lw	$t7,12($s0)
  40e470:	01626821 	addu	$t5,$t3,$v0
  40e474:	85ae0000 	lh	$t6,0($t5)
  40e478:	01e36021 	addu	$t4,$t7,$v1
  40e47c:	a58e0004 	sh	$t6,4($t4)
  40e480:	8e180010 	lw	$t8,16($s0)
  40e484:	3c050042 	lui	$a1,0x42
  40e488:	03024821 	addu	$t1,$t8,$v0
  40e48c:	a5270000 	sh	$a3,0($t1)
  40e490:	8f99af30 	lw	$t9,-20688($gp)
  40e494:	24a5bd68 	addiu	$a1,$a1,-17048
  40e498:	1320000e 	beqz	$t9,40e4d4 <_usany_tids_left+0x2e0>
  40e49c:	00002025 	move	$a0,$zero
  40e4a0:	8e0a000c 	lw	$t2,12($s0)
  40e4a4:	260d001c 	addiu	$t5,$s0,28
  40e4a8:	01431021 	addu	$v0,$t2,$v1
  40e4ac:	844b0006 	lh	$t3,6($v0)
  40e4b0:	8c460000 	lw	$a2,0($v0)
  40e4b4:	afad0014 	sw	$t5,20($sp)
  40e4b8:	afab0010 	sw	$t3,16($sp)
  40e4bc:	8e0f0420 	lw	$t7,1056($s0)
  40e4c0:	a7a7005e 	sh	$a3,94($sp)
  40e4c4:	0c103f10 	jal	40fc40 <_uprint>
  40e4c8:	afaf0018 	sw	$t7,24($sp)
  40e4cc:	87a7005e 	lh	$a3,94($sp)
  40e4d0:	00000000 	nop
  40e4d4:	8fa50068 	lw	$a1,104($sp)
  40e4d8:	00002025 	move	$a0,$zero
  40e4dc:	0c104a68 	jal	4129a0 <_usfunsplock>
  40e4e0:	a7a7005e 	sh	$a3,94($sp)
  40e4e4:	87a2005e 	lh	$v0,94($sp)
  40e4e8:	10000026 	b	40e584 <_usany_tids_left+0x390>
  40e4ec:	8fbf002c 	lw	$ra,44($sp)
  40e4f0:	24e70001 	addiu	$a3,$a3,1
  40e4f4:	00077400 	sll	$t6,$a3,0x10
  40e4f8:	000e3c03 	sra	$a3,$t6,0x10
  40e4fc:	00e2082a 	slt	$at,$a3,$v0
  40e500:	1420ffb5 	bnez	$at,40e3d8 <_usany_tids_left+0x1e4>
  40e504:	000718c0 	sll	$v1,$a3,0x3
  40e508:	8fa50068 	lw	$a1,104($sp)
  40e50c:	0c104a68 	jal	4129a0 <_usfunsplock>
  40e510:	00002025 	move	$a0,$zero
  40e514:	8f898a30 	lw	$t1,-30160($gp)
  40e518:	2418001c 	li	$t8,28
  40e51c:	1120000a 	beqz	$t1,40e548 <_usany_tids_left+0x354>
  40e520:	afb80054 	sw	$t8,84($sp)
  40e524:	8e0a0424 	lw	$t2,1060($s0)
  40e528:	3c190020 	lui	$t9,0x20
  40e52c:	8f260e00 	lw	$a2,3584($t9)
  40e530:	3c050042 	lui	$a1,0x42
  40e534:	24a5bda4 	addiu	$a1,$a1,-16988
  40e538:	00002025 	move	$a0,$zero
  40e53c:	2607001c 	addiu	$a3,$s0,28
  40e540:	0c103f10 	jal	40fc40 <_uprint>
  40e544:	afaa0010 	sw	$t2,16($sp)
  40e548:	8f8b8a30 	lw	$t3,-30160($gp)
  40e54c:	24040001 	li	$a0,1
  40e550:	11600007 	beqz	$t3,40e570 <_usany_tids_left+0x37c>
  40e554:	3c050042 	lui	$a1,0x42
  40e558:	8e0d0420 	lw	$t5,1056($s0)
  40e55c:	8fa60064 	lw	$a2,100($sp)
  40e560:	24a5bdec 	addiu	$a1,$a1,-16916
  40e564:	2607001c 	addiu	$a3,$s0,28
  40e568:	0c103f10 	jal	40fc40 <_uprint>
  40e56c:	afad0010 	sw	$t5,16($sp)
  40e570:	8fa40054 	lw	$a0,84($sp)
  40e574:	0c101ebd 	jal	407af4 <_setoserror>
  40e578:	00000000 	nop
  40e57c:	2402ffff 	li	$v0,-1
  40e580:	8fbf002c 	lw	$ra,44($sp)
  40e584:	8fb00028 	lw	$s0,40($sp)
  40e588:	03e00008 	jr	$ra
  40e58c:	27bd0060 	addiu	$sp,$sp,96

0040e590 <_usinit_mapfile>:
  40e590:	27bdff20 	addiu	$sp,$sp,-224
  40e594:	afbf001c 	sw	$ra,28($sp)
  40e598:	afa500e4 	sw	$a1,228($sp)
  40e59c:	afa400e0 	sw	$a0,224($sp)
  40e5a0:	afa600e8 	sw	$a2,232($sp)
  40e5a4:	afa700ec 	sw	$a3,236($sp)
  40e5a8:	afa0004c 	sw	$zero,76($sp)
  40e5ac:	afa00048 	sw	$zero,72($sp)
  40e5b0:	0c1032f8 	jal	40cbe0 <_fstat>
  40e5b4:	27a50050 	addiu	$a1,$sp,80
  40e5b8:	8fae0064 	lw	$t6,100($sp)
  40e5bc:	34018000 	li	$at,0x8000
  40e5c0:	31cff000 	andi	$t7,$t6,0xf000
  40e5c4:	15e10037 	bne	$t7,$at,40e6a4 <_usinit_mapfile+0x114>
  40e5c8:	8fad00f8 	lw	$t5,248($sp)
  40e5cc:	8fa50080 	lw	$a1,128($sp)
  40e5d0:	8fb800ec 	lw	$t8,236($sp)
  40e5d4:	8fa400e0 	lw	$a0,224($sp)
  40e5d8:	0305082a 	slt	$at,$t8,$a1
  40e5dc:	10200005 	beqz	$at,40e5f4 <_usinit_mapfile+0x64>
  40e5e0:	00000000 	nop
  40e5e4:	0c105e54 	jal	417950 <_ftruncate>
  40e5e8:	03002825 	move	$a1,$t8
  40e5ec:	8fa500ec 	lw	$a1,236($sp)
  40e5f0:	00000000 	nop
  40e5f4:	8fa400e0 	lw	$a0,224($sp)
  40e5f8:	0c103fb9 	jal	40fee4 <__usunblockallsigs+0x28>
  40e5fc:	afa50080 	sw	$a1,128($sp)
  40e600:	1040000a 	beqz	$v0,40e62c <_usinit_mapfile+0x9c>
  40e604:	8fa800f8 	lw	$t0,248($sp)
  40e608:	8f998a30 	lw	$t9,-30160($gp)
  40e60c:	24040001 	li	$a0,1
  40e610:	13200003 	beqz	$t9,40e620 <_usinit_mapfile+0x90>
  40e614:	3c050042 	lui	$a1,0x42
  40e618:	0c103f10 	jal	40fc40 <_uprint>
  40e61c:	24a5be28 	addiu	$a1,$a1,-16856
  40e620:	1000009d 	b	40e898 <_usinit_mapfile+0x308>
  40e624:	00001025 	move	$v0,$zero
  40e628:	8fa800f8 	lw	$t0,248($sp)
  40e62c:	8fa50080 	lw	$a1,128($sp)
  40e630:	15000004 	bnez	$t0,40e644 <_usinit_mapfile+0xb4>
  40e634:	2ca11a78 	sltiu	$at,$a1,6776
  40e638:	8fa900ec 	lw	$t1,236($sp)
  40e63c:	10000004 	b	40e650 <_usinit_mapfile+0xc0>
  40e640:	afa90048 	sw	$t1,72($sp)
  40e644:	10200002 	beqz	$at,40e650 <_usinit_mapfile+0xc0>
  40e648:	240a1a78 	li	$t2,6776
  40e64c:	afaa0048 	sw	$t2,72($sp)
  40e650:	8fab0048 	lw	$t3,72($sp)
  40e654:	2405000a 	li	$a1,10
  40e658:	11600011 	beqz	$t3,40e6a0 <_usinit_mapfile+0x110>
  40e65c:	27a60024 	addiu	$a2,$sp,36
  40e660:	8fa400e0 	lw	$a0,224($sp)
  40e664:	a7a00026 	sh	$zero,38($sp)
  40e668:	afab0028 	sw	$t3,40($sp)
  40e66c:	0c103290 	jal	40ca40 <_fcntl>
  40e670:	afa0002c 	sw	$zero,44($sp)
  40e674:	1040000b 	beqz	$v0,40e6a4 <_usinit_mapfile+0x114>
  40e678:	8fad00f8 	lw	$t5,248($sp)
  40e67c:	8f8c8a30 	lw	$t4,-30160($gp)
  40e680:	24040001 	li	$a0,1
  40e684:	11800004 	beqz	$t4,40e698 <_usinit_mapfile+0x108>
  40e688:	3c050042 	lui	$a1,0x42
  40e68c:	8fa60048 	lw	$a2,72($sp)
  40e690:	0c103f10 	jal	40fc40 <_uprint>
  40e694:	24a5be50 	addiu	$a1,$a1,-16816
  40e698:	1000007f 	b	40e898 <_usinit_mapfile+0x308>
  40e69c:	00001025 	move	$v0,$zero
  40e6a0:	8fad00f8 	lw	$t5,248($sp)
  40e6a4:	8fae00fc 	lw	$t6,252($sp)
  40e6a8:	11a00002 	beqz	$t5,40e6b4 <_usinit_mapfile+0x124>
  40e6ac:	24070001 	li	$a3,1
  40e6b0:	24070041 	li	$a3,65
  40e6b4:	11c00003 	beqz	$t6,40e6c4 <_usinit_mapfile+0x134>
  40e6b8:	24060003 	li	$a2,3
  40e6bc:	34ef0100 	ori	$t7,$a3,0x100
  40e6c0:	01e03825 	move	$a3,$t7
  40e6c4:	8fb80100 	lw	$t8,256($sp)
  40e6c8:	2403ffff 	li	$v1,-1
  40e6cc:	13030003 	beq	$t8,$v1,40e6dc <_usinit_mapfile+0x14c>
  40e6d0:	24190001 	li	$t9,1
  40e6d4:	10000002 	b	40e6e0 <_usinit_mapfile+0x150>
  40e6d8:	afb9004c 	sw	$t9,76($sp)
  40e6dc:	afa00100 	sw	$zero,256($sp)
  40e6e0:	8fa800e0 	lw	$t0,224($sp)
  40e6e4:	8fa40100 	lw	$a0,256($sp)
  40e6e8:	8fa500ec 	lw	$a1,236($sp)
  40e6ec:	afa00014 	sw	$zero,20($sp)
  40e6f0:	0c1032a8 	jal	40caa0 <_mmap>
  40e6f4:	afa80010 	sw	$t0,16($sp)
  40e6f8:	2403ffff 	li	$v1,-1
  40e6fc:	1443000c 	bne	$v0,$v1,40e730 <_usinit_mapfile+0x1a0>
  40e700:	afa200dc 	sw	$v0,220($sp)
  40e704:	8f898a30 	lw	$t1,-30160($gp)
  40e708:	24040001 	li	$a0,1
  40e70c:	11200006 	beqz	$t1,40e728 <_usinit_mapfile+0x198>
  40e710:	3c050042 	lui	$a1,0x42
  40e714:	3c0a0020 	lui	$t2,0x20
  40e718:	8d460e00 	lw	$a2,3584($t2)
  40e71c:	8fa70100 	lw	$a3,256($sp)
  40e720:	0c103f10 	jal	40fc40 <_uprint>
  40e724:	24a5be84 	addiu	$a1,$a1,-16764
  40e728:	1000005b 	b	40e898 <_usinit_mapfile+0x308>
  40e72c:	00001025 	move	$v0,$zero
  40e730:	8fab004c 	lw	$t3,76($sp)
  40e734:	8fac0100 	lw	$t4,256($sp)
  40e738:	11600014 	beqz	$t3,40e78c <_usinit_mapfile+0x1fc>
  40e73c:	24190004 	li	$t9,4
  40e740:	11820013 	beq	$t4,$v0,40e790 <_usinit_mapfile+0x200>
  40e744:	8fa500e4 	lw	$a1,228($sp)
  40e748:	8fa400dc 	lw	$a0,220($sp)
  40e74c:	8fa500ec 	lw	$a1,236($sp)
  40e750:	0c1032b4 	jal	40cad0 <_munmap>
  40e754:	00000000 	nop
  40e758:	8f8d8a30 	lw	$t5,-30160($gp)
  40e75c:	00002025 	move	$a0,$zero
  40e760:	11a00006 	beqz	$t5,40e77c <_usinit_mapfile+0x1ec>
  40e764:	3c050042 	lui	$a1,0x42
  40e768:	3c0e0020 	lui	$t6,0x20
  40e76c:	8dc60e00 	lw	$a2,3584($t6)
  40e770:	8fa70100 	lw	$a3,256($sp)
  40e774:	0c103f10 	jal	40fc40 <_uprint>
  40e778:	24a5beb0 	addiu	$a1,$a1,-16720
  40e77c:	0c101ebd 	jal	407af4 <_setoserror>
  40e780:	24040010 	li	$a0,16
  40e784:	10000044 	b	40e898 <_usinit_mapfile+0x308>
  40e788:	00001025 	move	$v0,$zero
  40e78c:	8fa500e4 	lw	$a1,228($sp)
  40e790:	ac420420 	sw	$v0,1056($v0)
  40e794:	8faf00f0 	lw	$t7,240($sp)
  40e798:	3c080020 	lui	$t0,0x20
  40e79c:	ac4f044c 	sw	$t7,1100($v0)
  40e7a0:	8fb800e8 	lw	$t8,232($sp)
  40e7a4:	ac590008 	sw	$t9,8($v0)
  40e7a8:	ac580a5c 	sw	$t8,2652($v0)
  40e7ac:	8d090e00 	lw	$t1,3584($t0)
  40e7b0:	3c0adead 	lui	$t2,0xdead
  40e7b4:	354ababe 	ori	$t2,$t2,0xbabe
  40e7b8:	ac4a0004 	sw	$t2,4($v0)
  40e7bc:	ac490a6c 	sw	$t1,2668($v0)
  40e7c0:	8fab00f4 	lw	$t3,244($sp)
  40e7c4:	00000000 	nop
  40e7c8:	ac4b0424 	sw	$t3,1060($v0)
  40e7cc:	8fac00ec 	lw	$t4,236($sp)
  40e7d0:	ac430854 	sw	$v1,2132($v0)
  40e7d4:	04a0000e 	bltz	$a1,40e810 <_usinit_mapfile+0x280>
  40e7d8:	ac4c041c 	sw	$t4,1052($v0)
  40e7dc:	8fa400dc 	lw	$a0,220($sp)
  40e7e0:	8fa60100 	lw	$a2,256($sp)
  40e7e4:	8fa700ec 	lw	$a3,236($sp)
  40e7e8:	0c102b36 	jal	40acd8 <_ushardlock_create>
  40e7ec:	00000000 	nop
  40e7f0:	14400007 	bnez	$v0,40e810 <_usinit_mapfile+0x280>
  40e7f4:	00000000 	nop
  40e7f8:	8fa400dc 	lw	$a0,220($sp)
  40e7fc:	8fa500ec 	lw	$a1,236($sp)
  40e800:	0c1032b4 	jal	40cad0 <_munmap>
  40e804:	00000000 	nop
  40e808:	10000023 	b	40e898 <_usinit_mapfile+0x308>
  40e80c:	00001025 	move	$v0,$zero
  40e810:	8f8daf34 	lw	$t5,-20684($gp)
  40e814:	24010005 	li	$at,5
  40e818:	15a10005 	bne	$t5,$at,40e830 <_usinit_mapfile+0x2a0>
  40e81c:	8fae00e8 	lw	$t6,232($sp)
  40e820:	8fa400dc 	lw	$a0,220($sp)
  40e824:	0c104965 	jal	412594 <_r4k_llwarinit>
  40e828:	00000000 	nop
  40e82c:	8fae00e8 	lw	$t6,232($sp)
  40e830:	8fa400dc 	lw	$a0,220($sp)
  40e834:	31cf0004 	andi	$t7,$t6,0x4
  40e838:	15e00016 	bnez	$t7,40e894 <_usinit_mapfile+0x304>
  40e83c:	8fa200dc 	lw	$v0,220($sp)
  40e840:	8fb800f8 	lw	$t8,248($sp)
  40e844:	8fb900fc 	lw	$t9,252($sp)
  40e848:	8fa500f4 	lw	$a1,244($sp)
  40e84c:	8fa600ec 	lw	$a2,236($sp)
  40e850:	0c103e40 	jal	40f900 <_usretsfd+0x2f0>
  40e854:	03193821 	addu	$a3,$t8,$t9
  40e858:	1440000e 	bnez	$v0,40e894 <_usinit_mapfile+0x304>
  40e85c:	8fa200dc 	lw	$v0,220($sp)
  40e860:	8f888a30 	lw	$t0,-30160($gp)
  40e864:	24040001 	li	$a0,1
  40e868:	11000003 	beqz	$t0,40e878 <_usinit_mapfile+0x2e8>
  40e86c:	3c050042 	lui	$a1,0x42
  40e870:	0c103f10 	jal	40fc40 <_uprint>
  40e874:	24a5beec 	addiu	$a1,$a1,-16660
  40e878:	8fa400dc 	lw	$a0,220($sp)
  40e87c:	8fa500ec 	lw	$a1,236($sp)
  40e880:	0c1032b4 	jal	40cad0 <_munmap>
  40e884:	00000000 	nop
  40e888:	10000003 	b	40e898 <_usinit_mapfile+0x308>
  40e88c:	00001025 	move	$v0,$zero
  40e890:	8fa200dc 	lw	$v0,220($sp)
  40e894:	00000000 	nop
  40e898:	8fbf001c 	lw	$ra,28($sp)
  40e89c:	27bd00e0 	addiu	$sp,$sp,224
  40e8a0:	03e00008 	jr	$ra
  40e8a4:	00000000 	nop

0040e8a8 <_usinit>:
  40e8a8:	27bdee48 	addiu	$sp,$sp,-4536
  40e8ac:	afbf003c 	sw	$ra,60($sp)
  40e8b0:	afb30038 	sw	$s3,56($sp)
  40e8b4:	afb20034 	sw	$s2,52($sp)
  40e8b8:	afb10030 	sw	$s1,48($sp)
  40e8bc:	afb0002c 	sw	$s0,44($sp)
  40e8c0:	3c0e0020 	lui	$t6,0x20
  40e8c4:	8dcf0e00 	lw	$t7,3584($t6)
  40e8c8:	8f998a7c 	lw	$t9,-30084($gp)
  40e8cc:	8f888a78 	lw	$t0,-30088($gp)
  40e8d0:	00809825 	move	$s3,$a0
  40e8d4:	2418ffff 	li	$t8,-1
  40e8d8:	2409ffff 	li	$t1,-1
  40e8dc:	afb801a0 	sw	$t8,416($sp)
  40e8e0:	afa00198 	sw	$zero,408($sp)
  40e8e4:	afa9017c 	sw	$t1,380($sp)
  40e8e8:	00008025 	move	$s0,$zero
  40e8ec:	27848a3c 	addiu	$a0,$gp,-30148
  40e8f0:	afaf01a4 	sw	$t7,420($sp)
  40e8f4:	afb90184 	sw	$t9,388($sp)
  40e8f8:	0c10336c 	jal	40cdb0 <getenv>
  40e8fc:	afa80180 	sw	$t0,384($sp)
  40e900:	10400007 	beqz	$v0,40e920 <_usinit+0x78>
  40e904:	240c0001 	li	$t4,1
  40e908:	8faa0184 	lw	$t2,388($sp)
  40e90c:	240d0001 	li	$t5,1
  40e910:	354b0002 	ori	$t3,$t2,0x2
  40e914:	afab0184 	sw	$t3,388($sp)
  40e918:	af8caf30 	sw	$t4,-20688($gp)
  40e91c:	af8d8a30 	sw	$t5,-30160($gp)
  40e920:	0c10336c 	jal	40cdb0 <getenv>
  40e924:	27848a44 	addiu	$a0,$gp,-30140
  40e928:	10400002 	beqz	$v0,40e934 <_usinit+0x8c>
  40e92c:	240e0001 	li	$t6,1
  40e930:	af8e8a30 	sw	$t6,-30160($gp)
  40e934:	8f8f8a5c 	lw	$t7,-30116($gp)
  40e938:	3c040042 	lui	$a0,0x42
  40e93c:	11e0000b 	beqz	$t7,40e96c <_usinit+0xc4>
  40e940:	2484bf18 	addiu	$a0,$a0,-16616
  40e944:	0c10336c 	jal	40cdb0 <getenv>
  40e948:	af808a5c 	sw	$zero,-30116($gp)
  40e94c:	10400007 	beqz	$v0,40e96c <_usinit+0xc4>
  40e950:	00402025 	move	$a0,$v0
  40e954:	2405010a 	li	$a1,266
  40e958:	0c1032c0 	jal	40cb00 <_open>
  40e95c:	240601b6 	li	$a2,438
  40e960:	04400002 	bltz	$v0,40e96c <_usinit+0xc4>
  40e964:	00000000 	nop
  40e968:	af828a34 	sw	$v0,-30156($gp)
  40e96c:	8f85af34 	lw	$a1,-20684($gp)
  40e970:	00000000 	nop
  40e974:	14a00009 	bnez	$a1,40e99c <_usinit+0xf4>
  40e978:	00000000 	nop
  40e97c:	0c104ab8 	jal	412ae0 <_getsystype>
  40e980:	00000000 	nop
  40e984:	14400005 	bnez	$v0,40e99c <_usinit+0xf4>
  40e988:	af82af34 	sw	$v0,-20684($gp)
  40e98c:	0c101ebd 	jal	407af4 <_setoserror>
  40e990:	24040016 	li	$a0,22
  40e994:	100002a9 	b	40f43c <_usinit+0xb94>
  40e998:	00001025 	move	$v0,$zero
  40e99c:	3c050042 	lui	$a1,0x42
  40e9a0:	24a5bf24 	addiu	$a1,$a1,-16604
  40e9a4:	0c105cfc 	jal	4173f0 <strcmp>
  40e9a8:	02602025 	move	$a0,$s3
  40e9ac:	14400002 	bnez	$v0,40e9b8 <_usinit+0x110>
  40e9b0:	00000000 	nop
  40e9b4:	24100001 	li	$s0,1
  40e9b8:	1600002b 	bnez	$s0,40ea68 <_usinit+0x1c0>
  40e9bc:	00000000 	nop
  40e9c0:	8f838a38 	lw	$v1,-30152($gp)
  40e9c4:	00000000 	nop
  40e9c8:	10600027 	beqz	$v1,40ea68 <_usinit+0x1c0>
  40e9cc:	00000000 	nop
  40e9d0:	8c64000c 	lw	$a0,12($v1)
  40e9d4:	afa3018c 	sw	$v1,396($sp)
  40e9d8:	0c105cfc 	jal	4173f0 <strcmp>
  40e9dc:	02602825 	move	$a1,$s3
  40e9e0:	8fa3018c 	lw	$v1,396($sp)
  40e9e4:	1440001c 	bnez	$v0,40ea58 <_usinit+0x1b0>
  40e9e8:	00000000 	nop
  40e9ec:	8c700004 	lw	$s0,4($v1)
  40e9f0:	3c01dead 	lui	$at,0xdead
  40e9f4:	8e180004 	lw	$t8,4($s0)
  40e9f8:	3421babe 	ori	$at,$at,0xbabe
  40e9fc:	1701001a 	bne	$t8,$at,40ea68 <_usinit+0x1c0>
  40ea00:	00000000 	nop
  40ea04:	8e190008 	lw	$t9,8($s0)
  40ea08:	24010004 	li	$at,4
  40ea0c:	17210016 	bne	$t9,$at,40ea68 <_usinit+0x1c0>
  40ea10:	00000000 	nop
  40ea14:	8f88af30 	lw	$t0,-20688($gp)
  40ea18:	00002025 	move	$a0,$zero
  40ea1c:	11000006 	beqz	$t0,40ea38 <_usinit+0x190>
  40ea20:	3c050042 	lui	$a1,0x42
  40ea24:	3c090020 	lui	$t1,0x20
  40ea28:	8d260e00 	lw	$a2,3584($t1)
  40ea2c:	24a5bf30 	addiu	$a1,$a1,-16592
  40ea30:	0c103f10 	jal	40fc40 <_uprint>
  40ea34:	02603825 	move	$a3,$s3
  40ea38:	0c103d16 	jal	40f458 <_usadd>
  40ea3c:	02002025 	move	$a0,$s0
  40ea40:	10400003 	beqz	$v0,40ea50 <_usinit+0x1a8>
  40ea44:	00000000 	nop
  40ea48:	1000027c 	b	40f43c <_usinit+0xb94>
  40ea4c:	00001025 	move	$v0,$zero
  40ea50:	1000027a 	b	40f43c <_usinit+0xb94>
  40ea54:	02001025 	move	$v0,$s0
  40ea58:	8c630008 	lw	$v1,8($v1)
  40ea5c:	00000000 	nop
  40ea60:	1460ffdb 	bnez	$v1,40e9d0 <_usinit+0x128>
  40ea64:	00000000 	nop
  40ea68:	3c050042 	lui	$a1,0x42
  40ea6c:	24a5bf60 	addiu	$a1,$a1,-16544
  40ea70:	0c105cfc 	jal	4173f0 <strcmp>
  40ea74:	02602025 	move	$a0,$s3
  40ea78:	14400022 	bnez	$v0,40eb04 <_usinit+0x25c>
  40ea7c:	00002025 	move	$a0,$zero
  40ea80:	0c103050 	jal	40c140 <_tempnam>
  40ea84:	27858a4c 	addiu	$a1,$gp,-30132
  40ea88:	00408025 	move	$s0,$v0
  40ea8c:	00402025 	move	$a0,$v0
  40ea90:	24050102 	li	$a1,258
  40ea94:	0c1032c0 	jal	40cb00 <_open>
  40ea98:	24060180 	li	$a2,384
  40ea9c:	2401ffff 	li	$at,-1
  40eaa0:	14410012 	bne	$v0,$at,40eaec <_usinit+0x244>
  40eaa4:	afa2017c 	sw	$v0,380($sp)
  40eaa8:	0c101eb8 	jal	407ae0 <_oserror>
  40eaac:	00000000 	nop
  40eab0:	8f8a8a30 	lw	$t2,-30160($gp)
  40eab4:	afa2019c 	sw	$v0,412($sp)
  40eab8:	11400007 	beqz	$t2,40ead8 <_usinit+0x230>
  40eabc:	24040001 	li	$a0,1
  40eac0:	3c0b0020 	lui	$t3,0x20
  40eac4:	8d660e00 	lw	$a2,3584($t3)
  40eac8:	3c050042 	lui	$a1,0x42
  40eacc:	24a5bf6c 	addiu	$a1,$a1,-16532
  40ead0:	0c103f10 	jal	40fc40 <_uprint>
  40ead4:	02003825 	move	$a3,$s0
  40ead8:	8fa4019c 	lw	$a0,412($sp)
  40eadc:	0c101ebd 	jal	407af4 <_setoserror>
  40eae0:	00000000 	nop
  40eae4:	10000255 	b	40f43c <_usinit+0xb94>
  40eae8:	00001025 	move	$v0,$zero
  40eaec:	0c105e48 	jal	417920 <_unlink>
  40eaf0:	02002025 	move	$a0,$s0
  40eaf4:	8fa4017c 	lw	$a0,380($sp)
  40eaf8:	24050002 	li	$a1,2
  40eafc:	0c103290 	jal	40ca40 <_fcntl>
  40eb00:	24060001 	li	$a2,1
  40eb04:	02602025 	move	$a0,$s3
  40eb08:	0c1032c0 	jal	40cb00 <_open>
  40eb0c:	24050002 	li	$a1,2
  40eb10:	2401ffff 	li	$at,-1
  40eb14:	1441001d 	bne	$v0,$at,40eb8c <_usinit+0x2e4>
  40eb18:	00409025 	move	$s2,$v0
  40eb1c:	02602025 	move	$a0,$s3
  40eb20:	24050102 	li	$a1,258
  40eb24:	0c1032c0 	jal	40cb00 <_open>
  40eb28:	24060180 	li	$a2,384
  40eb2c:	2401ffff 	li	$at,-1
  40eb30:	14410012 	bne	$v0,$at,40eb7c <_usinit+0x2d4>
  40eb34:	00409025 	move	$s2,$v0
  40eb38:	0c101eb8 	jal	407ae0 <_oserror>
  40eb3c:	00000000 	nop
  40eb40:	8f8c8a30 	lw	$t4,-30160($gp)
  40eb44:	afa2019c 	sw	$v0,412($sp)
  40eb48:	11800007 	beqz	$t4,40eb68 <_usinit+0x2c0>
  40eb4c:	24040001 	li	$a0,1
  40eb50:	3c0d0020 	lui	$t5,0x20
  40eb54:	8da60e00 	lw	$a2,3584($t5)
  40eb58:	3c050042 	lui	$a1,0x42
  40eb5c:	24a5bf98 	addiu	$a1,$a1,-16488
  40eb60:	0c103f10 	jal	40fc40 <_uprint>
  40eb64:	02603825 	move	$a3,$s3
  40eb68:	8fa4019c 	lw	$a0,412($sp)
  40eb6c:	0c101ebd 	jal	407af4 <_setoserror>
  40eb70:	00000000 	nop
  40eb74:	10000231 	b	40f43c <_usinit+0xb94>
  40eb78:	00001025 	move	$v0,$zero
  40eb7c:	8fae0198 	lw	$t6,408($sp)
  40eb80:	00000000 	nop
  40eb84:	25cf0001 	addiu	$t7,$t6,1
  40eb88:	afaf0198 	sw	$t7,408($sp)
  40eb8c:	02402025 	move	$a0,$s2
  40eb90:	24050002 	li	$a1,2
  40eb94:	0c103290 	jal	40ca40 <_fcntl>
  40eb98:	24060001 	li	$a2,1
  40eb9c:	8fa3017c 	lw	$v1,380($sp)
  40eba0:	02408825 	move	$s1,$s2
  40eba4:	04600003 	bltz	$v1,40ebb4 <_usinit+0x30c>
  40eba8:	00002025 	move	$a0,$zero
  40ebac:	10000001 	b	40ebb4 <_usinit+0x30c>
  40ebb0:	00608825 	move	$s1,$v1
  40ebb4:	0c104a3e 	jal	4128f8 <_usfsplock>
  40ebb8:	02202825 	move	$a1,$s1
  40ebbc:	2401ffff 	li	$at,-1
  40ebc0:	1441000f 	bne	$v0,$at,40ec00 <_usinit+0x358>
  40ebc4:	27a401ac 	addiu	$a0,$sp,428
  40ebc8:	0c101eb8 	jal	407ae0 <_oserror>
  40ebcc:	00000000 	nop
  40ebd0:	8f988a30 	lw	$t8,-30160($gp)
  40ebd4:	afa2019c 	sw	$v0,412($sp)
  40ebd8:	130001fe 	beqz	$t8,40f3d4 <_usinit+0xb2c>
  40ebdc:	24040001 	li	$a0,1
  40ebe0:	3c190020 	lui	$t9,0x20
  40ebe4:	8f260e00 	lw	$a2,3584($t9)
  40ebe8:	3c050042 	lui	$a1,0x42
  40ebec:	24a5bfc4 	addiu	$a1,$a1,-16444
  40ebf0:	0c103f10 	jal	40fc40 <_uprint>
  40ebf4:	02603825 	move	$a3,$s3
  40ebf8:	100001f7 	b	40f3d8 <_usinit+0xb30>
  40ebfc:	8fa90198 	lw	$t1,408($sp)
  40ec00:	0c105d10 	jal	417440 <_blkclr>
  40ec04:	24051000 	li	$a1,4096
  40ec08:	02402025 	move	$a0,$s2
  40ec0c:	27a501ac 	addiu	$a1,$sp,428
  40ec10:	0c105e3c 	jal	4178f0 <_read>
  40ec14:	24061000 	li	$a2,4096
  40ec18:	8fa801b0 	lw	$t0,432($sp)
  40ec1c:	3c01dead 	lui	$at,0xdead
  40ec20:	3421babe 	ori	$at,$at,0xbabe
  40ec24:	150100be 	bne	$t0,$at,40ef20 <_usinit+0x678>
  40ec28:	00000000 	nop
  40ec2c:	8fa505d0 	lw	$a1,1488($sp)
  40ec30:	0c103787 	jal	40de1c <_hrellock+0x258>
  40ec34:	02202025 	move	$a0,$s1
  40ec38:	104000b9 	beqz	$v0,40ef20 <_usinit+0x678>
  40ec3c:	00000000 	nop
  40ec40:	8f89af30 	lw	$t1,-20688($gp)
  40ec44:	00002025 	move	$a0,$zero
  40ec48:	11200008 	beqz	$t1,40ec6c <_usinit+0x3c4>
  40ec4c:	3c050042 	lui	$a1,0x42
  40ec50:	8fab05cc 	lw	$t3,1484($sp)
  40ec54:	3c0a0020 	lui	$t2,0x20
  40ec58:	8d460e00 	lw	$a2,3584($t2)
  40ec5c:	24a5bff4 	addiu	$a1,$a1,-16396
  40ec60:	02603825 	move	$a3,$s3
  40ec64:	0c103f10 	jal	40fc40 <_uprint>
  40ec68:	afab0010 	sw	$t3,16($sp)
  40ec6c:	8fac01b4 	lw	$t4,436($sp)
  40ec70:	24010004 	li	$at,4
  40ec74:	1181000a 	beq	$t4,$at,40eca0 <_usinit+0x3f8>
  40ec78:	24060003 	li	$a2,3
  40ec7c:	8f8d8a30 	lw	$t5,-30160($gp)
  40ec80:	00002025 	move	$a0,$zero
  40ec84:	11a00003 	beqz	$t5,40ec94 <_usinit+0x3ec>
  40ec88:	3c050042 	lui	$a1,0x42
  40ec8c:	0c103f10 	jal	40fc40 <_uprint>
  40ec90:	24a5c028 	addiu	$a1,$a1,-16344
  40ec94:	240e0016 	li	$t6,22
  40ec98:	100001ce 	b	40f3d4 <_usinit+0xb2c>
  40ec9c:	afae019c 	sw	$t6,412($sp)
  40eca0:	8fa505c8 	lw	$a1,1480($sp)
  40eca4:	8fa405cc 	lw	$a0,1484($sp)
  40eca8:	24070041 	li	$a3,65
  40ecac:	afb20010 	sw	$s2,16($sp)
  40ecb0:	afa00014 	sw	$zero,20($sp)
  40ecb4:	0c1032a8 	jal	40caa0 <_mmap>
  40ecb8:	afa50194 	sw	$a1,404($sp)
  40ecbc:	2403ffff 	li	$v1,-1
  40ecc0:	1443000d 	bne	$v0,$v1,40ecf8 <_usinit+0x450>
  40ecc4:	00408025 	move	$s0,$v0
  40ecc8:	0c101eb8 	jal	407ae0 <_oserror>
  40eccc:	00000000 	nop
  40ecd0:	8f8f8a30 	lw	$t7,-30160($gp)
  40ecd4:	afa2019c 	sw	$v0,412($sp)
  40ecd8:	11e001be 	beqz	$t7,40f3d4 <_usinit+0xb2c>
  40ecdc:	24040001 	li	$a0,1
  40ece0:	3c050042 	lui	$a1,0x42
  40ece4:	8fa605cc 	lw	$a2,1484($sp)
  40ece8:	0c103f10 	jal	40fc40 <_uprint>
  40ecec:	24a5c048 	addiu	$a1,$a1,-16312
  40ecf0:	100001b9 	b	40f3d8 <_usinit+0xb30>
  40ecf4:	8fa90198 	lw	$t1,408($sp)
  40ecf8:	8fb805cc 	lw	$t8,1484($sp)
  40ecfc:	8f85af34 	lw	$a1,-20684($gp)
  40ed00:	10580010 	beq	$v0,$t8,40ed44 <_usinit+0x49c>
  40ed04:	24010003 	li	$at,3
  40ed08:	8fa50194 	lw	$a1,404($sp)
  40ed0c:	0c1032b4 	jal	40cad0 <_munmap>
  40ed10:	02002025 	move	$a0,$s0
  40ed14:	8f998a30 	lw	$t9,-30160($gp)
  40ed18:	00002025 	move	$a0,$zero
  40ed1c:	13200006 	beqz	$t9,40ed38 <_usinit+0x490>
  40ed20:	3c050042 	lui	$a1,0x42
  40ed24:	3c080020 	lui	$t0,0x20
  40ed28:	8d060e00 	lw	$a2,3584($t0)
  40ed2c:	8fa705cc 	lw	$a3,1484($sp)
  40ed30:	0c103f10 	jal	40fc40 <_uprint>
  40ed34:	24a5c068 	addiu	$a1,$a1,-16280
  40ed38:	24090010 	li	$t1,16
  40ed3c:	100001a5 	b	40f3d4 <_usinit+0xb2c>
  40ed40:	afa9019c 	sw	$t1,412($sp)
  40ed44:	14a10053 	bne	$a1,$at,40ee94 <_usinit+0x5ec>
  40ed48:	24010001 	li	$at,1
  40ed4c:	8c4a0854 	lw	$t2,2132($v0)
  40ed50:	8f85af34 	lw	$a1,-20684($gp)
  40ed54:	146a000d 	bne	$v1,$t2,40ed8c <_usinit+0x4e4>
  40ed58:	00000000 	nop
  40ed5c:	8f8b8a30 	lw	$t3,-30160($gp)
  40ed60:	00002025 	move	$a0,$zero
  40ed64:	11600003 	beqz	$t3,40ed74 <_usinit+0x4cc>
  40ed68:	3c050042 	lui	$a1,0x42
  40ed6c:	0c103f10 	jal	40fc40 <_uprint>
  40ed70:	24a5c0a4 	addiu	$a1,$a1,-16220
  40ed74:	8fa50194 	lw	$a1,404($sp)
  40ed78:	0c1032b4 	jal	40cad0 <_munmap>
  40ed7c:	02002025 	move	$a0,$s0
  40ed80:	240c0010 	li	$t4,16
  40ed84:	10000193 	b	40f3d4 <_usinit+0xb2c>
  40ed88:	afac019c 	sw	$t4,412($sp)
  40ed8c:	8e04044c 	lw	$a0,1100($s0)
  40ed90:	0c102f44 	jal	40bd10 <_ushardlocks_init>
  40ed94:	00000000 	nop
  40ed98:	0441000d 	bgez	$v0,40edd0 <_usinit+0x528>
  40ed9c:	26040454 	addiu	$a0,$s0,1108
  40eda0:	8f8d8a30 	lw	$t5,-30160($gp)
  40eda4:	00002025 	move	$a0,$zero
  40eda8:	11a00003 	beqz	$t5,40edb8 <_usinit+0x510>
  40edac:	3c050042 	lui	$a1,0x42
  40edb0:	0c103f10 	jal	40fc40 <_uprint>
  40edb4:	24a5c0e4 	addiu	$a1,$a1,-16156
  40edb8:	8fa50194 	lw	$a1,404($sp)
  40edbc:	0c1032b4 	jal	40cad0 <_munmap>
  40edc0:	02002025 	move	$a0,$s0
  40edc4:	240e0010 	li	$t6,16
  40edc8:	10000182 	b	40f3d4 <_usinit+0xb2c>
  40edcc:	afae019c 	sw	$t6,412($sp)
  40edd0:	8e0f0854 	lw	$t7,2132($s0)
  40edd4:	afa40040 	sw	$a0,64($sp)
  40edd8:	27a50158 	addiu	$a1,$sp,344
  40eddc:	0c102be7 	jal	40af9c <_ushardlock_attach>
  40ede0:	afaf0158 	sw	$t7,344($sp)
  40ede4:	04410004 	bgez	$v0,40edf8 <_usinit+0x550>
  40ede8:	afa201a0 	sw	$v0,416($sp)
  40edec:	0c101eb8 	jal	407ae0 <_oserror>
  40edf0:	00000000 	nop
  40edf4:	afa2019c 	sw	$v0,412($sp)
  40edf8:	8fa401a0 	lw	$a0,416($sp)
  40edfc:	0c101978 	jal	4065e0 <_close>
  40ee00:	00000000 	nop
  40ee04:	8fa505d0 	lw	$a1,1488($sp)
  40ee08:	0c103787 	jal	40de1c <_hrellock+0x258>
  40ee0c:	02202025 	move	$a0,$s1
  40ee10:	14400018 	bnez	$v0,40ee74 <_usinit+0x5cc>
  40ee14:	8fa801a0 	lw	$t0,416($sp)
  40ee18:	8fa40040 	lw	$a0,64($sp)
  40ee1c:	8fa50158 	lw	$a1,344($sp)
  40ee20:	0c102c63 	jal	40b18c <_ushardlock_detach>
  40ee24:	2406ffff 	li	$a2,-1
  40ee28:	8fa50194 	lw	$a1,404($sp)
  40ee2c:	0c1032b4 	jal	40cad0 <_munmap>
  40ee30:	02002025 	move	$a0,$s0
  40ee34:	00002025 	move	$a0,$zero
  40ee38:	0c104a68 	jal	4129a0 <_usfunsplock>
  40ee3c:	02202825 	move	$a1,$s1
  40ee40:	8f98af30 	lw	$t8,-20688($gp)
  40ee44:	00002025 	move	$a0,$zero
  40ee48:	13000005 	beqz	$t8,40ee60 <_usinit+0x5b8>
  40ee4c:	3c050042 	lui	$a1,0x42
  40ee50:	3c190020 	lui	$t9,0x20
  40ee54:	8f260e00 	lw	$a2,3584($t9)
  40ee58:	0c103f10 	jal	40fc40 <_uprint>
  40ee5c:	24a5c12c 	addiu	$a1,$a1,-16084
  40ee60:	0c101978 	jal	4065e0 <_close>
  40ee64:	02402025 	move	$a0,$s2
  40ee68:	1000ff27 	b	40eb08 <_usinit+0x260>
  40ee6c:	02602025 	move	$a0,$s3
  40ee70:	8fa801a0 	lw	$t0,416($sp)
  40ee74:	8fa50194 	lw	$a1,404($sp)
  40ee78:	05010027 	bgez	$t0,40ef18 <_usinit+0x670>
  40ee7c:	00000000 	nop
  40ee80:	0c1032b4 	jal	40cad0 <_munmap>
  40ee84:	02002025 	move	$a0,$s0
  40ee88:	10000153 	b	40f3d8 <_usinit+0xb30>
  40ee8c:	8fa90198 	lw	$t1,408($sp)
  40ee90:	24010001 	li	$at,1
  40ee94:	14a10008 	bne	$a1,$at,40eeb8 <_usinit+0x610>
  40ee98:	24010002 	li	$at,2
  40ee9c:	af85af34 	sw	$a1,-20684($gp)
  40eea0:	8e04044c 	lw	$a0,1100($s0)
  40eea4:	0c10219b 	jal	40866c <_ussoftlocks_init>
  40eea8:	00000000 	nop
  40eeac:	1000001a 	b	40ef18 <_usinit+0x670>
  40eeb0:	00000000 	nop
  40eeb4:	24010002 	li	$at,2
  40eeb8:	10a1000b 	beq	$a1,$at,40eee8 <_usinit+0x640>
  40eebc:	af85af34 	sw	$a1,-20684($gp)
  40eec0:	24010004 	li	$at,4
  40eec4:	10a10008 	beq	$a1,$at,40eee8 <_usinit+0x640>
  40eec8:	af85af34 	sw	$a1,-20684($gp)
  40eecc:	24010006 	li	$at,6
  40eed0:	10a10005 	beq	$a1,$at,40eee8 <_usinit+0x640>
  40eed4:	af85af34 	sw	$a1,-20684($gp)
  40eed8:	24010007 	li	$at,7
  40eedc:	14a10009 	bne	$a1,$at,40ef04 <_usinit+0x65c>
  40eee0:	24010005 	li	$at,5
  40eee4:	af85af34 	sw	$a1,-20684($gp)
  40eee8:	8e04044c 	lw	$a0,1100($s0)
  40eeec:	8f85af34 	lw	$a1,-20684($gp)
  40eef0:	0c10491f 	jal	41247c <_usr4klocks_init>
  40eef4:	00000000 	nop
  40eef8:	10000007 	b	40ef18 <_usinit+0x670>
  40eefc:	00000000 	nop
  40ef00:	24010005 	li	$at,5
  40ef04:	14a10004 	bne	$a1,$at,40ef18 <_usinit+0x670>
  40ef08:	af85af34 	sw	$a1,-20684($gp)
  40ef0c:	8e04044c 	lw	$a0,1100($s0)
  40ef10:	0c10491f 	jal	41247c <_usr4klocks_init>
  40ef14:	00000000 	nop
  40ef18:	100000e2 	b	40f2a4 <_usinit+0x9fc>
  40ef1c:	00000000 	nop
  40ef20:	8f89af30 	lw	$t1,-20688($gp)
  40ef24:	00002025 	move	$a0,$zero
  40ef28:	1120000a 	beqz	$t1,40ef54 <_usinit+0x6ac>
  40ef2c:	3c050042 	lui	$a1,0x42
  40ef30:	3c0a0020 	lui	$t2,0x20
  40ef34:	8fab0180 	lw	$t3,384($sp)
  40ef38:	8f8c8a74 	lw	$t4,-30092($gp)
  40ef3c:	8d460e00 	lw	$a2,3584($t2)
  40ef40:	24a5c168 	addiu	$a1,$a1,-16024
  40ef44:	02603825 	move	$a3,$s3
  40ef48:	afab0010 	sw	$t3,16($sp)
  40ef4c:	0c103f10 	jal	40fc40 <_uprint>
  40ef50:	afac0014 	sw	$t4,20($sp)
  40ef54:	8fad0198 	lw	$t5,408($sp)
  40ef58:	02402025 	move	$a0,$s2
  40ef5c:	15a0002b 	bnez	$t5,40f00c <_usinit+0x764>
  40ef60:	00000000 	nop
  40ef64:	0c1032f8 	jal	40cbe0 <_fstat>
  40ef68:	27a500d0 	addiu	$a1,$sp,208
  40ef6c:	8fae00e4 	lw	$t6,228($sp)
  40ef70:	34018000 	li	$at,0x8000
  40ef74:	31cff000 	andi	$t7,$t6,0xf000
  40ef78:	15e10024 	bne	$t7,$at,40f00c <_usinit+0x764>
  40ef7c:	00000000 	nop
  40ef80:	0c105988 	jal	416620 <_geteuid>
  40ef84:	00000000 	nop
  40ef88:	8fb800ec 	lw	$t8,236($sp)
  40ef8c:	8f99af30 	lw	$t9,-20688($gp)
  40ef90:	1058001e 	beq	$v0,$t8,40f00c <_usinit+0x764>
  40ef94:	00002025 	move	$a0,$zero
  40ef98:	13200006 	beqz	$t9,40efb4 <_usinit+0x70c>
  40ef9c:	3c050042 	lui	$a1,0x42
  40efa0:	3c080020 	lui	$t0,0x20
  40efa4:	8d060e00 	lw	$a2,3584($t0)
  40efa8:	24a5c1a8 	addiu	$a1,$a1,-15960
  40efac:	0c103f10 	jal	40fc40 <_uprint>
  40efb0:	02603825 	move	$a3,$s3
  40efb4:	0c105e48 	jal	417920 <_unlink>
  40efb8:	02602025 	move	$a0,$s3
  40efbc:	1040000d 	beqz	$v0,40eff4 <_usinit+0x74c>
  40efc0:	00002025 	move	$a0,$zero
  40efc4:	8f898a30 	lw	$t1,-30160($gp)
  40efc8:	24040001 	li	$a0,1
  40efcc:	11200004 	beqz	$t1,40efe0 <_usinit+0x738>
  40efd0:	3c050042 	lui	$a1,0x42
  40efd4:	24a5c1f4 	addiu	$a1,$a1,-15884
  40efd8:	0c103f10 	jal	40fc40 <_uprint>
  40efdc:	02603025 	move	$a2,$s3
  40efe0:	0c101ec5 	jal	407b14 <__oserror>
  40efe4:	00000000 	nop
  40efe8:	8c4a0000 	lw	$t2,0($v0)
  40efec:	100000f9 	b	40f3d4 <_usinit+0xb2c>
  40eff0:	afaa019c 	sw	$t2,412($sp)
  40eff4:	0c104a68 	jal	4129a0 <_usfunsplock>
  40eff8:	02202825 	move	$a1,$s1
  40effc:	0c101978 	jal	4065e0 <_close>
  40f000:	02402025 	move	$a0,$s2
  40f004:	1000fec0 	b	40eb08 <_usinit+0x260>
  40f008:	02602025 	move	$a0,$s3
  40f00c:	8f85af34 	lw	$a1,-20684($gp)
  40f010:	24010003 	li	$at,3
  40f014:	14a1002e 	bne	$a1,$at,40f0d0 <_usinit+0x828>
  40f018:	3c040042 	lui	$a0,0x42
  40f01c:	2484c220 	addiu	$a0,$a0,-15840
  40f020:	0c1032c0 	jal	40cb00 <_open>
  40f024:	24050002 	li	$a1,2
  40f028:	0441000c 	bgez	$v0,40f05c <_usinit+0x7b4>
  40f02c:	afa201a0 	sw	$v0,416($sp)
  40f030:	8f8b8a30 	lw	$t3,-30160($gp)
  40f034:	24040001 	li	$a0,1
  40f038:	11600003 	beqz	$t3,40f048 <_usinit+0x7a0>
  40f03c:	3c050042 	lui	$a1,0x42
  40f040:	0c103f10 	jal	40fc40 <_uprint>
  40f044:	24a5c234 	addiu	$a1,$a1,-15820
  40f048:	0c101ec5 	jal	407b14 <__oserror>
  40f04c:	00000000 	nop
  40f050:	8c4c0000 	lw	$t4,0($v0)
  40f054:	100000df 	b	40f3d4 <_usinit+0xb2c>
  40f058:	afac019c 	sw	$t4,412($sp)
  40f05c:	8fa401a0 	lw	$a0,416($sp)
  40f060:	24050002 	li	$a1,2
  40f064:	0c103290 	jal	40ca40 <_fcntl>
  40f068:	24060001 	li	$a2,1
  40f06c:	8f85af34 	lw	$a1,-20684($gp)
  40f070:	8fa40180 	lw	$a0,384($sp)
  40f074:	0c102f44 	jal	40bd10 <_ushardlocks_init>
  40f078:	00000000 	nop
  40f07c:	0441000a 	bgez	$v0,40f0a8 <_usinit+0x800>
  40f080:	00000000 	nop
  40f084:	8f8d8a30 	lw	$t5,-30160($gp)
  40f088:	00002025 	move	$a0,$zero
  40f08c:	11a00003 	beqz	$t5,40f09c <_usinit+0x7f4>
  40f090:	3c050042 	lui	$a1,0x42
  40f094:	0c103f10 	jal	40fc40 <_uprint>
  40f098:	24a5c260 	addiu	$a1,$a1,-15776
  40f09c:	240e0010 	li	$t6,16
  40f0a0:	100000cc 	b	40f3d4 <_usinit+0xb2c>
  40f0a4:	afae019c 	sw	$t6,412($sp)
  40f0a8:	8f8faf30 	lw	$t7,-20688($gp)
  40f0ac:	00002025 	move	$a0,$zero
  40f0b0:	11e00042 	beqz	$t7,40f1bc <_usinit+0x914>
  40f0b4:	3c050042 	lui	$a1,0x42
  40f0b8:	3c180020 	lui	$t8,0x20
  40f0bc:	8f060e00 	lw	$a2,3584($t8)
  40f0c0:	0c103f10 	jal	40fc40 <_uprint>
  40f0c4:	24a5c2a8 	addiu	$a1,$a1,-15704
  40f0c8:	1000003c 	b	40f1bc <_usinit+0x914>
  40f0cc:	00000000 	nop
  40f0d0:	24010001 	li	$at,1
  40f0d4:	14a1000e 	bne	$a1,$at,40f110 <_usinit+0x868>
  40f0d8:	24100002 	li	$s0,2
  40f0dc:	8fa40180 	lw	$a0,384($sp)
  40f0e0:	0c10219b 	jal	40866c <_ussoftlocks_init>
  40f0e4:	af85af34 	sw	$a1,-20684($gp)
  40f0e8:	8f99af30 	lw	$t9,-20688($gp)
  40f0ec:	00002025 	move	$a0,$zero
  40f0f0:	13200032 	beqz	$t9,40f1bc <_usinit+0x914>
  40f0f4:	3c050042 	lui	$a1,0x42
  40f0f8:	3c080020 	lui	$t0,0x20
  40f0fc:	8d060e00 	lw	$a2,3584($t0)
  40f100:	0c103f10 	jal	40fc40 <_uprint>
  40f104:	24a5c2d8 	addiu	$a1,$a1,-15656
  40f108:	1000002c 	b	40f1bc <_usinit+0x914>
  40f10c:	00000000 	nop
  40f110:	10b00007 	beq	$a1,$s0,40f130 <_usinit+0x888>
  40f114:	24010004 	li	$at,4
  40f118:	10a10005 	beq	$a1,$at,40f130 <_usinit+0x888>
  40f11c:	24010006 	li	$at,6
  40f120:	10a10003 	beq	$a1,$at,40f130 <_usinit+0x888>
  40f124:	24010007 	li	$at,7
  40f128:	14a10017 	bne	$a1,$at,40f188 <_usinit+0x8e0>
  40f12c:	24010005 	li	$at,5
  40f130:	8fa40180 	lw	$a0,384($sp)
  40f134:	0c10491f 	jal	41247c <_usr4klocks_init>
  40f138:	af85af34 	sw	$a1,-20684($gp)
  40f13c:	8f89af30 	lw	$t1,-20688($gp)
  40f140:	8f85af34 	lw	$a1,-20684($gp)
  40f144:	1120001d 	beqz	$t1,40f1bc <_usinit+0x914>
  40f148:	00002025 	move	$a0,$zero
  40f14c:	10b00004 	beq	$a1,$s0,40f160 <_usinit+0x8b8>
  40f150:	3c0a0020 	lui	$t2,0x20
  40f154:	24010006 	li	$at,6
  40f158:	14a10003 	bne	$a1,$at,40f168 <_usinit+0x8c0>
  40f15c:	af85af34 	sw	$a1,-20684($gp)
  40f160:	10000002 	b	40f16c <_usinit+0x8c4>
  40f164:	27878a54 	addiu	$a3,$gp,-30124
  40f168:	27878a58 	addiu	$a3,$gp,-30120
  40f16c:	3c050042 	lui	$a1,0x42
  40f170:	8d460e00 	lw	$a2,3584($t2)
  40f174:	0c103f10 	jal	40fc40 <_uprint>
  40f178:	24a5c308 	addiu	$a1,$a1,-15608
  40f17c:	1000000f 	b	40f1bc <_usinit+0x914>
  40f180:	00000000 	nop
  40f184:	24010005 	li	$at,5
  40f188:	14a1000c 	bne	$a1,$at,40f1bc <_usinit+0x914>
  40f18c:	af85af34 	sw	$a1,-20684($gp)
  40f190:	8fa40180 	lw	$a0,384($sp)
  40f194:	0c10491f 	jal	41247c <_usr4klocks_init>
  40f198:	af85af34 	sw	$a1,-20684($gp)
  40f19c:	8f8baf30 	lw	$t3,-20688($gp)
  40f1a0:	00002025 	move	$a0,$zero
  40f1a4:	11600005 	beqz	$t3,40f1bc <_usinit+0x914>
  40f1a8:	3c050042 	lui	$a1,0x42
  40f1ac:	3c0c0020 	lui	$t4,0x20
  40f1b0:	8d860e00 	lw	$a2,3584($t4)
  40f1b4:	0c103f10 	jal	40fc40 <_uprint>
  40f1b8:	24a5c338 	addiu	$a1,$a1,-15560
  40f1bc:	8f878a70 	lw	$a3,-30096($gp)
  40f1c0:	8fad0180 	lw	$t5,384($sp)
  40f1c4:	8f8e8a74 	lw	$t6,-30092($gp)
  40f1c8:	8f8f8a84 	lw	$t7,-30076($gp)
  40f1cc:	8f988a88 	lw	$t8,-30072($gp)
  40f1d0:	8f998a80 	lw	$t9,-30080($gp)
  40f1d4:	8fa501a0 	lw	$a1,416($sp)
  40f1d8:	8fa60184 	lw	$a2,388($sp)
  40f1dc:	02402025 	move	$a0,$s2
  40f1e0:	afa70194 	sw	$a3,404($sp)
  40f1e4:	afad0010 	sw	$t5,16($sp)
  40f1e8:	afae0014 	sw	$t6,20($sp)
  40f1ec:	afaf0018 	sw	$t7,24($sp)
  40f1f0:	afb8001c 	sw	$t8,28($sp)
  40f1f4:	0c103964 	jal	40e590 <_usinit_mapfile>
  40f1f8:	afb90020 	sw	$t9,32($sp)
  40f1fc:	14400011 	bnez	$v0,40f244 <_usinit+0x99c>
  40f200:	00408025 	move	$s0,$v0
  40f204:	0c101eb8 	jal	407ae0 <_oserror>
  40f208:	00000000 	nop
  40f20c:	afa2019c 	sw	$v0,412($sp)
  40f210:	02402025 	move	$a0,$s2
  40f214:	0c1032f8 	jal	40cbe0 <_fstat>
  40f218:	27a50048 	addiu	$a1,$sp,72
  40f21c:	8fa8005c 	lw	$t0,92($sp)
  40f220:	34018000 	li	$at,0x8000
  40f224:	3109f000 	andi	$t1,$t0,0xf000
  40f228:	1521006b 	bne	$t1,$at,40f3d8 <_usinit+0xb30>
  40f22c:	8fa90198 	lw	$t1,408($sp)
  40f230:	8faa0198 	lw	$t2,408($sp)
  40f234:	00000000 	nop
  40f238:	254b0001 	addiu	$t3,$t2,1
  40f23c:	10000065 	b	40f3d4 <_usinit+0xb2c>
  40f240:	afab0198 	sw	$t3,408($sp)
  40f244:	8fac01a0 	lw	$t4,416($sp)
  40f248:	00000000 	nop
  40f24c:	05800004 	bltz	$t4,40f260 <_usinit+0x9b8>
  40f250:	2604001c 	addiu	$a0,$s0,28
  40f254:	0c101978 	jal	4065e0 <_close>
  40f258:	01802025 	move	$a0,$t4
  40f25c:	2604001c 	addiu	$a0,$s0,28
  40f260:	0c10320c 	jal	40c830 <strcpy>
  40f264:	02602825 	move	$a1,$s3
  40f268:	0c103d9a 	jal	40f668 <_usretsfd+0x58>
  40f26c:	02002025 	move	$a0,$s0
  40f270:	04410009 	bgez	$v0,40f298 <_usinit+0x9f0>
  40f274:	02002025 	move	$a0,$s0
  40f278:	0c101eb8 	jal	407ae0 <_oserror>
  40f27c:	00000000 	nop
  40f280:	8fa50194 	lw	$a1,404($sp)
  40f284:	afa2019c 	sw	$v0,412($sp)
  40f288:	0c1032b4 	jal	40cad0 <_munmap>
  40f28c:	02002025 	move	$a0,$s0
  40f290:	10000051 	b	40f3d8 <_usinit+0xb30>
  40f294:	8fa90198 	lw	$t1,408($sp)
  40f298:	24050a78 	li	$a1,2680
  40f29c:	0c105e30 	jal	4178c0 <_msync>
  40f2a0:	24060002 	li	$a2,2
  40f2a4:	8f84af34 	lw	$a0,-20684($gp)
  40f2a8:	0c1049c4 	jal	412710 <_syncinit>
  40f2ac:	00000000 	nop
  40f2b0:	8fad0184 	lw	$t5,388($sp)
  40f2b4:	8faf0198 	lw	$t7,408($sp)
  40f2b8:	31ae0001 	andi	$t6,$t5,0x1
  40f2bc:	11c00005 	beqz	$t6,40f2d4 <_usinit+0xa2c>
  40f2c0:	00000000 	nop
  40f2c4:	11e00003 	beqz	$t7,40f2d4 <_usinit+0xa2c>
  40f2c8:	00000000 	nop
  40f2cc:	0c105e48 	jal	417920 <_unlink>
  40f2d0:	02602025 	move	$a0,$s3
  40f2d4:	0c101a6a 	jal	4069a8 <_malloc>
  40f2d8:	24040010 	li	$a0,16
  40f2dc:	afa20190 	sw	$v0,400($sp)
  40f2e0:	ac500004 	sw	$s0,4($v0)
  40f2e4:	ac510000 	sw	$s1,0($v0)
  40f2e8:	0c103238 	jal	40c8e0 <strlen>
  40f2ec:	02602025 	move	$a0,$s3
  40f2f0:	0c101a6a 	jal	4069a8 <_malloc>
  40f2f4:	24440001 	addiu	$a0,$v0,1
  40f2f8:	8fb80190 	lw	$t8,400($sp)
  40f2fc:	00402025 	move	$a0,$v0
  40f300:	02602825 	move	$a1,$s3
  40f304:	0c10320c 	jal	40c830 <strcpy>
  40f308:	af02000c 	sw	$v0,12($t8)
  40f30c:	8fa30190 	lw	$v1,400($sp)
  40f310:	8f858a38 	lw	$a1,-30152($gp)
  40f314:	27a40164 	addiu	$a0,$sp,356
  40f318:	ac650008 	sw	$a1,8($v1)
  40f31c:	0c103f99 	jal	40fe64 <__usblockallsigs>
  40f320:	af838a38 	sw	$v1,-30152($gp)
  40f324:	8fa501a4 	lw	$a1,420($sp)
  40f328:	02002025 	move	$a0,$s0
  40f32c:	0c1038af 	jal	40e2bc <_usany_tids_left+0xc8>
  40f330:	02203025 	move	$a2,$s1
  40f334:	2401ffff 	li	$at,-1
  40f338:	14410014 	bne	$v0,$at,40f38c <_usinit+0xae4>
  40f33c:	00000000 	nop
  40f340:	0c101eb8 	jal	407ae0 <_oserror>
  40f344:	00000000 	nop
  40f348:	afa2019c 	sw	$v0,412($sp)
  40f34c:	0c103faf 	jal	40febc <__usunblockallsigs>
  40f350:	27a40164 	addiu	$a0,$sp,356
  40f354:	8fa20190 	lw	$v0,400($sp)
  40f358:	00000000 	nop
  40f35c:	8c450008 	lw	$a1,8($v0)
  40f360:	8c44000c 	lw	$a0,12($v0)
  40f364:	0c101e5f 	jal	40797c <_free>
  40f368:	af858a38 	sw	$a1,-30152($gp)
  40f36c:	8fa40190 	lw	$a0,400($sp)
  40f370:	0c101e5f 	jal	40797c <_free>
  40f374:	00000000 	nop
  40f378:	8fa50194 	lw	$a1,404($sp)
  40f37c:	0c1032b4 	jal	40cad0 <_munmap>
  40f380:	02002025 	move	$a0,$s0
  40f384:	10000014 	b	40f3d8 <_usinit+0xb30>
  40f388:	8fa90198 	lw	$t1,408($sp)
  40f38c:	0c103faf 	jal	40febc <__usunblockallsigs>
  40f390:	27a40164 	addiu	$a0,$sp,356
  40f394:	8f99af30 	lw	$t9,-20688($gp)
  40f398:	00002025 	move	$a0,$zero
  40f39c:	13200007 	beqz	$t9,40f3bc <_usinit+0xb14>
  40f3a0:	3c050042 	lui	$a1,0x42
  40f3a4:	3c080020 	lui	$t0,0x20
  40f3a8:	8d060e00 	lw	$a2,3584($t0)
  40f3ac:	afb00010 	sw	$s0,16($sp)
  40f3b0:	24a5c36c 	addiu	$a1,$a1,-15508
  40f3b4:	0c103f10 	jal	40fc40 <_uprint>
  40f3b8:	02603825 	move	$a3,$s3
  40f3bc:	12320003 	beq	$s1,$s2,40f3cc <_usinit+0xb24>
  40f3c0:	00000000 	nop
  40f3c4:	0c101978 	jal	4065e0 <_close>
  40f3c8:	02402025 	move	$a0,$s2
  40f3cc:	1000001b 	b	40f43c <_usinit+0xb94>
  40f3d0:	02001025 	move	$v0,$s0
  40f3d4:	8fa90198 	lw	$t1,408($sp)
  40f3d8:	00000000 	nop
  40f3dc:	11200004 	beqz	$t1,40f3f0 <_usinit+0xb48>
  40f3e0:	8faa01a0 	lw	$t2,416($sp)
  40f3e4:	0c105e48 	jal	417920 <_unlink>
  40f3e8:	02602025 	move	$a0,$s3
  40f3ec:	8faa01a0 	lw	$t2,416($sp)
  40f3f0:	00000000 	nop
  40f3f4:	05400003 	bltz	$t2,40f404 <_usinit+0xb5c>
  40f3f8:	00000000 	nop
  40f3fc:	0c101978 	jal	4065e0 <_close>
  40f400:	01402025 	move	$a0,$t2
  40f404:	06400004 	bltz	$s2,40f418 <_usinit+0xb70>
  40f408:	8fab017c 	lw	$t3,380($sp)
  40f40c:	0c101978 	jal	4065e0 <_close>
  40f410:	02402025 	move	$a0,$s2
  40f414:	8fab017c 	lw	$t3,380($sp)
  40f418:	00000000 	nop
  40f41c:	05600004 	bltz	$t3,40f430 <_usinit+0xb88>
  40f420:	8fa4019c 	lw	$a0,412($sp)
  40f424:	0c101978 	jal	4065e0 <_close>
  40f428:	01602025 	move	$a0,$t3
  40f42c:	8fa4019c 	lw	$a0,412($sp)
  40f430:	0c101ebd 	jal	407af4 <_setoserror>
  40f434:	00000000 	nop
  40f438:	00001025 	move	$v0,$zero
  40f43c:	8fbf003c 	lw	$ra,60($sp)
  40f440:	8fb0002c 	lw	$s0,44($sp)
  40f444:	8fb10030 	lw	$s1,48($sp)
  40f448:	8fb20034 	lw	$s2,52($sp)
  40f44c:	8fb30038 	lw	$s3,56($sp)
  40f450:	03e00008 	jr	$ra
  40f454:	27bd11b8 	addiu	$sp,$sp,4536

0040f458 <_usadd>:
  40f458:	27bdffc8 	addiu	$sp,$sp,-56
  40f45c:	afbf0014 	sw	$ra,20($sp)
  40f460:	afa40038 	sw	$a0,56($sp)
  40f464:	3c0e0020 	lui	$t6,0x20
  40f468:	8dcf0e00 	lw	$t7,3584($t6)
  40f46c:	afa0002c 	sw	$zero,44($sp)
  40f470:	27a40018 	addiu	$a0,$sp,24
  40f474:	0c103f99 	jal	40fe64 <__usblockallsigs>
  40f478:	afaf0030 	sw	$t7,48($sp)
  40f47c:	8fa40038 	lw	$a0,56($sp)
  40f480:	0c1037ad 	jal	40deb4 <_usgettid>
  40f484:	00000000 	nop
  40f488:	2401ffff 	li	$at,-1
  40f48c:	14410020 	bne	$v0,$at,40f510 <_usadd+0xb8>
  40f490:	00000000 	nop
  40f494:	0c101eb8 	jal	407ae0 <_oserror>
  40f498:	00000000 	nop
  40f49c:	2401002e 	li	$at,46
  40f4a0:	14410003 	bne	$v0,$at,40f4b0 <_usadd+0x58>
  40f4a4:	2418ffff 	li	$t8,-1
  40f4a8:	1000001c 	b	40f51c <_usadd+0xc4>
  40f4ac:	afb8002c 	sw	$t8,44($sp)
  40f4b0:	8fa40038 	lw	$a0,56($sp)
  40f4b4:	8fa50030 	lw	$a1,48($sp)
  40f4b8:	0c1038af 	jal	40e2bc <_usany_tids_left+0xc8>
  40f4bc:	2406ffff 	li	$a2,-1
  40f4c0:	2401ffff 	li	$at,-1
  40f4c4:	14410012 	bne	$v0,$at,40f510 <_usadd+0xb8>
  40f4c8:	00000000 	nop
  40f4cc:	0c101eb8 	jal	407ae0 <_oserror>
  40f4d0:	00000000 	nop
  40f4d4:	8f998a30 	lw	$t9,-30160($gp)
  40f4d8:	afa20028 	sw	$v0,40($sp)
  40f4dc:	13200006 	beqz	$t9,40f4f8 <_usadd+0xa0>
  40f4e0:	24040001 	li	$a0,1
  40f4e4:	3c050042 	lui	$a1,0x42
  40f4e8:	8fa60030 	lw	$a2,48($sp)
  40f4ec:	8fa70038 	lw	$a3,56($sp)
  40f4f0:	0c103f10 	jal	40fc40 <_uprint>
  40f4f4:	24a5c3a4 	addiu	$a1,$a1,-15452
  40f4f8:	8fa40028 	lw	$a0,40($sp)
  40f4fc:	0c101ebd 	jal	407af4 <_setoserror>
  40f500:	00000000 	nop
  40f504:	2408ffff 	li	$t0,-1
  40f508:	10000004 	b	40f51c <_usadd+0xc4>
  40f50c:	afa8002c 	sw	$t0,44($sp)
  40f510:	8f84af34 	lw	$a0,-20684($gp)
  40f514:	0c1049c4 	jal	412710 <_syncinit>
  40f518:	00000000 	nop
  40f51c:	0c103faf 	jal	40febc <__usunblockallsigs>
  40f520:	27a40018 	addiu	$a0,$sp,24
  40f524:	8fbf0014 	lw	$ra,20($sp)
  40f528:	8fa2002c 	lw	$v0,44($sp)
  40f52c:	03e00008 	jr	$ra
  40f530:	27bd0038 	addiu	$sp,$sp,56

0040f534 <__usfastadd>:
  40f534:	27bdffc8 	addiu	$sp,$sp,-56
  40f538:	afbf0014 	sw	$ra,20($sp)
  40f53c:	afa40038 	sw	$a0,56($sp)
  40f540:	3c0e0020 	lui	$t6,0x20
  40f544:	8dcf0e00 	lw	$t7,3584($t6)
  40f548:	0c1037ad 	jal	40deb4 <_usgettid>
  40f54c:	afaf0034 	sw	$t7,52($sp)
  40f550:	00021c00 	sll	$v1,$v0,0x10
  40f554:	2401ffff 	li	$at,-1
  40f558:	10410003 	beq	$v0,$at,40f568 <__usfastadd+0x34>
  40f55c:	0003c403 	sra	$t8,$v1,0x10
  40f560:	10000027 	b	40f600 <__usfastadd+0xcc>
  40f564:	03001025 	move	$v0,$t8
  40f568:	0c103f99 	jal	40fe64 <__usblockallsigs>
  40f56c:	27a40020 	addiu	$a0,$sp,32
  40f570:	8fa40038 	lw	$a0,56($sp)
  40f574:	0c1037ad 	jal	40deb4 <_usgettid>
  40f578:	00000000 	nop
  40f57c:	2401ffff 	li	$at,-1
  40f580:	1441001b 	bne	$v0,$at,40f5f0 <__usfastadd+0xbc>
  40f584:	a7a2001e 	sh	$v0,30($sp)
  40f588:	0c101eb8 	jal	407ae0 <_oserror>
  40f58c:	00000000 	nop
  40f590:	2401002e 	li	$at,46
  40f594:	10410016 	beq	$v0,$at,40f5f0 <__usfastadd+0xbc>
  40f598:	00000000 	nop
  40f59c:	8fa40038 	lw	$a0,56($sp)
  40f5a0:	8fa50034 	lw	$a1,52($sp)
  40f5a4:	0c1038af 	jal	40e2bc <_usany_tids_left+0xc8>
  40f5a8:	2406ffff 	li	$a2,-1
  40f5ac:	2401ffff 	li	$at,-1
  40f5b0:	1441000f 	bne	$v0,$at,40f5f0 <__usfastadd+0xbc>
  40f5b4:	a7a2001e 	sh	$v0,30($sp)
  40f5b8:	0c101eb8 	jal	407ae0 <_oserror>
  40f5bc:	00000000 	nop
  40f5c0:	8f998a30 	lw	$t9,-30160($gp)
  40f5c4:	afa20030 	sw	$v0,48($sp)
  40f5c8:	13200006 	beqz	$t9,40f5e4 <__usfastadd+0xb0>
  40f5cc:	24040001 	li	$a0,1
  40f5d0:	3c050042 	lui	$a1,0x42
  40f5d4:	8fa60034 	lw	$a2,52($sp)
  40f5d8:	8fa70038 	lw	$a3,56($sp)
  40f5dc:	0c103f10 	jal	40fc40 <_uprint>
  40f5e0:	24a5c3d8 	addiu	$a1,$a1,-15400
  40f5e4:	8fa40030 	lw	$a0,48($sp)
  40f5e8:	0c101ebd 	jal	407af4 <_setoserror>
  40f5ec:	00000000 	nop
  40f5f0:	0c103faf 	jal	40febc <__usunblockallsigs>
  40f5f4:	27a40020 	addiu	$a0,$sp,32
  40f5f8:	87a2001e 	lh	$v0,30($sp)
  40f5fc:	00000000 	nop
  40f600:	8fbf0014 	lw	$ra,20($sp)
  40f604:	27bd0038 	addiu	$sp,$sp,56
  40f608:	03e00008 	jr	$ra
  40f60c:	00000000 	nop

0040f610 <_usretsfd>:
  40f610:	27bdffe8 	addiu	$sp,$sp,-24
  40f614:	afbf0014 	sw	$ra,20($sp)
  40f618:	0c1037ad 	jal	40deb4 <_usgettid>
  40f61c:	afa40018 	sw	$a0,24($sp)
  40f620:	00021c00 	sll	$v1,$v0,0x10
  40f624:	00037403 	sra	$t6,$v1,0x10
  40f628:	2401ffff 	li	$at,-1
  40f62c:	14410003 	bne	$v0,$at,40f63c <_usretsfd+0x2c>
  40f630:	01c01825 	move	$v1,$t6
  40f634:	10000008 	b	40f658 <_usretsfd+0x48>
  40f638:	2402ffff 	li	$v0,-1
  40f63c:	8faf0018 	lw	$t7,24($sp)
  40f640:	0003c8c0 	sll	$t9,$v1,0x3
  40f644:	8df8000c 	lw	$t8,12($t7)
  40f648:	00000000 	nop
  40f64c:	03194021 	addu	$t0,$t8,$t9
  40f650:	85020006 	lh	$v0,6($t0)
  40f654:	00000000 	nop
  40f658:	8fbf0014 	lw	$ra,20($sp)
  40f65c:	27bd0018 	addiu	$sp,$sp,24
  40f660:	03e00008 	jr	$ra
  40f664:	00000000 	nop
  40f668:	27bdff48 	addiu	$sp,$sp,-184
  40f66c:	afa400b8 	sw	$a0,184($sp)
  40f670:	afbf0024 	sw	$ra,36($sp)
  40f674:	3c040042 	lui	$a0,0x42
  40f678:	afb00020 	sw	$s0,32($sp)
  40f67c:	2484c40c 	addiu	$a0,$a0,-15348
  40f680:	0c1032c0 	jal	40cb00 <_open>
  40f684:	24050002 	li	$a1,2
  40f688:	0441000b 	bgez	$v0,40f6b8 <_usretsfd+0xa8>
  40f68c:	00408025 	move	$s0,$v0
  40f690:	8f8e8a30 	lw	$t6,-30160($gp)
  40f694:	24040001 	li	$a0,1
  40f698:	11c00005 	beqz	$t6,40f6b0 <_usretsfd+0xa0>
  40f69c:	3c050042 	lui	$a1,0x42
  40f6a0:	3c060042 	lui	$a2,0x42
  40f6a4:	24c6c438 	addiu	$a2,$a2,-15304
  40f6a8:	0c103f10 	jal	40fc40 <_uprint>
  40f6ac:	24a5c41c 	addiu	$a1,$a1,-15332
  40f6b0:	10000024 	b	40f744 <_usretsfd+0x134>
  40f6b4:	2402ffff 	li	$v0,-1
  40f6b8:	02002025 	move	$a0,$s0
  40f6bc:	24050002 	li	$a1,2
  40f6c0:	0c103290 	jal	40ca40 <_fcntl>
  40f6c4:	24060001 	li	$a2,1
  40f6c8:	02002025 	move	$a0,$s0
  40f6cc:	0c103284 	jal	40ca10 <_fchmod>
  40f6d0:	24050180 	li	$a1,384
  40f6d4:	02002025 	move	$a0,$s0
  40f6d8:	0c1032f8 	jal	40cbe0 <_fstat>
  40f6dc:	27a5002c 	addiu	$a1,$sp,44
  40f6e0:	1040000b 	beqz	$v0,40f710 <_usretsfd+0x100>
  40f6e4:	00000000 	nop
  40f6e8:	8f8f8a30 	lw	$t7,-30160($gp)
  40f6ec:	24040001 	li	$a0,1
  40f6f0:	11e00003 	beqz	$t7,40f700 <_usretsfd+0xf0>
  40f6f4:	3c050042 	lui	$a1,0x42
  40f6f8:	0c103f10 	jal	40fc40 <_uprint>
  40f6fc:	24a5c448 	addiu	$a1,$a1,-15288
  40f700:	0c101978 	jal	4065e0 <_close>
  40f704:	02002025 	move	$a0,$s0
  40f708:	1000000e 	b	40f744 <_usretsfd+0x134>
  40f70c:	2402ffff 	li	$v0,-1
  40f710:	8f98af30 	lw	$t8,-20688($gp)
  40f714:	00002025 	move	$a0,$zero
  40f718:	13000006 	beqz	$t8,40f734 <_usretsfd+0x124>
  40f71c:	3c050042 	lui	$a1,0x42
  40f720:	8fa600b8 	lw	$a2,184($sp)
  40f724:	8fa70050 	lw	$a3,80($sp)
  40f728:	24a5c478 	addiu	$a1,$a1,-15240
  40f72c:	0c103f10 	jal	40fc40 <_uprint>
  40f730:	afb00010 	sw	$s0,16($sp)
  40f734:	8fb90050 	lw	$t9,80($sp)
  40f738:	8fa800b8 	lw	$t0,184($sp)
  40f73c:	02001025 	move	$v0,$s0
  40f740:	ad190a68 	sw	$t9,2664($t0)
  40f744:	8fbf0024 	lw	$ra,36($sp)
  40f748:	8fb00020 	lw	$s0,32($sp)
  40f74c:	03e00008 	jr	$ra
  40f750:	27bd00b8 	addiu	$sp,$sp,184
  40f754:	27bdff30 	addiu	$sp,$sp,-208
  40f758:	afbf002c 	sw	$ra,44($sp)
  40f75c:	afb40028 	sw	$s4,40($sp)
  40f760:	0080a025 	move	$s4,$a0
  40f764:	afb30024 	sw	$s3,36($sp)
  40f768:	afb20020 	sw	$s2,32($sp)
  40f76c:	afb1001c 	sw	$s1,28($sp)
  40f770:	afb00018 	sw	$s0,24($sp)
  40f774:	0c105e6c 	jal	4179b0 <_getdtablehi>
  40f778:	afa500d4 	sw	$a1,212($sp)
  40f77c:	00409825 	move	$s3,$v0
  40f780:	18400017 	blez	$v0,40f7e0 <_usretsfd+0x1d0>
  40f784:	00008025 	move	$s0,$zero
  40f788:	24122000 	li	$s2,8192
  40f78c:	27b10038 	addiu	$s1,$sp,56
  40f790:	02002025 	move	$a0,$s0
  40f794:	0c1032f8 	jal	40cbe0 <_fstat>
  40f798:	02202825 	move	$a1,$s1
  40f79c:	1440000c 	bnez	$v0,40f7d0 <_usretsfd+0x1c0>
  40f7a0:	00000000 	nop
  40f7a4:	8fae004c 	lw	$t6,76($sp)
  40f7a8:	8fb8005c 	lw	$t8,92($sp)
  40f7ac:	31cff000 	andi	$t7,$t6,0xf000
  40f7b0:	164f0007 	bne	$s2,$t7,40f7d0 <_usretsfd+0x1c0>
  40f7b4:	00000000 	nop
  40f7b8:	8e990a68 	lw	$t9,2664($s4)
  40f7bc:	00000000 	nop
  40f7c0:	17190003 	bne	$t8,$t9,40f7d0 <_usretsfd+0x1c0>
  40f7c4:	00000000 	nop
  40f7c8:	10000045 	b	40f8e0 <_usretsfd+0x2d0>
  40f7cc:	02001025 	move	$v0,$s0
  40f7d0:	26100001 	addiu	$s0,$s0,1
  40f7d4:	0213082a 	slt	$at,$s0,$s3
  40f7d8:	1420ffee 	bnez	$at,40f794 <_usretsfd+0x184>
  40f7dc:	02002025 	move	$a0,$s0
  40f7e0:	3c040042 	lui	$a0,0x42
  40f7e4:	2484c4b0 	addiu	$a0,$a0,-15184
  40f7e8:	0c1032c0 	jal	40cb00 <_open>
  40f7ec:	24050002 	li	$a1,2
  40f7f0:	0441000b 	bgez	$v0,40f820 <_usretsfd+0x210>
  40f7f4:	00408025 	move	$s0,$v0
  40f7f8:	8f888a30 	lw	$t0,-30160($gp)
  40f7fc:	24040001 	li	$a0,1
  40f800:	11000005 	beqz	$t0,40f818 <_usretsfd+0x208>
  40f804:	3c050042 	lui	$a1,0x42
  40f808:	3c060042 	lui	$a2,0x42
  40f80c:	24c6c4d8 	addiu	$a2,$a2,-15144
  40f810:	0c103f10 	jal	40fc40 <_uprint>
  40f814:	24a5c4bc 	addiu	$a1,$a1,-15172
  40f818:	10000031 	b	40f8e0 <_usretsfd+0x2d0>
  40f81c:	2402ffff 	li	$v0,-1
  40f820:	8e890a68 	lw	$t1,2664($s4)
  40f824:	3c050075 	lui	$a1,0x75
  40f828:	34a57302 	ori	$a1,$a1,0x7302
  40f82c:	02002025 	move	$a0,$s0
  40f830:	27a60030 	addiu	$a2,$sp,48
  40f834:	0c10329c 	jal	40ca70 <_ioctl>
  40f838:	afa90030 	sw	$t1,48($sp)
  40f83c:	00408825 	move	$s1,$v0
  40f840:	0c101978 	jal	4065e0 <_close>
  40f844:	02002025 	move	$a0,$s0
  40f848:	8fa400d4 	lw	$a0,212($sp)
  40f84c:	8e850424 	lw	$a1,1060($s4)
  40f850:	0c103787 	jal	40de1c <_hrellock+0x258>
  40f854:	00000000 	nop
  40f858:	14400011 	bnez	$v0,40f8a0 <_usretsfd+0x290>
  40f85c:	00408025 	move	$s0,$v0
  40f860:	8f8aaf30 	lw	$t2,-20688($gp)
  40f864:	00002025 	move	$a0,$zero
  40f868:	11400005 	beqz	$t2,40f880 <_usretsfd+0x270>
  40f86c:	3c050042 	lui	$a1,0x42
  40f870:	3c0b0020 	lui	$t3,0x20
  40f874:	8d660e00 	lw	$a2,3584($t3)
  40f878:	0c103f10 	jal	40fc40 <_uprint>
  40f87c:	24a5c4e4 	addiu	$a1,$a1,-15132
  40f880:	12200003 	beqz	$s1,40f890 <_usretsfd+0x280>
  40f884:	00000000 	nop
  40f888:	0c101978 	jal	4065e0 <_close>
  40f88c:	02202025 	move	$a0,$s1
  40f890:	0c103d9a 	jal	40f668 <_usretsfd+0x58>
  40f894:	02802025 	move	$a0,$s4
  40f898:	10000012 	b	40f8e4 <_usretsfd+0x2d4>
  40f89c:	8fbf002c 	lw	$ra,44($sp)
  40f8a0:	0621000b 	bgez	$s1,40f8d0 <_usretsfd+0x2c0>
  40f8a4:	02202025 	move	$a0,$s1
  40f8a8:	8f8c8a30 	lw	$t4,-30160($gp)
  40f8ac:	24040001 	li	$a0,1
  40f8b0:	11800005 	beqz	$t4,40f8c8 <_usretsfd+0x2b8>
  40f8b4:	3c050042 	lui	$a1,0x42
  40f8b8:	8e860a68 	lw	$a2,2664($s4)
  40f8bc:	24a5c518 	addiu	$a1,$a1,-15080
  40f8c0:	0c103f10 	jal	40fc40 <_uprint>
  40f8c4:	02003825 	move	$a3,$s0
  40f8c8:	10000005 	b	40f8e0 <_usretsfd+0x2d0>
  40f8cc:	2402ffff 	li	$v0,-1
  40f8d0:	24050002 	li	$a1,2
  40f8d4:	0c103290 	jal	40ca40 <_fcntl>
  40f8d8:	24060001 	li	$a2,1
  40f8dc:	02201025 	move	$v0,$s1
  40f8e0:	8fbf002c 	lw	$ra,44($sp)
  40f8e4:	8fb00018 	lw	$s0,24($sp)
  40f8e8:	8fb1001c 	lw	$s1,28($sp)
  40f8ec:	8fb20020 	lw	$s2,32($sp)
  40f8f0:	8fb30024 	lw	$s3,36($sp)
  40f8f4:	8fb40028 	lw	$s4,40($sp)
  40f8f8:	03e00008 	jr	$ra
  40f8fc:	27bd00d0 	addiu	$sp,$sp,208
  40f900:	27bdffc0 	addiu	$sp,$sp,-64
  40f904:	8f8eaf30 	lw	$t6,-20688($gp)
  40f908:	afb00020 	sw	$s0,32($sp)
  40f90c:	00808025 	move	$s0,$a0
  40f910:	afbf0024 	sw	$ra,36($sp)
  40f914:	afa50044 	sw	$a1,68($sp)
  40f918:	afa60048 	sw	$a2,72($sp)
  40f91c:	11c0000b 	beqz	$t6,40f94c <_usretsfd+0x33c>
  40f920:	afa7004c 	sw	$a3,76($sp)
  40f924:	8fb80048 	lw	$t8,72($sp)
  40f928:	3c0f0020 	lui	$t7,0x20
  40f92c:	8de60e00 	lw	$a2,3584($t7)
  40f930:	3c050042 	lui	$a1,0x42
  40f934:	2719f588 	addiu	$t9,$t8,-2680
  40f938:	afb90010 	sw	$t9,16($sp)
  40f93c:	24a5c558 	addiu	$a1,$a1,-15016
  40f940:	00002025 	move	$a0,$zero
  40f944:	0c103f10 	jal	40fc40 <_uprint>
  40f948:	24070a78 	li	$a3,2680
  40f94c:	8fa50048 	lw	$a1,72($sp)
  40f950:	8fa8004c 	lw	$t0,76($sp)
  40f954:	26040a78 	addiu	$a0,$s0,2680
  40f958:	11000003 	beqz	$t0,40f968 <_usretsfd+0x358>
  40f95c:	24a5f588 	addiu	$a1,$a1,-2680
  40f960:	10000002 	b	40f96c <_usretsfd+0x35c>
  40f964:	00003025 	move	$a2,$zero
  40f968:	24060004 	li	$a2,4
  40f96c:	02003825 	move	$a3,$s0
  40f970:	afa00010 	sw	$zero,16($sp)
  40f974:	0c10418b 	jal	41062c <_acreate>
  40f978:	afa50028 	sw	$a1,40($sp)
  40f97c:	8fa50028 	lw	$a1,40($sp)
  40f980:	8fa70044 	lw	$a3,68($sp)
  40f984:	14400009 	bnez	$v0,40f9ac <_usretsfd+0x39c>
  40f988:	ae020018 	sw	$v0,24($s0)
  40f98c:	8f898a30 	lw	$t1,-30160($gp)
  40f990:	24040001 	li	$a0,1
  40f994:	11200003 	beqz	$t1,40f9a4 <_usretsfd+0x394>
  40f998:	3c050042 	lui	$a1,0x42
  40f99c:	0c103f10 	jal	40fc40 <_uprint>
  40f9a0:	24a5c590 	addiu	$a1,$a1,-14960
  40f9a4:	100000a2 	b	40fc30 <_usretsfd+0x620>
  40f9a8:	00001025 	move	$v0,$zero
  40f9ac:	3401f588 	li	$at,0xf588
  40f9b0:	00a1082b 	sltu	$at,$a1,$at
  40f9b4:	1020000e 	beqz	$at,40f9f0 <_usretsfd+0x3e0>
  40f9b8:	00001825 	move	$v1,$zero
  40f9bc:	8e060018 	lw	$a2,24($s0)
  40f9c0:	24040001 	li	$a0,1
  40f9c4:	0c1045a9 	jal	4116a4 <_amallopt>
  40f9c8:	00002825 	move	$a1,$zero
  40f9cc:	8e060018 	lw	$a2,24($s0)
  40f9d0:	afa20034 	sw	$v0,52($sp)
  40f9d4:	24040005 	li	$a0,5
  40f9d8:	0c1045a9 	jal	4116a4 <_amallopt>
  40f9dc:	24050200 	li	$a1,512
  40f9e0:	8fa30034 	lw	$v1,52($sp)
  40f9e4:	8fa70044 	lw	$a3,68($sp)
  40f9e8:	1000000b 	b	40fa18 <_usretsfd+0x408>
  40f9ec:	00621821 	addu	$v1,$v1,$v0
  40f9f0:	3c010003 	lui	$at,0x3
  40f9f4:	3421f588 	ori	$at,$at,0xf588
  40f9f8:	00a1082b 	sltu	$at,$a1,$at
  40f9fc:	10200006 	beqz	$at,40fa18 <_usretsfd+0x408>
  40fa00:	24040005 	li	$a0,5
  40fa04:	8e060018 	lw	$a2,24($s0)
  40fa08:	0c1045a9 	jal	4116a4 <_amallopt>
  40fa0c:	24050400 	li	$a1,1024
  40fa10:	8fa70044 	lw	$a3,68($sp)
  40fa14:	00401825 	move	$v1,$v0
  40fa18:	1060000b 	beqz	$v1,40fa48 <_usretsfd+0x438>
  40fa1c:	000720c0 	sll	$a0,$a3,0x3
  40fa20:	8f8a8a30 	lw	$t2,-30160($gp)
  40fa24:	00002025 	move	$a0,$zero
  40fa28:	11400003 	beqz	$t2,40fa38 <_usretsfd+0x428>
  40fa2c:	3c050042 	lui	$a1,0x42
  40fa30:	0c103f10 	jal	40fc40 <_uprint>
  40fa34:	24a5c5c0 	addiu	$a1,$a1,-14912
  40fa38:	0c101ebd 	jal	407af4 <_setoserror>
  40fa3c:	24040016 	li	$a0,22
  40fa40:	1000007b 	b	40fc30 <_usretsfd+0x620>
  40fa44:	00001025 	move	$v0,$zero
  40fa48:	0c102fa8 	jal	40bea0 <_usmalloc>
  40fa4c:	02002825 	move	$a1,$s0
  40fa50:	8fa70044 	lw	$a3,68($sp)
  40fa54:	14400005 	bnez	$v0,40fa6c <_usretsfd+0x45c>
  40fa58:	ae02000c 	sw	$v0,12($s0)
  40fa5c:	0c101ebd 	jal	407af4 <_setoserror>
  40fa60:	2404000c 	li	$a0,12
  40fa64:	10000072 	b	40fc30 <_usretsfd+0x620>
  40fa68:	00001025 	move	$v0,$zero
  40fa6c:	24ebffff 	addiu	$t3,$a3,-1
  40fa70:	01676024 	and	$t4,$t3,$a3
  40fa74:	11800008 	beqz	$t4,40fa98 <_usretsfd+0x488>
  40fa78:	00e03025 	move	$a2,$a3
  40fa7c:	24e2ffff 	addiu	$v0,$a3,-1
  40fa80:	00463025 	or	$a2,$v0,$a2
  40fa84:	24c60001 	addiu	$a2,$a2,1
  40fa88:	24c2ffff 	addiu	$v0,$a2,-1
  40fa8c:	00466824 	and	$t5,$v0,$a2
  40fa90:	15a0fffb 	bnez	$t5,40fa80 <_usretsfd+0x470>
  40fa94:	00000000 	nop
  40fa98:	000670c3 	sra	$t6,$a2,0x3
  40fa9c:	15c00002 	bnez	$t6,40faa8 <_usretsfd+0x498>
  40faa0:	01c03025 	move	$a2,$t6
  40faa4:	24060001 	li	$a2,1
  40faa8:	24cfffff 	addiu	$t7,$a2,-1
  40faac:	ae0f0014 	sw	$t7,20($s0)
  40fab0:	afa60038 	sw	$a2,56($sp)
  40fab4:	00062040 	sll	$a0,$a2,0x1
  40fab8:	0c102fa8 	jal	40bea0 <_usmalloc>
  40fabc:	02002825 	move	$a1,$s0
  40fac0:	8fa60038 	lw	$a2,56($sp)
  40fac4:	8fa70044 	lw	$a3,68($sp)
  40fac8:	14400005 	bnez	$v0,40fae0 <_usretsfd+0x4d0>
  40facc:	ae020010 	sw	$v0,16($s0)
  40fad0:	0c101ebd 	jal	407af4 <_setoserror>
  40fad4:	2404000c 	li	$a0,12
  40fad8:	10000055 	b	40fc30 <_usretsfd+0x620>
  40fadc:	00001025 	move	$v0,$zero
  40fae0:	18e00012 	blez	$a3,40fb2c <_usretsfd+0x51c>
  40fae4:	00001825 	move	$v1,$zero
  40fae8:	2404ffff 	li	$a0,-1
  40faec:	8e18000c 	lw	$t8,12($s0)
  40faf0:	000310c0 	sll	$v0,$v1,0x3
  40faf4:	0302c821 	addu	$t9,$t8,$v0
  40faf8:	af240000 	sw	$a0,0($t9)
  40fafc:	8e08000c 	lw	$t0,12($s0)
  40fb00:	24630001 	addiu	$v1,$v1,1
  40fb04:	01024821 	addu	$t1,$t0,$v0
  40fb08:	a5240004 	sh	$a0,4($t1)
  40fb0c:	8e0a000c 	lw	$t2,12($s0)
  40fb10:	00036400 	sll	$t4,$v1,0x10
  40fb14:	000c1c03 	sra	$v1,$t4,0x10
  40fb18:	0067082a 	slt	$at,$v1,$a3
  40fb1c:	01425821 	addu	$t3,$t2,$v0
  40fb20:	1420fff2 	bnez	$at,40faec <_usretsfd+0x4dc>
  40fb24:	a5640006 	sh	$a0,6($t3)
  40fb28:	00001825 	move	$v1,$zero
  40fb2c:	18c0000a 	blez	$a2,40fb58 <_usretsfd+0x548>
  40fb30:	2404ffff 	li	$a0,-1
  40fb34:	00037840 	sll	$t7,$v1,0x1
  40fb38:	24630001 	addiu	$v1,$v1,1
  40fb3c:	8e0e0010 	lw	$t6,16($s0)
  40fb40:	0003cc00 	sll	$t9,$v1,0x10
  40fb44:	00191c03 	sra	$v1,$t9,0x10
  40fb48:	0066082a 	slt	$at,$v1,$a2
  40fb4c:	01cfc021 	addu	$t8,$t6,$t7
  40fb50:	1420fff8 	bnez	$at,40fb34 <_usretsfd+0x524>
  40fb54:	a7040000 	sh	$a0,0($t8)
  40fb58:	3c090020 	lui	$t1,0x20
  40fb5c:	8d2a0e00 	lw	$t2,3584($t1)
  40fb60:	02002025 	move	$a0,$s0
  40fb64:	ae0a0a70 	sw	$t2,2672($s0)
  40fb68:	8f998b9c 	lw	$t9,-29796($gp)
  40fb6c:	00000000 	nop
  40fb70:	0320f809 	jalr	$t9
  40fb74:	00000000 	nop
  40fb78:	14400003 	bnez	$v0,40fb88 <_usretsfd+0x578>
  40fb7c:	ae020440 	sw	$v0,1088($s0)
  40fb80:	1000002b 	b	40fc30 <_usretsfd+0x620>
  40fb84:	00001025 	move	$v0,$zero
  40fb88:	ae00042c 	sw	$zero,1068($s0)
  40fb8c:	ae000430 	sw	$zero,1072($s0)
  40fb90:	ae000434 	sw	$zero,1076($s0)
  40fb94:	ae000438 	sw	$zero,1080($s0)
  40fb98:	ae00043c 	sw	$zero,1084($s0)
  40fb9c:	8f998b9c 	lw	$t9,-29796($gp)
  40fba0:	02002025 	move	$a0,$s0
  40fba4:	0320f809 	jalr	$t9
  40fba8:	00000000 	nop
  40fbac:	14400003 	bnez	$v0,40fbbc <_usretsfd+0x5ac>
  40fbb0:	ae020444 	sw	$v0,1092($s0)
  40fbb4:	1000001e 	b	40fc30 <_usretsfd+0x620>
  40fbb8:	00001025 	move	$v0,$zero
  40fbbc:	02002025 	move	$a0,$s0
  40fbc0:	0c102483 	jal	40920c <_usnewsema>
  40fbc4:	24050001 	li	$a1,1
  40fbc8:	14400003 	bnez	$v0,40fbd8 <_usretsfd+0x5c8>
  40fbcc:	ae020a64 	sw	$v0,2660($s0)
  40fbd0:	10000017 	b	40fc30 <_usretsfd+0x620>
  40fbd4:	00001025 	move	$v0,$zero
  40fbd8:	8f998b9c 	lw	$t9,-29796($gp)
  40fbdc:	02002025 	move	$a0,$s0
  40fbe0:	0320f809 	jalr	$t9
  40fbe4:	00000000 	nop
  40fbe8:	14400003 	bnez	$v0,40fbf8 <_usretsfd+0x5e8>
  40fbec:	ae020448 	sw	$v0,1096($s0)
  40fbf0:	1000000f 	b	40fc30 <_usretsfd+0x620>
  40fbf4:	00001025 	move	$v0,$zero
  40fbf8:	24040008 	li	$a0,8
  40fbfc:	00002825 	move	$a1,$zero
  40fc00:	0c102fd5 	jal	40bf54 <_usmallopt>
  40fc04:	02003025 	move	$a2,$s0
  40fc08:	10400008 	beqz	$v0,40fc2c <_usretsfd+0x61c>
  40fc0c:	24040001 	li	$a0,1
  40fc10:	3c050042 	lui	$a1,0x42
  40fc14:	0c103f10 	jal	40fc40 <_uprint>
  40fc18:	24a5c5f8 	addiu	$a1,$a1,-14856
  40fc1c:	0c101ebd 	jal	407af4 <_setoserror>
  40fc20:	24040016 	li	$a0,22
  40fc24:	10000002 	b	40fc30 <_usretsfd+0x620>
  40fc28:	00001025 	move	$v0,$zero
  40fc2c:	24020001 	li	$v0,1
  40fc30:	8fbf0024 	lw	$ra,36($sp)
  40fc34:	8fb00020 	lw	$s0,32($sp)
  40fc38:	03e00008 	jr	$ra
  40fc3c:	27bd0040 	addiu	$sp,$sp,64

0040fc40 <_uprint>:
  40fc40:	27bdfdd0 	addiu	$sp,$sp,-560
  40fc44:	afbf001c 	sw	$ra,28($sp)
  40fc48:	afb00018 	sw	$s0,24($sp)
  40fc4c:	afa40230 	sw	$a0,560($sp)
  40fc50:	afa50234 	sw	$a1,564($sp)
  40fc54:	afa60238 	sw	$a2,568($sp)
  40fc58:	0c101eb8 	jal	407ae0 <_oserror>
  40fc5c:	afa7023c 	sw	$a3,572($sp)
  40fc60:	27b0002c 	addiu	$s0,$sp,44
  40fc64:	8fa50234 	lw	$a1,564($sp)
  40fc68:	afa20028 	sw	$v0,40($sp)
  40fc6c:	02002025 	move	$a0,$s0
  40fc70:	0c105970 	jal	4165c0 <_vsprintf>
  40fc74:	27a60238 	addiu	$a2,$sp,568
  40fc78:	8fae0230 	lw	$t6,560($sp)
  40fc7c:	02002025 	move	$a0,$s0
  40fc80:	19c00009 	blez	$t6,40fca8 <_uprint+0x68>
  40fc84:	00000000 	nop
  40fc88:	0c1031dc 	jal	40c770 <strcat>
  40fc8c:	27858a60 	addiu	$a1,$gp,-30112
  40fc90:	8fa40028 	lw	$a0,40($sp)
  40fc94:	0c103240 	jal	40c900 <strerror>
  40fc98:	00000000 	nop
  40fc9c:	02002025 	move	$a0,$s0
  40fca0:	0c1031dc 	jal	40c770 <strcat>
  40fca4:	00402825 	move	$a1,$v0
  40fca8:	02002025 	move	$a0,$s0
  40fcac:	0c1031dc 	jal	40c770 <strcat>
  40fcb0:	27858a64 	addiu	$a1,$gp,-30108
  40fcb4:	8f8f8a68 	lw	$t7,-30104($gp)
  40fcb8:	24050003 	li	$a1,3
  40fcbc:	11e00009 	beqz	$t7,40fce4 <_uprint+0xa4>
  40fcc0:	00000000 	nop
  40fcc4:	8f848a34 	lw	$a0,-30156($gp)
  40fcc8:	0c103290 	jal	40ca40 <_fcntl>
  40fccc:	af808a68 	sw	$zero,-30104($gp)
  40fcd0:	04400004 	bltz	$v0,40fce4 <_uprint+0xa4>
  40fcd4:	24050004 	li	$a1,4
  40fcd8:	8f848a34 	lw	$a0,-30156($gp)
  40fcdc:	0c103290 	jal	40ca40 <_fcntl>
  40fce0:	34460008 	ori	$a2,$v0,0x8
  40fce4:	0c103238 	jal	40c8e0 <strlen>
  40fce8:	02002025 	move	$a0,$s0
  40fcec:	8f848a34 	lw	$a0,-30156($gp)
  40fcf0:	02002825 	move	$a1,$s0
  40fcf4:	0c101990 	jal	406640 <_write>
  40fcf8:	00403025 	move	$a2,$v0
  40fcfc:	8fa40028 	lw	$a0,40($sp)
  40fd00:	0c101ebd 	jal	407af4 <_setoserror>
  40fd04:	00000000 	nop
  40fd08:	8fbf001c 	lw	$ra,28($sp)
  40fd0c:	8fb00018 	lw	$s0,24($sp)
  40fd10:	27bd0230 	addiu	$sp,$sp,560
  40fd14:	03e00008 	jr	$ra
  40fd18:	00001025 	move	$v0,$zero

0040fd1c <__usdetach>:
  40fd1c:	27bdffc0 	addiu	$sp,$sp,-64
  40fd20:	afbf001c 	sw	$ra,28($sp)
  40fd24:	afb00018 	sw	$s0,24($sp)
  40fd28:	8f828a38 	lw	$v0,-30152($gp)
  40fd2c:	8c8e041c 	lw	$t6,1052($a0)
  40fd30:	00808025 	move	$s0,$a0
  40fd34:	00402825 	move	$a1,$v0
  40fd38:	10400020 	beqz	$v0,40fdbc <__usdetach+0xa0>
  40fd3c:	afae002c 	sw	$t6,44($sp)
  40fd40:	8fa30038 	lw	$v1,56($sp)
  40fd44:	00000000 	nop
  40fd48:	8caf0004 	lw	$t7,4($a1)
  40fd4c:	00000000 	nop
  40fd50:	160f0014 	bne	$s0,$t7,40fda4 <__usdetach+0x88>
  40fd54:	00000000 	nop
  40fd58:	14a20004 	bne	$a1,$v0,40fd6c <__usdetach+0x50>
  40fd5c:	00000000 	nop
  40fd60:	8ca20008 	lw	$v0,8($a1)
  40fd64:	10000004 	b	40fd78 <__usdetach+0x5c>
  40fd68:	af828a38 	sw	$v0,-30152($gp)
  40fd6c:	8cb80008 	lw	$t8,8($a1)
  40fd70:	00000000 	nop
  40fd74:	ac780008 	sw	$t8,8($v1)
  40fd78:	8cb90000 	lw	$t9,0($a1)
  40fd7c:	00000000 	nop
  40fd80:	afb90030 	sw	$t9,48($sp)
  40fd84:	8ca4000c 	lw	$a0,12($a1)
  40fd88:	0c101e5f 	jal	40797c <_free>
  40fd8c:	afa50034 	sw	$a1,52($sp)
  40fd90:	8fa40034 	lw	$a0,52($sp)
  40fd94:	0c101e5f 	jal	40797c <_free>
  40fd98:	00000000 	nop
  40fd9c:	10000007 	b	40fdbc <__usdetach+0xa0>
  40fda0:	00000000 	nop
  40fda4:	00a01825 	move	$v1,$a1
  40fda8:	8ca50008 	lw	$a1,8($a1)
  40fdac:	00000000 	nop
  40fdb0:	14a0ffe5 	bnez	$a1,40fd48 <__usdetach+0x2c>
  40fdb4:	00000000 	nop
  40fdb8:	afa30038 	sw	$v1,56($sp)
  40fdbc:	0c1037ad 	jal	40deb4 <_usgettid>
  40fdc0:	02002025 	move	$a0,$s0
  40fdc4:	00022c00 	sll	$a1,$v0,0x10
  40fdc8:	2401ffff 	li	$at,-1
  40fdcc:	1041000c 	beq	$v0,$at,40fe00 <__usdetach+0xe4>
  40fdd0:	00054403 	sra	$t0,$a1,0x10
  40fdd4:	8e09000c 	lw	$t1,12($s0)
  40fdd8:	000818c0 	sll	$v1,$t0,0x3
  40fddc:	01235021 	addu	$t2,$t1,$v1
  40fde0:	85440006 	lh	$a0,6($t2)
  40fde4:	0c101978 	jal	4065e0 <_close>
  40fde8:	afa30024 	sw	$v1,36($sp)
  40fdec:	8fa30024 	lw	$v1,36($sp)
  40fdf0:	8e0c000c 	lw	$t4,12($s0)
  40fdf4:	240bffff 	li	$t3,-1
  40fdf8:	01836821 	addu	$t5,$t4,$v1
  40fdfc:	a5ab0006 	sh	$t3,6($t5)
  40fe00:	8e050854 	lw	$a1,2132($s0)
  40fe04:	2401ffff 	li	$at,-1
  40fe08:	10a10003 	beq	$a1,$at,40fe18 <__usdetach+0xfc>
  40fe0c:	26040454 	addiu	$a0,$s0,1108
  40fe10:	0c102c63 	jal	40b18c <_ushardlock_detach>
  40fe14:	2406ffff 	li	$a2,-1
  40fe18:	8fa5002c 	lw	$a1,44($sp)
  40fe1c:	0c1032b4 	jal	40cad0 <_munmap>
  40fe20:	02002025 	move	$a0,$s0
  40fe24:	2401ffff 	li	$at,-1
  40fe28:	14410008 	bne	$v0,$at,40fe4c <__usdetach+0x130>
  40fe2c:	8fa40030 	lw	$a0,48($sp)
  40fe30:	8f8e8a30 	lw	$t6,-30160($gp)
  40fe34:	24040001 	li	$a0,1
  40fe38:	11c00003 	beqz	$t6,40fe48 <__usdetach+0x12c>
  40fe3c:	3c050042 	lui	$a1,0x42
  40fe40:	0c103f10 	jal	40fc40 <_uprint>
  40fe44:	24a5c628 	addiu	$a1,$a1,-14808
  40fe48:	8fa40030 	lw	$a0,48($sp)
  40fe4c:	0c101978 	jal	4065e0 <_close>
  40fe50:	00000000 	nop
  40fe54:	8fbf001c 	lw	$ra,28($sp)
  40fe58:	8fb00018 	lw	$s0,24($sp)
  40fe5c:	03e00008 	jr	$ra
  40fe60:	27bd0040 	addiu	$sp,$sp,64

0040fe64 <__usblockallsigs>:
  40fe64:	27bdffd8 	addiu	$sp,$sp,-40
  40fe68:	afbf0014 	sw	$ra,20($sp)
  40fe6c:	afa40028 	sw	$a0,40($sp)
  40fe70:	0c1059d6 	jal	416758 <_sigfillset>
  40fe74:	27a40018 	addiu	$a0,$sp,24
  40fe78:	27a40018 	addiu	$a0,$sp,24
  40fe7c:	0c105a1e 	jal	416878 <_sigdelset>
  40fe80:	24050003 	li	$a1,3
  40fe84:	27a40018 	addiu	$a0,$sp,24
  40fe88:	0c105a1e 	jal	416878 <_sigdelset>
  40fe8c:	2405000b 	li	$a1,11
  40fe90:	27a40018 	addiu	$a0,$sp,24
  40fe94:	0c105a1e 	jal	416878 <_sigdelset>
  40fe98:	2405000a 	li	$a1,10
  40fe9c:	8fa60028 	lw	$a2,40($sp)
  40fea0:	24040003 	li	$a0,3
  40fea4:	0c105994 	jal	416650 <_sigprocmask>
  40fea8:	27a50018 	addiu	$a1,$sp,24
  40feac:	8fbf0014 	lw	$ra,20($sp)
  40feb0:	27bd0028 	addiu	$sp,$sp,40
  40feb4:	03e00008 	jr	$ra
  40feb8:	00000000 	nop

0040febc <__usunblockallsigs>:
  40febc:	27bdffe8 	addiu	$sp,$sp,-24
  40fec0:	afbf0014 	sw	$ra,20($sp)
  40fec4:	00802825 	move	$a1,$a0
  40fec8:	24040003 	li	$a0,3
  40fecc:	0c105994 	jal	416650 <_sigprocmask>
  40fed0:	00003025 	move	$a2,$zero
  40fed4:	8fbf0014 	lw	$ra,20($sp)
  40fed8:	27bd0018 	addiu	$sp,$sp,24
  40fedc:	03e00008 	jr	$ra
  40fee0:	00000000 	nop
  40fee4:	27bddfd0 	addiu	$sp,$sp,-8240
  40fee8:	afb20020 	sw	$s2,32($sp)
  40feec:	afb1001c 	sw	$s1,28($sp)
  40fef0:	afb00018 	sw	$s0,24($sp)
  40fef4:	00a08025 	move	$s0,$a1
  40fef8:	00808825 	move	$s1,$a0
  40fefc:	27b20030 	addiu	$s2,$sp,48
  40ff00:	afbf0024 	sw	$ra,36($sp)
  40ff04:	02402025 	move	$a0,$s2
  40ff08:	0c105d10 	jal	417440 <_blkclr>
  40ff0c:	24052000 	li	$a1,8192
  40ff10:	02202025 	move	$a0,$s1
  40ff14:	00002825 	move	$a1,$zero
  40ff18:	0c101984 	jal	406610 <_lseek>
  40ff1c:	00003025 	move	$a2,$zero
  40ff20:	1a00000e 	blez	$s0,40ff5c <__usunblockallsigs+0xa0>
  40ff24:	2a012001 	slti	$at,$s0,8193
  40ff28:	14200003 	bnez	$at,40ff38 <__usunblockallsigs+0x7c>
  40ff2c:	02202025 	move	$a0,$s1
  40ff30:	10000002 	b	40ff3c <__usunblockallsigs+0x80>
  40ff34:	24062000 	li	$a2,8192
  40ff38:	02003025 	move	$a2,$s0
  40ff3c:	0c101990 	jal	406640 <_write>
  40ff40:	02402825 	move	$a1,$s2
  40ff44:	04410003 	bgez	$v0,40ff54 <__usunblockallsigs+0x98>
  40ff48:	02028023 	subu	$s0,$s0,$v0
  40ff4c:	10000004 	b	40ff60 <__usunblockallsigs+0xa4>
  40ff50:	2402ffff 	li	$v0,-1
  40ff54:	1e00fff4 	bgtz	$s0,40ff28 <__usunblockallsigs+0x6c>
  40ff58:	2a012001 	slti	$at,$s0,8193
  40ff5c:	00001025 	move	$v0,$zero
  40ff60:	8fbf0024 	lw	$ra,36($sp)
  40ff64:	8fb00018 	lw	$s0,24($sp)
  40ff68:	8fb1001c 	lw	$s1,28($sp)
  40ff6c:	8fb20020 	lw	$s2,32($sp)
  40ff70:	03e00008 	jr	$ra
  40ff74:	27bd2030 	addiu	$sp,$sp,8240
	...

0040ff80 <_usconfig>:
  40ff80:	27bdffd0 	addiu	$sp,$sp,-48
  40ff84:	248fffff 	addiu	$t7,$a0,-1
  40ff88:	afa60038 	sw	$a2,56($sp)
  40ff8c:	2de10015 	sltiu	$at,$t7,21
  40ff90:	afbf0024 	sw	$ra,36($sp)
  40ff94:	afb20020 	sw	$s2,32($sp)
  40ff98:	afb1001c 	sw	$s1,28($sp)
  40ff9c:	afb00018 	sw	$s0,24($sp)
  40ffa0:	afa40030 	sw	$a0,48($sp)
  40ffa4:	afa50034 	sw	$a1,52($sp)
  40ffa8:	afa7003c 	sw	$a3,60($sp)
  40ffac:	10200115 	beqz	$at,410404 <_usconfig+0x484>
  40ffb0:	00003025 	move	$a2,$zero
  40ffb4:	000f7880 	sll	$t7,$t7,0x2
  40ffb8:	3c010042 	lui	$at,0x42
  40ffbc:	002f0821 	addu	$at,$at,$t7
  40ffc0:	8c2fc650 	lw	$t7,-14768($at)
  40ffc4:	00000000 	nop
  40ffc8:	01e00008 	jr	$t7
  40ffcc:	00000000 	nop
  40ffd0:	2407fffc 	li	$a3,-4
  40ffd4:	27b80037 	addiu	$t8,$sp,55
  40ffd8:	03071024 	and	$v0,$t8,$a3
  40ffdc:	8c430000 	lw	$v1,0($v0)
  40ffe0:	8f868a78 	lw	$a2,-30088($gp)
  40ffe4:	2c610003 	sltiu	$at,$v1,3
  40ffe8:	14200005 	bnez	$at,410000 <_usconfig+0x80>
  40ffec:	24420004 	addiu	$v0,$v0,4
  40fff0:	0c101ebd 	jal	407af4 <_setoserror>
  40fff4:	24040016 	li	$a0,22
  40fff8:	10000106 	b	410414 <_usconfig+0x494>
  40fffc:	2402ffff 	li	$v0,-1
  410000:	10000103 	b	410410 <_usconfig+0x490>
  410004:	af838a78 	sw	$v1,-30088($gp)
  410008:	2407fffc 	li	$a3,-4
  41000c:	27b90037 	addiu	$t9,$sp,55
  410010:	03271024 	and	$v0,$t9,$a3
  410014:	8c430000 	lw	$v1,0($v0)
  410018:	24420004 	addiu	$v0,$v0,4
  41001c:	10600003 	beqz	$v1,41002c <_usconfig+0xac>
  410020:	2c612711 	sltiu	$at,$v1,10001
  410024:	14200005 	bnez	$at,41003c <_usconfig+0xbc>
  410028:	00000000 	nop
  41002c:	0c101ebd 	jal	407af4 <_setoserror>
  410030:	24040016 	li	$a0,22
  410034:	100000f7 	b	410414 <_usconfig+0x494>
  410038:	2402ffff 	li	$v0,-1
  41003c:	8f868a74 	lw	$a2,-30092($gp)
  410040:	100000f3 	b	410410 <_usconfig+0x490>
  410044:	af838a74 	sw	$v1,-30092($gp)
  410048:	2407fffc 	li	$a3,-4
  41004c:	27a80037 	addiu	$t0,$sp,55
  410050:	01071024 	and	$v0,$t0,$a3
  410054:	8c430000 	lw	$v1,0($v0)
  410058:	8f868a70 	lw	$a2,-30096($gp)
  41005c:	2c611000 	sltiu	$at,$v1,4096
  410060:	10200005 	beqz	$at,410078 <_usconfig+0xf8>
  410064:	24420004 	addiu	$v0,$v0,4
  410068:	0c101ebd 	jal	407af4 <_setoserror>
  41006c:	24040016 	li	$a0,22
  410070:	100000e8 	b	410414 <_usconfig+0x494>
  410074:	2402ffff 	li	$v0,-1
  410078:	24690a78 	addiu	$t1,$v1,2680
  41007c:	24c6f588 	addiu	$a2,$a2,-2680
  410080:	100000e3 	b	410410 <_usconfig+0x490>
  410084:	af898a70 	sw	$t1,-30096($gp)
  410088:	2407fffc 	li	$a3,-4
  41008c:	27aa0037 	addiu	$t2,$sp,55
  410090:	01471024 	and	$v0,$t2,$a3
  410094:	8c520000 	lw	$s2,0($v0)
  410098:	24420004 	addiu	$v0,$v0,4
  41009c:	8e460424 	lw	$a2,1060($s2)
  4100a0:	100000dc 	b	410414 <_usconfig+0x494>
  4100a4:	00c01025 	move	$v0,$a2
  4100a8:	2407fffc 	li	$a3,-4
  4100ac:	27ab0037 	addiu	$t3,$sp,55
  4100b0:	01671024 	and	$v0,$t3,$a3
  4100b4:	8c520000 	lw	$s2,0($v0)
  4100b8:	24420004 	addiu	$v0,$v0,4
  4100bc:	8e46041c 	lw	$a2,1052($s2)
  4100c0:	100000d3 	b	410410 <_usconfig+0x490>
  4100c4:	24c6f588 	addiu	$a2,$a2,-2680
  4100c8:	2407fffc 	li	$a3,-4
  4100cc:	27ac0037 	addiu	$t4,$sp,55
  4100d0:	01871024 	and	$v0,$t4,$a3
  4100d4:	8c520000 	lw	$s2,0($v0)
  4100d8:	24420004 	addiu	$v0,$v0,4
  4100dc:	8e4d0428 	lw	$t5,1064($s2)
  4100e0:	00000000 	nop
  4100e4:	35ae0004 	ori	$t6,$t5,0x4
  4100e8:	100000c9 	b	410410 <_usconfig+0x490>
  4100ec:	ae4e0428 	sw	$t6,1064($s2)
  4100f0:	2407fffc 	li	$a3,-4
  4100f4:	27af0037 	addiu	$t7,$sp,55
  4100f8:	01e71024 	and	$v0,$t7,$a3
  4100fc:	8c520000 	lw	$s2,0($v0)
  410100:	2401fffb 	li	$at,-5
  410104:	8e580428 	lw	$t8,1064($s2)
  410108:	24420004 	addiu	$v0,$v0,4
  41010c:	0301c824 	and	$t9,$t8,$at
  410110:	100000bf 	b	410410 <_usconfig+0x490>
  410114:	ae590428 	sw	$t9,1064($s2)
  410118:	2407fffc 	li	$a3,-4
  41011c:	27a80037 	addiu	$t0,$sp,55
  410120:	01071024 	and	$v0,$t0,$a3
  410124:	8c520000 	lw	$s2,0($v0)
  410128:	24490007 	addiu	$t1,$v0,7
  41012c:	01271024 	and	$v0,$t1,$a3
  410130:	8c430000 	lw	$v1,0($v0)
  410134:	8e46043c 	lw	$a2,1084($s2)
  410138:	24420004 	addiu	$v0,$v0,4
  41013c:	100000b4 	b	410410 <_usconfig+0x490>
  410140:	ae43043c 	sw	$v1,1084($s2)
  410144:	2407fffc 	li	$a3,-4
  410148:	27aa0037 	addiu	$t2,$sp,55
  41014c:	01471024 	and	$v0,$t2,$a3
  410150:	8c520000 	lw	$s2,0($v0)
  410154:	24420004 	addiu	$v0,$v0,4
  410158:	8e4b0428 	lw	$t3,1064($s2)
  41015c:	244d0003 	addiu	$t5,$v0,3
  410160:	316c0004 	andi	$t4,$t3,0x4
  410164:	1180000b 	beqz	$t4,410194 <_usconfig+0x214>
  410168:	01a71024 	and	$v0,$t5,$a3
  41016c:	8c430000 	lw	$v1,0($v0)
  410170:	8e4e0430 	lw	$t6,1072($s2)
  410174:	24420004 	addiu	$v0,$v0,4
  410178:	ac6e0000 	sw	$t6,0($v1)
  41017c:	8e4f0434 	lw	$t7,1076($s2)
  410180:	00000000 	nop
  410184:	ac6f0004 	sw	$t7,4($v1)
  410188:	8e580438 	lw	$t8,1080($s2)
  41018c:	100000a0 	b	410410 <_usconfig+0x490>
  410190:	ac780008 	sw	$t8,8($v1)
  410194:	0c101ebd 	jal	407af4 <_setoserror>
  410198:	24040016 	li	$a0,22
  41019c:	1000009c 	b	410410 <_usconfig+0x490>
  4101a0:	2406ffff 	li	$a2,-1
  4101a4:	2407fffc 	li	$a3,-4
  4101a8:	27b90037 	addiu	$t9,$sp,55
  4101ac:	03271024 	and	$v0,$t9,$a3
  4101b0:	8c520000 	lw	$s2,0($v0)
  4101b4:	24420004 	addiu	$v0,$v0,4
  4101b8:	8e50042c 	lw	$s0,1068($s2)
  4101bc:	00000000 	nop
  4101c0:	12000009 	beqz	$s0,4101e8 <_usconfig+0x268>
  4101c4:	00000000 	nop
  4101c8:	8e110018 	lw	$s1,24($s0)
  4101cc:	afa60028 	sw	$a2,40($sp)
  4101d0:	02002025 	move	$a0,$s0
  4101d4:	0c102fb1 	jal	40bec4 <_usfree>
  4101d8:	02402825 	move	$a1,$s2
  4101dc:	8fa60028 	lw	$a2,40($sp)
  4101e0:	1620fff9 	bnez	$s1,4101c8 <_usconfig+0x248>
  4101e4:	02208025 	move	$s0,$s1
  4101e8:	ae40042c 	sw	$zero,1068($s2)
  4101ec:	ae400430 	sw	$zero,1072($s2)
  4101f0:	ae400434 	sw	$zero,1076($s2)
  4101f4:	10000086 	b	410410 <_usconfig+0x490>
  4101f8:	ae400438 	sw	$zero,1080($s2)
  4101fc:	8f898b90 	lw	$t1,-29808($gp)
  410200:	8f8680d0 	lw	$a2,-32560($gp)
  410204:	24080001 	li	$t0,1
  410208:	11200081 	beqz	$t1,410410 <_usconfig+0x490>
  41020c:	af8880d0 	sw	$t0,-32560($gp)
  410210:	240a0001 	li	$t2,1
  410214:	1000007e 	b	410410 <_usconfig+0x490>
  410218:	af8a80d4 	sw	$t2,-32556($gp)
  41021c:	8f8b8b90 	lw	$t3,-29808($gp)
  410220:	8f8680d0 	lw	$a2,-32560($gp)
  410224:	1160007a 	beqz	$t3,410410 <_usconfig+0x490>
  410228:	af8080d0 	sw	$zero,-32560($gp)
  41022c:	10000078 	b	410410 <_usconfig+0x490>
  410230:	af8080d4 	sw	$zero,-32556($gp)
  410234:	8f8d8b90 	lw	$t5,-29808($gp)
  410238:	8f8680d8 	lw	$a2,-32552($gp)
  41023c:	240c0001 	li	$t4,1
  410240:	11a00073 	beqz	$t5,410410 <_usconfig+0x490>
  410244:	af8c80d8 	sw	$t4,-32552($gp)
  410248:	240e0001 	li	$t6,1
  41024c:	10000070 	b	410410 <_usconfig+0x490>
  410250:	af8e80dc 	sw	$t6,-32548($gp)
  410254:	8f8f8b90 	lw	$t7,-29808($gp)
  410258:	8f8680d8 	lw	$a2,-32552($gp)
  41025c:	11e0006c 	beqz	$t7,410410 <_usconfig+0x490>
  410260:	af8080d8 	sw	$zero,-32552($gp)
  410264:	1000006a 	b	410410 <_usconfig+0x490>
  410268:	af8080dc 	sw	$zero,-32548($gp)
  41026c:	8f998b90 	lw	$t9,-29808($gp)
  410270:	8f8680e0 	lw	$a2,-32544($gp)
  410274:	24180001 	li	$t8,1
  410278:	13200065 	beqz	$t9,410410 <_usconfig+0x490>
  41027c:	af9880e0 	sw	$t8,-32544($gp)
  410280:	24080001 	li	$t0,1
  410284:	10000062 	b	410410 <_usconfig+0x490>
  410288:	af8880e4 	sw	$t0,-32540($gp)
  41028c:	8f898b90 	lw	$t1,-29808($gp)
  410290:	8f8680e0 	lw	$a2,-32544($gp)
  410294:	1120005e 	beqz	$t1,410410 <_usconfig+0x490>
  410298:	af8080e0 	sw	$zero,-32544($gp)
  41029c:	1000005c 	b	410410 <_usconfig+0x490>
  4102a0:	af8080e4 	sw	$zero,-32540($gp)
  4102a4:	2407fffc 	li	$a3,-4
  4102a8:	27aa0037 	addiu	$t2,$sp,55
  4102ac:	01471024 	and	$v0,$t2,$a3
  4102b0:	8c430000 	lw	$v1,0($v0)
  4102b4:	24010001 	li	$at,1
  4102b8:	10610007 	beq	$v1,$at,4102d8 <_usconfig+0x358>
  4102bc:	24420004 	addiu	$v0,$v0,4
  4102c0:	10600005 	beqz	$v1,4102d8 <_usconfig+0x358>
  4102c4:	00000000 	nop
  4102c8:	0c101ebd 	jal	407af4 <_setoserror>
  4102cc:	24040016 	li	$a0,22
  4102d0:	10000050 	b	410414 <_usconfig+0x494>
  4102d4:	2402ffff 	li	$v0,-1
  4102d8:	8f868a7c 	lw	$a2,-30084($gp)
  4102dc:	1000004c 	b	410410 <_usconfig+0x490>
  4102e0:	af838a7c 	sw	$v1,-30084($gp)
  4102e4:	2407fffc 	li	$a3,-4
  4102e8:	27ab0037 	addiu	$t3,$sp,55
  4102ec:	01671024 	and	$v0,$t3,$a3
  4102f0:	8c520000 	lw	$s2,0($v0)
  4102f4:	244c0007 	addiu	$t4,$v0,7
  4102f8:	01871024 	and	$v0,$t4,$a3
  4102fc:	8c500000 	lw	$s0,0($v0)
  410300:	24420004 	addiu	$v0,$v0,4
  410304:	afa60028 	sw	$a2,40($sp)
  410308:	2644001c 	addiu	$a0,$s2,28
  41030c:	0c105e18 	jal	417860 <_chmod>
  410310:	02002825 	move	$a1,$s0
  410314:	8fa60028 	lw	$a2,40($sp)
  410318:	10400003 	beqz	$v0,410328 <_usconfig+0x3a8>
  41031c:	00000000 	nop
  410320:	1000003c 	b	410414 <_usconfig+0x494>
  410324:	2402ffff 	li	$v0,-1
  410328:	8e4d0854 	lw	$t5,2132($s2)
  41032c:	2401ffff 	li	$at,-1
  410330:	11a10009 	beq	$t5,$at,410358 <_usconfig+0x3d8>
  410334:	26440454 	addiu	$a0,$s2,1108
  410338:	02002825 	move	$a1,$s0
  41033c:	0c105e18 	jal	417860 <_chmod>
  410340:	afa60028 	sw	$a2,40($sp)
  410344:	8fa60028 	lw	$a2,40($sp)
  410348:	10400004 	beqz	$v0,41035c <_usconfig+0x3dc>
  41034c:	02402025 	move	$a0,$s2
  410350:	10000030 	b	410414 <_usconfig+0x494>
  410354:	2402ffff 	li	$v0,-1
  410358:	02402025 	move	$a0,$s2
  41035c:	0c103d84 	jal	40f610 <_usretsfd>
  410360:	afa60028 	sw	$a2,40($sp)
  410364:	8fa60028 	lw	$a2,40($sp)
  410368:	2401ffff 	li	$at,-1
  41036c:	14410005 	bne	$v0,$at,410384 <_usconfig+0x404>
  410370:	00402025 	move	$a0,$v0
  410374:	0c101ebd 	jal	407af4 <_setoserror>
  410378:	24040016 	li	$a0,22
  41037c:	10000025 	b	410414 <_usconfig+0x494>
  410380:	2402ffff 	li	$v0,-1
  410384:	02002825 	move	$a1,$s0
  410388:	0c103284 	jal	40ca10 <_fchmod>
  41038c:	afa60028 	sw	$a2,40($sp)
  410390:	8fa60028 	lw	$a2,40($sp)
  410394:	1040001f 	beqz	$v0,410414 <_usconfig+0x494>
  410398:	00c01025 	move	$v0,$a2
  41039c:	1000001d 	b	410414 <_usconfig+0x494>
  4103a0:	2402ffff 	li	$v0,-1
  4103a4:	2407fffc 	li	$a3,-4
  4103a8:	27ae0037 	addiu	$t6,$sp,55
  4103ac:	01c71024 	and	$v0,$t6,$a3
  4103b0:	8c4f0000 	lw	$t7,0($v0)
  4103b4:	8f868a80 	lw	$a2,-30080($gp)
  4103b8:	24420004 	addiu	$v0,$v0,4
  4103bc:	10000014 	b	410410 <_usconfig+0x490>
  4103c0:	af8f8a80 	sw	$t7,-30080($gp)
  4103c4:	2407fffc 	li	$a3,-4
  4103c8:	27b80037 	addiu	$t8,$sp,55
  4103cc:	03071024 	and	$v0,$t8,$a3
  4103d0:	8c590000 	lw	$t9,0($v0)
  4103d4:	8f868a84 	lw	$a2,-30076($gp)
  4103d8:	24420004 	addiu	$v0,$v0,4
  4103dc:	1000000c 	b	410410 <_usconfig+0x490>
  4103e0:	af998a84 	sw	$t9,-30076($gp)
  4103e4:	2407fffc 	li	$a3,-4
  4103e8:	27a80037 	addiu	$t0,$sp,55
  4103ec:	01071024 	and	$v0,$t0,$a3
  4103f0:	8c490000 	lw	$t1,0($v0)
  4103f4:	8f868a88 	lw	$a2,-30072($gp)
  4103f8:	24420004 	addiu	$v0,$v0,4
  4103fc:	10000004 	b	410410 <_usconfig+0x490>
  410400:	af898a88 	sw	$t1,-30072($gp)
  410404:	0c101ebd 	jal	407af4 <_setoserror>
  410408:	24040016 	li	$a0,22
  41040c:	2406ffff 	li	$a2,-1
  410410:	00c01025 	move	$v0,$a2
  410414:	8fbf0024 	lw	$ra,36($sp)
  410418:	8fb00018 	lw	$s0,24($sp)
  41041c:	8fb1001c 	lw	$s1,28($sp)
  410420:	8fb20020 	lw	$s2,32($sp)
  410424:	03e00008 	jr	$ra
  410428:	27bd0030 	addiu	$sp,$sp,48

0041042c <_usputinfo>:
  41042c:	03e00008 	jr	$ra
  410430:	ac850a60 	sw	$a1,2656($a0)

00410434 <_usgetinfo>:
  410434:	8c820a60 	lw	$v0,2656($a0)
  410438:	03e00008 	jr	$ra
  41043c:	00000000 	nop

00410440 <_uscasinfo>:
  410440:	8f998bbc 	lw	$t9,-29764($gp)
  410444:	27bdffe8 	addiu	$sp,$sp,-24
  410448:	afbf0014 	sw	$ra,20($sp)
  41044c:	00803825 	move	$a3,$a0
  410450:	0320f809 	jalr	$t9
  410454:	24840a60 	addiu	$a0,$a0,2656
  410458:	8fbf0014 	lw	$ra,20($sp)
  41045c:	27bd0018 	addiu	$sp,$sp,24
  410460:	03e00008 	jr	$ra
	...

00410470 <_amalloc>:
  410470:	27bdffe0 	addiu	$sp,$sp,-32
  410474:	afbf0014 	sw	$ra,20($sp)
  410478:	8ca6009c 	lw	$a2,156($a1)
  41047c:	00803825 	move	$a3,$a0
  410480:	10c0000a 	beqz	$a2,4104ac <_amalloc+0x3c>
  410484:	00001825 	move	$v1,$zero
  410488:	8f998b94 	lw	$t9,-29804($gp)
  41048c:	00c02025 	move	$a0,$a2
  410490:	afa50024 	sw	$a1,36($sp)
  410494:	0320f809 	jalr	$t9
  410498:	afa70020 	sw	$a3,32($sp)
  41049c:	8fa50024 	lw	$a1,36($sp)
  4104a0:	8fa70020 	lw	$a3,32($sp)
  4104a4:	10000001 	b	4104ac <_amalloc+0x3c>
  4104a8:	00401825 	move	$v1,$v0
  4104ac:	10600011 	beqz	$v1,4104f4 <_amalloc+0x84>
  4104b0:	00e02025 	move	$a0,$a3
  4104b4:	0c104225 	jal	410894 <_arecalloc+0x9c>
  4104b8:	afa50024 	sw	$a1,36($sp)
  4104bc:	8fa50024 	lw	$a1,36($sp)
  4104c0:	00401825 	move	$v1,$v0
  4104c4:	8ca6009c 	lw	$a2,156($a1)
  4104c8:	00000000 	nop
  4104cc:	10c00007 	beqz	$a2,4104ec <_amalloc+0x7c>
  4104d0:	00000000 	nop
  4104d4:	8f998b98 	lw	$t9,-29800($gp)
  4104d8:	00c02025 	move	$a0,$a2
  4104dc:	0320f809 	jalr	$t9
  4104e0:	afa20018 	sw	$v0,24($sp)
  4104e4:	8fa30018 	lw	$v1,24($sp)
  4104e8:	00000000 	nop
  4104ec:	10000003 	b	4104fc <_amalloc+0x8c>
  4104f0:	00601025 	move	$v0,$v1
  4104f4:	0c104225 	jal	410894 <_arecalloc+0x9c>
  4104f8:	00e02025 	move	$a0,$a3
  4104fc:	8fbf0014 	lw	$ra,20($sp)
  410500:	27bd0020 	addiu	$sp,$sp,32
  410504:	03e00008 	jr	$ra
  410508:	00000000 	nop

0041050c <_afree>:
  41050c:	27bdffe8 	addiu	$sp,$sp,-24
  410510:	afbf0014 	sw	$ra,20($sp)
  410514:	afa40018 	sw	$a0,24($sp)
  410518:	8ca6009c 	lw	$a2,156($a1)
  41051c:	00000000 	nop
  410520:	10c00008 	beqz	$a2,410544 <_afree+0x38>
  410524:	8fa40018 	lw	$a0,24($sp)
  410528:	8f998b94 	lw	$t9,-29804($gp)
  41052c:	00c02025 	move	$a0,$a2
  410530:	0320f809 	jalr	$t9
  410534:	afa5001c 	sw	$a1,28($sp)
  410538:	8fa5001c 	lw	$a1,28($sp)
  41053c:	00000000 	nop
  410540:	8fa40018 	lw	$a0,24($sp)
  410544:	0c104430 	jal	4110c0 <_arecalloc+0x8c8>
  410548:	afa5001c 	sw	$a1,28($sp)
  41054c:	8fa5001c 	lw	$a1,28($sp)
  410550:	8f998b98 	lw	$t9,-29800($gp)
  410554:	8ca6009c 	lw	$a2,156($a1)
  410558:	00000000 	nop
  41055c:	10c00004 	beqz	$a2,410570 <_afree+0x64>
  410560:	8fbf0014 	lw	$ra,20($sp)
  410564:	0320f809 	jalr	$t9
  410568:	00c02025 	move	$a0,$a2
  41056c:	8fbf0014 	lw	$ra,20($sp)
  410570:	27bd0018 	addiu	$sp,$sp,24
  410574:	03e00008 	jr	$ra
  410578:	00000000 	nop
  41057c:	27bdffe0 	addiu	$sp,$sp,-32
  410580:	afbf0014 	sw	$ra,20($sp)
  410584:	8ca200a0 	lw	$v0,160($a1)
  410588:	00a03825 	move	$a3,$a1
  41058c:	10400005 	beqz	$v0,4105a4 <_afree+0x98>
  410590:	00000000 	nop
  410594:	0040f809 	jalr	$v0
  410598:	00000000 	nop
  41059c:	10000020 	b	410620 <_afree+0x114>
  4105a0:	8fbf0014 	lw	$ra,20($sp)
  4105a4:	8ce200a8 	lw	$v0,168($a3)
  4105a8:	8cf800a4 	lw	$t8,164($a3)
  4105ac:	00477023 	subu	$t6,$v0,$a3
  4105b0:	01c47821 	addu	$t7,$t6,$a0
  4105b4:	01f8082b 	sltu	$at,$t7,$t8
  4105b8:	14200003 	bnez	$at,4105c8 <_afree+0xbc>
  4105bc:	00000000 	nop
  4105c0:	10000016 	b	41061c <_afree+0x110>
  4105c4:	2402ffff 	li	$v0,-1
  4105c8:	8cf90000 	lw	$t9,0($a3)
  4105cc:	00444021 	addu	$t0,$v0,$a0
  4105d0:	33290004 	andi	$t1,$t9,0x4
  4105d4:	1520000f 	bnez	$t1,410614 <_afree+0x108>
  4105d8:	00002025 	move	$a0,$zero
  4105dc:	2506fff0 	addiu	$a2,$t0,-16
  4105e0:	2401fff8 	li	$at,-8
  4105e4:	00c15024 	and	$t2,$a2,$at
  4105e8:	01403025 	move	$a2,$t2
  4105ec:	00002825 	move	$a1,$zero
  4105f0:	afa70024 	sw	$a3,36($sp)
  4105f4:	0c105994 	jal	416650 <_sigprocmask>
  4105f8:	afa80018 	sw	$t0,24($sp)
  4105fc:	8fa70024 	lw	$a3,36($sp)
  410600:	8fa80018 	lw	$t0,24($sp)
  410604:	04410003 	bgez	$v0,410614 <_afree+0x108>
  410608:	00000000 	nop
  41060c:	10000003 	b	41061c <_afree+0x110>
  410610:	2402ffff 	li	$v0,-1
  410614:	8ce200a8 	lw	$v0,168($a3)
  410618:	ace800a8 	sw	$t0,168($a3)
  41061c:	8fbf0014 	lw	$ra,20($sp)
  410620:	27bd0020 	addiu	$sp,$sp,32
  410624:	03e00008 	jr	$ra
  410628:	00000000 	nop

0041062c <_acreate>:
  41062c:	27bdffd0 	addiu	$sp,$sp,-48
  410630:	afb00018 	sw	$s0,24($sp)
  410634:	00a08025 	move	$s0,$a1
  410638:	afbf001c 	sw	$ra,28($sp)
  41063c:	afa40030 	sw	$a0,48($sp)
  410640:	14e00008 	bnez	$a3,410664 <_acreate+0x38>
  410644:	afa60038 	sw	$a2,56($sp)
  410648:	30cf0001 	andi	$t7,$a2,0x1
  41064c:	11e00006 	beqz	$t7,410668 <_acreate+0x3c>
  410650:	2e010400 	sltiu	$at,$s0,1024
  410654:	0c101ebd 	jal	407af4 <_setoserror>
  410658:	24040016 	li	$a0,22
  41065c:	10000055 	b	4107b4 <_acreate+0x188>
  410660:	00001025 	move	$v0,$zero
  410664:	2e010400 	sltiu	$at,$s0,1024
  410668:	10200005 	beqz	$at,410680 <_acreate+0x54>
  41066c:	240500d8 	li	$a1,216
  410670:	0c101ebd 	jal	407af4 <_setoserror>
  410674:	24040016 	li	$a0,22
  410678:	1000004e 	b	4107b4 <_acreate+0x188>
  41067c:	00001025 	move	$v0,$zero
  410680:	8fb80030 	lw	$t8,48($sp)
  410684:	2401fff8 	li	$at,-8
  410688:	27060007 	addiu	$a2,$t8,7
  41068c:	00c12024 	and	$a0,$a2,$at
  410690:	00984023 	subu	$t0,$a0,$t8
  410694:	02088023 	subu	$s0,$s0,$t0
  410698:	afa40024 	sw	$a0,36($sp)
  41069c:	0c105d10 	jal	417440 <_blkclr>
  4106a0:	afa7003c 	sw	$a3,60($sp)
  4106a4:	8fa60024 	lw	$a2,36($sp)
  4106a8:	8fa90038 	lw	$t1,56($sp)
  4106ac:	8fa7003c 	lw	$a3,60($sp)
  4106b0:	24030010 	li	$v1,16
  4106b4:	24040064 	li	$a0,100
  4106b8:	24050001 	li	$a1,1
  4106bc:	240a001c 	li	$t2,28
  4106c0:	240b2000 	li	$t3,8192
  4106c4:	240c0001 	li	$t4,1
  4106c8:	24c2002c 	addiu	$v0,$a2,44
  4106cc:	24cd003c 	addiu	$t5,$a2,60
  4106d0:	acd000a4 	sw	$s0,164($a2)
  4106d4:	acc00094 	sw	$zero,148($a2)
  4106d8:	acc30028 	sw	$v1,40($a2)
  4106dc:	acc30008 	sw	$v1,8($a2)
  4106e0:	acc40004 	sw	$a0,4($a2)
  4106e4:	acc00010 	sw	$zero,16($a2)
  4106e8:	acca0014 	sw	$t2,20($a2)
  4106ec:	accb001c 	sw	$t3,28($a2)
  4106f0:	acc40020 	sw	$a0,32($a2)
  4106f4:	acc0000c 	sw	$zero,12($a2)
  4106f8:	accc0024 	sw	$t4,36($a2)
  4106fc:	acc5003c 	sw	$a1,60($a2)
  410700:	acc20040 	sw	$v0,64($a2)
  410704:	acc5002c 	sw	$a1,44($a2)
  410708:	accd008c 	sw	$t5,140($a2)
  41070c:	acc90000 	sw	$t1,0($a2)
  410710:	8fa30040 	lw	$v1,64($sp)
  410714:	2401fff0 	li	$at,-16
  410718:	24c800e7 	addiu	$t0,$a2,231
  41071c:	01014824 	and	$t1,$t0,$at
  410720:	24ce005c 	addiu	$t6,$a2,92
  410724:	24cf004c 	addiu	$t7,$a2,76
  410728:	24d9007c 	addiu	$t9,$a2,124
  41072c:	24d8006c 	addiu	$t8,$a2,108
  410730:	acce0054 	sw	$t6,84($a2)
  410734:	acc2005c 	sw	$v0,92($a2)
  410738:	accf0068 	sw	$t7,104($a2)
  41073c:	acd90074 	sw	$t9,116($a2)
  410740:	acd80088 	sw	$t8,136($a2)
  410744:	14600007 	bnez	$v1,410764 <_acreate+0x138>
  410748:	acc900a8 	sw	$t1,168($a2)
  41074c:	3c010001 	lui	$at,0x1
  410750:	0201082b 	sltu	$at,$s0,$at
  410754:	10200003 	beqz	$at,410764 <_acreate+0x138>
  410758:	240a0200 	li	$t2,512
  41075c:	acca001c 	sw	$t2,28($a2)
  410760:	acc00014 	sw	$zero,20($a2)
  410764:	8ccb0014 	lw	$t3,20($a2)
  410768:	8ccc0008 	lw	$t4,8($a2)
  41076c:	8ccf0000 	lw	$t7,0($a2)
  410770:	016c6821 	addu	$t5,$t3,$t4
  410774:	25ae0001 	addiu	$t6,$t5,1
  410778:	31f90001 	andi	$t9,$t7,0x1
  41077c:	acc300a0 	sw	$v1,160($a2)
  410780:	acce0018 	sw	$t6,24($a2)
  410784:	1320000a 	beqz	$t9,4107b0 <_acreate+0x184>
  410788:	acc70098 	sw	$a3,152($a2)
  41078c:	8f998b9c 	lw	$t9,-29796($gp)
  410790:	00e02025 	move	$a0,$a3
  410794:	0320f809 	jalr	$t9
  410798:	afa60024 	sw	$a2,36($sp)
  41079c:	8fa60024 	lw	$a2,36($sp)
  4107a0:	14400003 	bnez	$v0,4107b0 <_acreate+0x184>
  4107a4:	acc2009c 	sw	$v0,156($a2)
  4107a8:	10000002 	b	4107b4 <_acreate+0x188>
  4107ac:	00001025 	move	$v0,$zero
  4107b0:	00c01025 	move	$v0,$a2
  4107b4:	8fbf001c 	lw	$ra,28($sp)
  4107b8:	8fb00018 	lw	$s0,24($sp)
  4107bc:	03e00008 	jr	$ra
  4107c0:	27bd0030 	addiu	$sp,$sp,48

004107c4 <_adelete>:
  4107c4:	27bdffe8 	addiu	$sp,$sp,-24
  4107c8:	afbf0014 	sw	$ra,20($sp)
  4107cc:	8c87009c 	lw	$a3,156($a0)
  4107d0:	8f998ba4 	lw	$t9,-29788($gp)
  4107d4:	10e00004 	beqz	$a3,4107e8 <_adelete+0x24>
  4107d8:	00803025 	move	$a2,$a0
  4107dc:	8cc50098 	lw	$a1,152($a2)
  4107e0:	0320f809 	jalr	$t9
  4107e4:	00e02025 	move	$a0,$a3
  4107e8:	8fbf0014 	lw	$ra,20($sp)
  4107ec:	27bd0018 	addiu	$sp,$sp,24
  4107f0:	03e00008 	jr	$ra
  4107f4:	00000000 	nop

004107f8 <_arecalloc>:
  4107f8:	00a60019 	multu	$a1,$a2
  4107fc:	27bdffd8 	addiu	$sp,$sp,-40
  410800:	afb00014 	sw	$s0,20($sp)
  410804:	afbf001c 	sw	$ra,28($sp)
  410808:	afb10018 	sw	$s1,24($sp)
  41080c:	00808825 	move	$s1,$a0
  410810:	afa70034 	sw	$a3,52($sp)
  410814:	00e02825 	move	$a1,$a3
  410818:	00008012 	mflo	$s0
  41081c:	0c104741 	jal	411d04 <_amallocblksize>
  410820:	00000000 	nop
  410824:	8fa60034 	lw	$a2,52($sp)
  410828:	02202025 	move	$a0,$s1
  41082c:	02002825 	move	$a1,$s0
  410830:	0c1044b7 	jal	4112dc <_arealloc>
  410834:	afa20020 	sw	$v0,32($sp)
  410838:	8fa50034 	lw	$a1,52($sp)
  41083c:	00408825 	move	$s1,$v0
  410840:	0c104741 	jal	411d04 <_amallocblksize>
  410844:	00402025 	move	$a0,$v0
  410848:	8fa30020 	lw	$v1,32($sp)
  41084c:	1220000b 	beqz	$s1,41087c <_arecalloc+0x84>
  410850:	00403025 	move	$a2,$v0
  410854:	0062082b 	sltu	$at,$v1,$v0
  410858:	10200006 	beqz	$at,410874 <_arecalloc+0x7c>
  41085c:	02302021 	addu	$a0,$s1,$s0
  410860:	02232021 	addu	$a0,$s1,$v1
  410864:	0c105d10 	jal	417440 <_blkclr>
  410868:	00432823 	subu	$a1,$v0,$v1
  41086c:	10000004 	b	410880 <_arecalloc+0x88>
  410870:	8fbf001c 	lw	$ra,28($sp)
  410874:	0c105d10 	jal	417440 <_blkclr>
  410878:	00d02823 	subu	$a1,$a2,$s0
  41087c:	8fbf001c 	lw	$ra,28($sp)
  410880:	02201025 	move	$v0,$s1
  410884:	8fb10018 	lw	$s1,24($sp)
  410888:	8fb00014 	lw	$s0,20($sp)
  41088c:	03e00008 	jr	$ra
  410890:	27bd0028 	addiu	$sp,$sp,40
  410894:	27bdff88 	addiu	$sp,$sp,-120
  410898:	afb00018 	sw	$s0,24($sp)
  41089c:	00a08025 	move	$s0,$a1
  4108a0:	afbf001c 	sw	$ra,28($sp)
  4108a4:	00803825 	move	$a3,$a0
  4108a8:	14e00003 	bnez	$a3,4108b8 <_arecalloc+0xc0>
  4108ac:	00000000 	nop
  4108b0:	100001ff 	b	4110b0 <_arecalloc+0x8b8>
  4108b4:	00001025 	move	$v0,$zero
  4108b8:	8e030014 	lw	$v1,20($s0)
  4108bc:	00000000 	nop
  4108c0:	0067082b 	sltu	$at,$v1,$a3
  4108c4:	142000ad 	bnez	$at,410b7c <_arecalloc+0x384>
  4108c8:	00603025 	move	$a2,$v1
  4108cc:	8e02000c 	lw	$v0,12($s0)
  4108d0:	8e0800ac 	lw	$t0,172($s0)
  4108d4:	8e0900b0 	lw	$t1,176($s0)
  4108d8:	1440002b 	bnez	$v0,410988 <_arecalloc+0x190>
  4108dc:	00000000 	nop
  4108e0:	8e020028 	lw	$v0,40($s0)
  4108e4:	ae03000c 	sw	$v1,12($s0)
  4108e8:	00c27021 	addu	$t6,$a2,$v0
  4108ec:	25cf0003 	addiu	$t7,$t6,3
  4108f0:	01e2001b 	divu	$zero,$t7,$v0
  4108f4:	ae000014 	sw	$zero,20($s0)
  4108f8:	14400002 	bnez	$v0,410904 <_arecalloc+0x10c>
  4108fc:	00000000 	nop
  410900:	0007000d 	break	0x7
  410904:	02002825 	move	$a1,$s0
  410908:	0000c012 	mflo	$t8
  41090c:	ae180010 	sw	$t8,16($s0)
  410910:	0018c880 	sll	$t9,$t8,0x2
  410914:	27240004 	addiu	$a0,$t9,4
  410918:	afa9005c 	sw	$t1,92($sp)
  41091c:	afa80060 	sw	$t0,96($sp)
  410920:	0c104225 	jal	410894 <_arecalloc+0x9c>
  410924:	afa70078 	sw	$a3,120($sp)
  410928:	8fa70078 	lw	$a3,120($sp)
  41092c:	8fa80060 	lw	$t0,96($sp)
  410930:	8fa9005c 	lw	$t1,92($sp)
  410934:	14400003 	bnez	$v0,410944 <_arecalloc+0x14c>
  410938:	ae020090 	sw	$v0,144($s0)
  41093c:	1000ffda 	b	4108a8 <_arecalloc+0xb0>
  410940:	ae00000c 	sw	$zero,12($s0)
  410944:	8e0d0010 	lw	$t5,16($s0)
  410948:	8e0c000c 	lw	$t4,12($s0)
  41094c:	25ae0001 	addiu	$t6,$t5,1
  410950:	29c10002 	slti	$at,$t6,2
  410954:	24020001 	li	$v0,1
  410958:	1420000b 	bnez	$at,410988 <_arecalloc+0x190>
  41095c:	ae0c0014 	sw	$t4,20($s0)
  410960:	24030004 	li	$v1,4
  410964:	8e0f0090 	lw	$t7,144($s0)
  410968:	24420001 	addiu	$v0,$v0,1
  41096c:	01e3c021 	addu	$t8,$t7,$v1
  410970:	af000000 	sw	$zero,0($t8)
  410974:	8e190010 	lw	$t9,16($s0)
  410978:	24630004 	addiu	$v1,$v1,4
  41097c:	0322082a 	slt	$at,$t9,$v0
  410980:	1020fff8 	beqz	$at,410964 <_arecalloc+0x16c>
  410984:	00000000 	nop
  410988:	11000009 	beqz	$t0,4109b0 <_arecalloc+0x1b8>
  41098c:	00e86021 	addu	$t4,$a3,$t0
  410990:	258d0004 	addiu	$t5,$t4,4
  410994:	8e0e0090 	lw	$t6,144($s0)
  410998:	012d3007 	srav	$a2,$t5,$t1
  41099c:	00067880 	sll	$t7,$a2,0x2
  4109a0:	01cfc021 	addu	$t8,$t6,$t7
  4109a4:	8f030000 	lw	$v1,0($t8)
  4109a8:	10000012 	b	4109f4 <_arecalloc+0x1fc>
  4109ac:	01265004 	sllv	$t2,$a2,$t1
  4109b0:	8e040028 	lw	$a0,40($s0)
  4109b4:	8e0d0090 	lw	$t5,144($s0)
  4109b8:	00e4c821 	addu	$t9,$a3,$a0
  4109bc:	272c0003 	addiu	$t4,$t9,3
  4109c0:	0184001b 	divu	$zero,$t4,$a0
  4109c4:	00801025 	move	$v0,$a0
  4109c8:	14400002 	bnez	$v0,4109d4 <_arecalloc+0x1dc>
  4109cc:	00000000 	nop
  4109d0:	0007000d 	break	0x7
  4109d4:	00003012 	mflo	$a2
  4109d8:	00067080 	sll	$t6,$a2,0x2
  4109dc:	01ae7821 	addu	$t7,$t5,$t6
  4109e0:	00860019 	multu	$a0,$a2
  4109e4:	8de30000 	lw	$v1,0($t7)
  4109e8:	00005012 	mflo	$t2
	...
  4109f4:	1060002a 	beqz	$v1,410aa0 <_arecalloc+0x2a8>
  4109f8:	00000000 	nop
  4109fc:	8c640008 	lw	$a0,8($v1)
  410a00:	00000000 	nop
  410a04:	10800026 	beqz	$a0,410aa0 <_arecalloc+0x2a8>
  410a08:	00000000 	nop
  410a0c:	8c62000c 	lw	$v0,12($v1)
  410a10:	00802825 	move	$a1,$a0
  410a14:	0082082b 	sltu	$at,$a0,$v0
  410a18:	1020000c 	beqz	$at,410a4c <_arecalloc+0x254>
  410a1c:	00000000 	nop
  410a20:	8c820000 	lw	$v0,0($a0)
  410a24:	2401fffd 	li	$at,-3
  410a28:	0041c024 	and	$t8,$v0,$at
  410a2c:	17000019 	bnez	$t8,410a94 <_arecalloc+0x29c>
  410a30:	ac780008 	sw	$t8,8($v1)
  410a34:	8e0c0090 	lw	$t4,144($s0)
  410a38:	8c790000 	lw	$t9,0($v1)
  410a3c:	00066880 	sll	$t5,$a2,0x2
  410a40:	018d7021 	addu	$t6,$t4,$t5
  410a44:	10000013 	b	410a94 <_arecalloc+0x29c>
  410a48:	add90000 	sw	$t9,0($t6)
  410a4c:	8c6f0014 	lw	$t7,20($v1)
  410a50:	004a2021 	addu	$a0,$v0,$t2
  410a54:	248c0004 	addiu	$t4,$a0,4
  410a58:	006fc021 	addu	$t8,$v1,$t7
  410a5c:	0198082b 	sltu	$at,$t4,$t8
  410a60:	10200004 	beqz	$at,410a74 <_arecalloc+0x27c>
  410a64:	000a68c0 	sll	$t5,$t2,0x3
  410a68:	ac64000c 	sw	$a0,12($v1)
  410a6c:	10000009 	b	410a94 <_arecalloc+0x29c>
  410a70:	ac640008 	sw	$a0,8($v1)
  410a74:	004dc821 	addu	$t9,$v0,$t5
  410a78:	ac600008 	sw	$zero,8($v1)
  410a7c:	ac79000c 	sw	$t9,12($v1)
  410a80:	8e0f0090 	lw	$t7,144($s0)
  410a84:	8c6e0000 	lw	$t6,0($v1)
  410a88:	0006c080 	sll	$t8,$a2,0x2
  410a8c:	01f86021 	addu	$t4,$t7,$t8
  410a90:	ad8e0000 	sw	$t6,0($t4)
  410a94:	346d0003 	ori	$t5,$v1,0x3
  410a98:	1000002e 	b	410b54 <_arecalloc+0x35c>
  410a9c:	acad0000 	sw	$t5,0($a1)
  410aa0:	8e190004 	lw	$t9,4($s0)
  410aa4:	afaa0074 	sw	$t2,116($sp)
  410aa8:	032a0019 	multu	$t9,$t2
  410aac:	afa60068 	sw	$a2,104($sp)
  410ab0:	afa30070 	sw	$v1,112($sp)
  410ab4:	02002825 	move	$a1,$s0
  410ab8:	00002012 	mflo	$a0
  410abc:	24840020 	addiu	$a0,$a0,32
  410ac0:	0c104225 	jal	410894 <_arecalloc+0x9c>
  410ac4:	00000000 	nop
  410ac8:	8faa0074 	lw	$t2,116($sp)
  410acc:	8fa30070 	lw	$v1,112($sp)
  410ad0:	8fa60068 	lw	$a2,104($sp)
  410ad4:	14400003 	bnez	$v0,410ae4 <_arecalloc+0x2ec>
  410ad8:	254dfffc 	addiu	$t5,$t2,-4
  410adc:	10000174 	b	4110b0 <_arecalloc+0x8b8>
  410ae0:	00001025 	move	$v0,$zero
  410ae4:	10600009 	beqz	$v1,410b0c <_arecalloc+0x314>
  410ae8:	00062080 	sll	$a0,$a2,0x2
  410aec:	ac430000 	sw	$v1,0($v0)
  410af0:	8c6f0004 	lw	$t7,4($v1)
  410af4:	00000000 	nop
  410af8:	ac4f0004 	sw	$t7,4($v0)
  410afc:	ac620004 	sw	$v0,4($v1)
  410b00:	8c580004 	lw	$t8,4($v0)
  410b04:	10000003 	b	410b14 <_arecalloc+0x31c>
  410b08:	af020000 	sw	$v0,0($t8)
  410b0c:	ac420004 	sw	$v0,4($v0)
  410b10:	ac420000 	sw	$v0,0($v0)
  410b14:	8e0e0090 	lw	$t6,144($s0)
  410b18:	004a1821 	addu	$v1,$v0,$t2
  410b1c:	01c46021 	addu	$t4,$t6,$a0
  410b20:	ad820000 	sw	$v0,0($t4)
  410b24:	2463001c 	addiu	$v1,$v1,28
  410b28:	ac43000c 	sw	$v1,12($v0)
  410b2c:	ac430008 	sw	$v1,8($v0)
  410b30:	ac4d0010 	sw	$t5,16($v0)
  410b34:	8e190004 	lw	$t9,4($s0)
  410b38:	344e0003 	ori	$t6,$v0,0x3
  410b3c:	032a0019 	multu	$t9,$t2
  410b40:	2445001c 	addiu	$a1,$v0,28
  410b44:	ac4e001c 	sw	$t6,28($v0)
  410b48:	00007812 	mflo	$t7
  410b4c:	25f80020 	addiu	$t8,$t7,32
  410b50:	ac580014 	sw	$t8,20($v0)
  410b54:	8e0c0094 	lw	$t4,148($s0)
  410b58:	02002025 	move	$a0,$s0
  410b5c:	11800005 	beqz	$t4,410b74 <_arecalloc+0x37c>
  410b60:	00000000 	nop
  410b64:	0c1046f4 	jal	411bd0 <__acheckq>
  410b68:	afa5006c 	sw	$a1,108($sp)
  410b6c:	8fa5006c 	lw	$a1,108($sp)
  410b70:	00000000 	nop
  410b74:	1000014e 	b	4110b0 <_arecalloc+0x8b8>
  410b78:	24a20004 	addiu	$v0,$a1,4
  410b7c:	8e0d0008 	lw	$t5,8($s0)
  410b80:	2401fff0 	li	$at,-16
  410b84:	01a75021 	addu	$t2,$t5,$a3
  410b88:	254a000f 	addiu	$t2,$t2,15
  410b8c:	0141c824 	and	$t9,$t2,$at
  410b90:	8e040020 	lw	$a0,32($s0)
  410b94:	2f210011 	sltiu	$at,$t9,17
  410b98:	00001825 	move	$v1,$zero
  410b9c:	10200002 	beqz	$at,410ba8 <_arecalloc+0x3b0>
  410ba0:	03205025 	move	$t2,$t9
  410ba4:	240a0010 	li	$t2,16
  410ba8:	3c018000 	lui	$at,0x8000
  410bac:	34210001 	ori	$at,$at,0x1
  410bb0:	00e1082b 	sltu	$at,$a3,$at
  410bb4:	14200003 	bnez	$at,410bc4 <_arecalloc+0x3cc>
  410bb8:	260f004c 	addiu	$t7,$s0,76
  410bbc:	1000013c 	b	4110b0 <_arecalloc+0x8b8>
  410bc0:	00001025 	move	$v0,$zero
  410bc4:	afaf0028 	sw	$t7,40($sp)
  410bc8:	01e03025 	move	$a2,$t7
  410bcc:	8cc60008 	lw	$a2,8($a2)
  410bd0:	0064102a 	slt	$v0,$v1,$a0
  410bd4:	14400027 	bnez	$v0,410c74 <_arecalloc+0x47c>
  410bd8:	24630001 	addiu	$v1,$v1,1
  410bdc:	24c2ffa4 	addiu	$v0,$a2,-92
  410be0:	1202002b 	beq	$s0,$v0,410c90 <_arecalloc+0x498>
  410be4:	00000000 	nop
  410be8:	8e180054 	lw	$t8,84($s0)
  410bec:	8e0e0068 	lw	$t6,104($s0)
  410bf0:	2603005c 	addiu	$v1,$s0,92
  410bf4:	add80008 	sw	$t8,8($t6)
  410bf8:	8e0d0054 	lw	$t5,84($s0)
  410bfc:	8e0c0068 	lw	$t4,104($s0)
  410c00:	00000000 	nop
  410c04:	adac000c 	sw	$t4,12($t5)
  410c08:	8cd9000c 	lw	$t9,12($a2)
  410c0c:	00000000 	nop
  410c10:	af230008 	sw	$v1,8($t9)
  410c14:	8ccf000c 	lw	$t7,12($a2)
  410c18:	00000000 	nop
  410c1c:	ae0f0068 	sw	$t7,104($s0)
  410c20:	8fb80028 	lw	$t8,40($sp)
  410c24:	00000000 	nop
  410c28:	acd8000c 	sw	$t8,12($a2)
  410c2c:	8e0e008c 	lw	$t6,140($s0)
  410c30:	ae060054 	sw	$a2,84($s0)
  410c34:	8dc60004 	lw	$a2,4($t6)
  410c38:	00000000 	nop
  410c3c:	8cc20000 	lw	$v0,0($a2)
  410c40:	00000000 	nop
  410c44:	304c0001 	andi	$t4,$v0,0x1
  410c48:	15800007 	bnez	$t4,410c68 <_arecalloc+0x470>
  410c4c:	00000000 	nop
  410c50:	00466823 	subu	$t5,$v0,$a2
  410c54:	01aa082b 	sltu	$at,$t5,$t2
  410c58:	14200003 	bnez	$at,410c68 <_arecalloc+0x470>
  410c5c:	00000000 	nop
  410c60:	1000000b 	b	410c90 <_arecalloc+0x498>
  410c64:	24c2ffa4 	addiu	$v0,$a2,-92
  410c68:	00603025 	move	$a2,$v1
  410c6c:	10000008 	b	410c90 <_arecalloc+0x498>
  410c70:	2462ffa4 	addiu	$v0,$v1,-92
  410c74:	8cd90000 	lw	$t9,0($a2)
  410c78:	00000000 	nop
  410c7c:	03267823 	subu	$t7,$t9,$a2
  410c80:	01ea082b 	sltu	$at,$t7,$t2
  410c84:	1420ffd1 	bnez	$at,410bcc <_arecalloc+0x3d4>
  410c88:	00000000 	nop
  410c8c:	24c2ffa4 	addiu	$v0,$a2,-92
  410c90:	160200a6 	bne	$s0,$v0,410f2c <_arecalloc+0x734>
  410c94:	00000000 	nop
  410c98:	8e08008c 	lw	$t0,140($s0)
  410c9c:	00000000 	nop
  410ca0:	8d070004 	lw	$a3,4($t0)
  410ca4:	00000000 	nop
  410ca8:	8cf80000 	lw	$t8,0($a3)
  410cac:	00000000 	nop
  410cb0:	330e0001 	andi	$t6,$t8,0x1
  410cb4:	15c00048 	bnez	$t6,410dd8 <_arecalloc+0x5e0>
  410cb8:	00000000 	nop
  410cbc:	8e02001c 	lw	$v0,28($s0)
  410cc0:	01076023 	subu	$t4,$t0,$a3
  410cc4:	014c2023 	subu	$a0,$t2,$t4
  410cc8:	00442021 	addu	$a0,$v0,$a0
  410ccc:	2484ffff 	addiu	$a0,$a0,-1
  410cd0:	0082001b 	divu	$zero,$a0,$v0
  410cd4:	afaa0074 	sw	$t2,116($sp)
  410cd8:	14400002 	bnez	$v0,410ce4 <_arecalloc+0x4ec>
  410cdc:	00000000 	nop
  410ce0:	0007000d 	break	0x7
  410ce4:	afa70034 	sw	$a3,52($sp)
  410ce8:	02002825 	move	$a1,$s0
  410cec:	00002012 	mflo	$a0
	...
  410cf8:	00820019 	multu	$a0,$v0
  410cfc:	00002012 	mflo	$a0
  410d00:	afa4003c 	sw	$a0,60($sp)
  410d04:	0c10415f 	jal	41057c <_afree+0x70>
  410d08:	00000000 	nop
  410d0c:	8fa4003c 	lw	$a0,60($sp)
  410d10:	8fa70034 	lw	$a3,52($sp)
  410d14:	8faa0074 	lw	$t2,116($sp)
  410d18:	2401ffff 	li	$at,-1
  410d1c:	14410003 	bne	$v0,$at,410d2c <_arecalloc+0x534>
  410d20:	00402825 	move	$a1,$v0
  410d24:	100000e2 	b	4110b0 <_arecalloc+0x8b8>
  410d28:	00001025 	move	$v0,$zero
  410d2c:	8e08008c 	lw	$t0,140($s0)
  410d30:	3046000f 	andi	$a2,$v0,0xf
  410d34:	250d0010 	addiu	$t5,$t0,16
  410d38:	144d0005 	bne	$v0,$t5,410d50 <_arecalloc+0x558>
  410d3c:	00441821 	addu	$v1,$v0,$a0
  410d40:	260b003c 	addiu	$t3,$s0,60
  410d44:	35790001 	ori	$t9,$t3,0x1
  410d48:	10000067 	b	410ee8 <_arecalloc+0x6f0>
  410d4c:	03205825 	move	$t3,$t9
  410d50:	10c00003 	beqz	$a2,410d60 <_arecalloc+0x568>
  410d54:	2463fff0 	addiu	$v1,$v1,-16
  410d58:	00462823 	subu	$a1,$v0,$a2
  410d5c:	24a50010 	addiu	$a1,$a1,16
  410d60:	260f003c 	addiu	$t7,$s0,60
  410d64:	35f80001 	ori	$t8,$t7,0x1
  410d68:	ac780000 	sw	$t8,0($v1)
  410d6c:	aca30000 	sw	$v1,0($a1)
  410d70:	8e0c008c 	lw	$t4,140($s0)
  410d74:	34ae0001 	ori	$t6,$a1,0x1
  410d78:	ad8e0000 	sw	$t6,0($t4)
  410d7c:	ac650004 	sw	$a1,4($v1)
  410d80:	8e0d008c 	lw	$t5,140($s0)
  410d84:	ae030040 	sw	$v1,64($s0)
  410d88:	acad0004 	sw	$t5,4($a1)
  410d8c:	8e190024 	lw	$t9,36($s0)
  410d90:	ae03008c 	sw	$v1,140($s0)
  410d94:	13200008 	beqz	$t9,410db8 <_arecalloc+0x5c0>
  410d98:	8fa40028 	lw	$a0,40($sp)
  410d9c:	8fa40028 	lw	$a0,40($sp)
  410da0:	0c104582 	jal	411608 <_arealloc+0x32c>
  410da4:	afaa0074 	sw	$t2,116($sp)
  410da8:	8faa0074 	lw	$t2,116($sp)
  410dac:	10000007 	b	410dcc <_arecalloc+0x5d4>
  410db0:	8e0f008c 	lw	$t7,140($s0)
  410db4:	8fa40028 	lw	$a0,40($sp)
  410db8:	0c104579 	jal	4115e4 <_arealloc+0x308>
  410dbc:	afaa0074 	sw	$t2,116($sp)
  410dc0:	8faa0074 	lw	$t2,116($sp)
  410dc4:	00000000 	nop
  410dc8:	8e0f008c 	lw	$t7,140($s0)
  410dcc:	00000000 	nop
  410dd0:	8de70004 	lw	$a3,4($t7)
  410dd4:	00000000 	nop
  410dd8:	8e02001c 	lw	$v0,28($s0)
  410ddc:	afaa0074 	sw	$t2,116($sp)
  410de0:	004a2021 	addu	$a0,$v0,$t2
  410de4:	2484001e 	addiu	$a0,$a0,30
  410de8:	0082001b 	divu	$zero,$a0,$v0
  410dec:	afa70034 	sw	$a3,52($sp)
  410df0:	14400002 	bnez	$v0,410dfc <_arecalloc+0x604>
  410df4:	00000000 	nop
  410df8:	0007000d 	break	0x7
  410dfc:	02002825 	move	$a1,$s0
  410e00:	00002012 	mflo	$a0
	...
  410e0c:	00820019 	multu	$a0,$v0
  410e10:	00002012 	mflo	$a0
  410e14:	afa4003c 	sw	$a0,60($sp)
  410e18:	0c10415f 	jal	41057c <_afree+0x70>
  410e1c:	00000000 	nop
  410e20:	8fa4003c 	lw	$a0,60($sp)
  410e24:	8fa70034 	lw	$a3,52($sp)
  410e28:	8faa0074 	lw	$t2,116($sp)
  410e2c:	2401ffff 	li	$at,-1
  410e30:	14410003 	bne	$v0,$at,410e40 <_arecalloc+0x648>
  410e34:	00402825 	move	$a1,$v0
  410e38:	1000009d 	b	4110b0 <_arecalloc+0x8b8>
  410e3c:	00001025 	move	$v0,$zero
  410e40:	8e08008c 	lw	$t0,140($s0)
  410e44:	260b003c 	addiu	$t3,$s0,60
  410e48:	35780001 	ori	$t8,$t3,0x1
  410e4c:	250e0010 	addiu	$t6,$t0,16
  410e50:	3046000f 	andi	$a2,$v0,0xf
  410e54:	104e0013 	beq	$v0,$t6,410ea4 <_arecalloc+0x6ac>
  410e58:	03005825 	move	$t3,$t8
  410e5c:	00441821 	addu	$v1,$v0,$a0
  410e60:	10c00003 	beqz	$a2,410e70 <_arecalloc+0x678>
  410e64:	2463fff0 	addiu	$v1,$v1,-16
  410e68:	00462823 	subu	$a1,$v0,$a2
  410e6c:	24a50010 	addiu	$a1,$a1,16
  410e70:	ac6b0000 	sw	$t3,0($v1)
  410e74:	aca30000 	sw	$v1,0($a1)
  410e78:	8e0d008c 	lw	$t5,140($s0)
  410e7c:	34ac0001 	ori	$t4,$a1,0x1
  410e80:	adac0000 	sw	$t4,0($t5)
  410e84:	ac650004 	sw	$a1,4($v1)
  410e88:	8e19008c 	lw	$t9,140($s0)
  410e8c:	ae030040 	sw	$v1,64($s0)
  410e90:	acb90004 	sw	$t9,4($a1)
  410e94:	ae03008c 	sw	$v1,140($s0)
  410e98:	00a03025 	move	$a2,$a1
  410e9c:	10000040 	b	410fa0 <_arecalloc+0x7a8>
  410ea0:	aca0000c 	sw	$zero,12($a1)
  410ea4:	8cef0000 	lw	$t7,0($a3)
  410ea8:	01041821 	addu	$v1,$t0,$a0
  410eac:	31f80001 	andi	$t8,$t7,0x1
  410eb0:	1300000d 	beqz	$t8,410ee8 <_arecalloc+0x6f0>
  410eb4:	00000000 	nop
  410eb8:	ac6b0000 	sw	$t3,0($v1)
  410ebc:	8e0e008c 	lw	$t6,140($s0)
  410ec0:	00000000 	nop
  410ec4:	adc30000 	sw	$v1,0($t6)
  410ec8:	8e0c008c 	lw	$t4,140($s0)
  410ecc:	00000000 	nop
  410ed0:	ac6c0004 	sw	$t4,4($v1)
  410ed4:	8e06008c 	lw	$a2,140($s0)
  410ed8:	ae030040 	sw	$v1,64($s0)
  410edc:	acc0000c 	sw	$zero,12($a2)
  410ee0:	1000002f 	b	410fa0 <_arecalloc+0x7a8>
  410ee4:	ae03008c 	sw	$v1,140($s0)
  410ee8:	01041821 	addu	$v1,$t0,$a0
  410eec:	ace30000 	sw	$v1,0($a3)
  410ef0:	ae03008c 	sw	$v1,140($s0)
  410ef4:	ac6b0000 	sw	$t3,0($v1)
  410ef8:	ac670004 	sw	$a3,4($v1)
  410efc:	ae030040 	sw	$v1,64($s0)
  410f00:	8cf9000c 	lw	$t9,12($a3)
  410f04:	8ced0008 	lw	$t5,8($a3)
  410f08:	00e03025 	move	$a2,$a3
  410f0c:	af2d0008 	sw	$t5,8($t9)
  410f10:	8cef000c 	lw	$t7,12($a3)
  410f14:	8cf80008 	lw	$t8,8($a3)
  410f18:	00000000 	nop
  410f1c:	af0f000c 	sw	$t7,12($t8)
  410f20:	ace0000c 	sw	$zero,12($a3)
  410f24:	1000001e 	b	410fa0 <_arecalloc+0x7a8>
  410f28:	ace00008 	sw	$zero,8($a3)
  410f2c:	8cc20008 	lw	$v0,8($a2)
  410f30:	8cce000c 	lw	$t6,12($a2)
  410f34:	2619005c 	addiu	$t9,$s0,92
  410f38:	adc20008 	sw	$v0,8($t6)
  410f3c:	8ccc000c 	lw	$t4,12($a2)
  410f40:	8ccd0008 	lw	$t5,8($a2)
  410f44:	00000000 	nop
  410f48:	adac000c 	sw	$t4,12($t5)
  410f4c:	acc0000c 	sw	$zero,12($a2)
  410f50:	13220013 	beq	$t9,$v0,410fa0 <_arecalloc+0x7a8>
  410f54:	acc00008 	sw	$zero,8($a2)
  410f58:	8e0f0054 	lw	$t7,84($s0)
  410f5c:	8e180068 	lw	$t8,104($s0)
  410f60:	260d005c 	addiu	$t5,$s0,92
  410f64:	af0f0008 	sw	$t7,8($t8)
  410f68:	8e0c0054 	lw	$t4,84($s0)
  410f6c:	8e0e0068 	lw	$t6,104($s0)
  410f70:	00000000 	nop
  410f74:	ad8e000c 	sw	$t6,12($t4)
  410f78:	8c59000c 	lw	$t9,12($v0)
  410f7c:	00000000 	nop
  410f80:	af2d0008 	sw	$t5,8($t9)
  410f84:	8c4f000c 	lw	$t7,12($v0)
  410f88:	00000000 	nop
  410f8c:	ae0f0068 	sw	$t7,104($s0)
  410f90:	8fb80028 	lw	$t8,40($sp)
  410f94:	00000000 	nop
  410f98:	ac58000c 	sw	$t8,12($v0)
  410f9c:	ae020054 	sw	$v0,84($s0)
  410fa0:	8cc20000 	lw	$v0,0($a2)
  410fa4:	00ca2821 	addu	$a1,$a2,$t2
  410fa8:	00467023 	subu	$t6,$v0,$a2
  410fac:	01ca3823 	subu	$a3,$t6,$t2
  410fb0:	2ce10010 	sltiu	$at,$a3,16
  410fb4:	14200032 	bnez	$at,411080 <_arecalloc+0x888>
  410fb8:	344e0001 	ori	$t6,$v0,0x1
  410fbc:	aca20000 	sw	$v0,0($a1)
  410fc0:	34ac0001 	ori	$t4,$a1,0x1
  410fc4:	accc0000 	sw	$t4,0($a2)
  410fc8:	8e0d0018 	lw	$t5,24($s0)
  410fcc:	00000000 	nop
  410fd0:	00ed082b 	sltu	$at,$a3,$t5
  410fd4:	14200014 	bnez	$at,411028 <_arecalloc+0x830>
  410fd8:	00000000 	nop
  410fdc:	8e190024 	lw	$t9,36($s0)
  410fe0:	8fa40028 	lw	$a0,40($sp)
  410fe4:	13200009 	beqz	$t9,41100c <_arecalloc+0x814>
  410fe8:	00000000 	nop
  410fec:	8fa40028 	lw	$a0,40($sp)
  410ff0:	afa50020 	sw	$a1,32($sp)
  410ff4:	0c104582 	jal	411608 <_arealloc+0x32c>
  410ff8:	afa60050 	sw	$a2,80($sp)
  410ffc:	8fa50020 	lw	$a1,32($sp)
  411000:	8fa60050 	lw	$a2,80($sp)
  411004:	1000001b 	b	411074 <_arecalloc+0x87c>
  411008:	8cb80000 	lw	$t8,0($a1)
  41100c:	afa50020 	sw	$a1,32($sp)
  411010:	0c104579 	jal	4115e4 <_arealloc+0x308>
  411014:	afa60050 	sw	$a2,80($sp)
  411018:	8fa50020 	lw	$a1,32($sp)
  41101c:	8fa60050 	lw	$a2,80($sp)
  411020:	10000014 	b	411074 <_arecalloc+0x87c>
  411024:	8cb80000 	lw	$t8,0($a1)
  411028:	8e0f0024 	lw	$t7,36($s0)
  41102c:	2604006c 	addiu	$a0,$s0,108
  411030:	11e00009 	beqz	$t7,411058 <_arecalloc+0x860>
  411034:	00000000 	nop
  411038:	2604006c 	addiu	$a0,$s0,108
  41103c:	afa50020 	sw	$a1,32($sp)
  411040:	0c104582 	jal	411608 <_arealloc+0x32c>
  411044:	afa60050 	sw	$a2,80($sp)
  411048:	8fa50020 	lw	$a1,32($sp)
  41104c:	8fa60050 	lw	$a2,80($sp)
  411050:	10000008 	b	411074 <_arecalloc+0x87c>
  411054:	8cb80000 	lw	$t8,0($a1)
  411058:	afa50020 	sw	$a1,32($sp)
  41105c:	0c104579 	jal	4115e4 <_arealloc+0x308>
  411060:	afa60050 	sw	$a2,80($sp)
  411064:	8fa50020 	lw	$a1,32($sp)
  411068:	8fa60050 	lw	$a2,80($sp)
  41106c:	00000000 	nop
  411070:	8cb80000 	lw	$t8,0($a1)
  411074:	aca60004 	sw	$a2,4($a1)
  411078:	10000002 	b	411084 <_arecalloc+0x88c>
  41107c:	af050004 	sw	$a1,4($t8)
  411080:	acce0000 	sw	$t6,0($a2)
  411084:	8e0c0094 	lw	$t4,148($s0)
  411088:	02002025 	move	$a0,$s0
  41108c:	11800005 	beqz	$t4,4110a4 <_arecalloc+0x8ac>
  411090:	00000000 	nop
  411094:	0c1046f4 	jal	411bd0 <__acheckq>
  411098:	afa60050 	sw	$a2,80($sp)
  41109c:	8fa60050 	lw	$a2,80($sp)
  4110a0:	00000000 	nop
  4110a4:	8e0d0008 	lw	$t5,8($s0)
  4110a8:	00000000 	nop
  4110ac:	00cd1021 	addu	$v0,$a2,$t5
  4110b0:	8fbf001c 	lw	$ra,28($sp)
  4110b4:	8fb00018 	lw	$s0,24($sp)
  4110b8:	03e00008 	jr	$ra
  4110bc:	27bd0078 	addiu	$sp,$sp,120
  4110c0:	27bdffe0 	addiu	$sp,$sp,-32
  4110c4:	afb00018 	sw	$s0,24($sp)
  4110c8:	00a08025 	move	$s0,$a1
  4110cc:	1080007f 	beqz	$a0,4112cc <_arecalloc+0xad4>
  4110d0:	afbf001c 	sw	$ra,28($sp)
  4110d4:	8cae00b4 	lw	$t6,180($a1)
  4110d8:	00000000 	nop
  4110dc:	11c00009 	beqz	$t6,411104 <_arecalloc+0x90c>
  4110e0:	00000000 	nop
  4110e4:	0c104768 	jal	411da0 <_amallocblksize+0x9c>
  4110e8:	afa40020 	sw	$a0,32($sp)
  4110ec:	8fa40020 	lw	$a0,32($sp)
  4110f0:	8e0500b8 	lw	$a1,184($s0)
  4110f4:	0c10194c 	jal	406530 <memset>
  4110f8:	00403025 	move	$a2,$v0
  4110fc:	8fa40020 	lw	$a0,32($sp)
  411100:	00000000 	nop
  411104:	8c8ffffc 	lw	$t7,-4($a0)
  411108:	2485fffc 	addiu	$a1,$a0,-4
  41110c:	31f80002 	andi	$t8,$t7,0x2
  411110:	1300002d 	beqz	$t8,4111c8 <_arecalloc+0x9d0>
  411114:	2401fffe 	li	$at,-2
  411118:	00a1c824 	and	$t9,$a1,$at
  41111c:	8f220000 	lw	$v0,0($t9)
  411120:	03202825 	move	$a1,$t9
  411124:	30480001 	andi	$t0,$v0,0x1
  411128:	11000068 	beqz	$t0,4112cc <_arecalloc+0xad4>
  41112c:	2401fffc 	li	$at,-4
  411130:	00414824 	and	$t1,$v0,$at
  411134:	8d2a0008 	lw	$t2,8($t1)
  411138:	01201025 	move	$v0,$t1
  41113c:	354b0002 	ori	$t3,$t2,0x2
  411140:	af2b0000 	sw	$t3,0($t9)
  411144:	8d2c0010 	lw	$t4,16($t1)
  411148:	ad390008 	sw	$t9,8($t1)
  41114c:	8e0e0028 	lw	$t6,40($s0)
  411150:	258d0004 	addiu	$t5,$t4,4
  411154:	01ae001b 	divu	$zero,$t5,$t6
  411158:	8e0f0090 	lw	$t7,144($s0)
  41115c:	15c00002 	bnez	$t6,411168 <_arecalloc+0x970>
  411160:	00000000 	nop
  411164:	0007000d 	break	0x7
  411168:	00002012 	mflo	$a0
  41116c:	0004c080 	sll	$t8,$a0,0x2
  411170:	01f83021 	addu	$a2,$t7,$t8
  411174:	8cc30000 	lw	$v1,0($a2)
  411178:	00000000 	nop
  41117c:	1062004d 	beq	$v1,$v0,4112b4 <_arecalloc+0xabc>
  411180:	00000000 	nop
  411184:	acc20000 	sw	$v0,0($a2)
  411188:	8c590004 	lw	$t9,4($v0)
  41118c:	8c480000 	lw	$t0,0($v0)
  411190:	00000000 	nop
  411194:	ad190004 	sw	$t9,4($t0)
  411198:	8c4a0004 	lw	$t2,4($v0)
  41119c:	8c490000 	lw	$t1,0($v0)
  4111a0:	00000000 	nop
  4111a4:	ad490000 	sw	$t1,0($t2)
  4111a8:	ac430000 	sw	$v1,0($v0)
  4111ac:	8c6b0004 	lw	$t3,4($v1)
  4111b0:	00000000 	nop
  4111b4:	ac4b0004 	sw	$t3,4($v0)
  4111b8:	ac620004 	sw	$v0,4($v1)
  4111bc:	8c4c0004 	lw	$t4,4($v0)
  4111c0:	1000003c 	b	4112b4 <_arecalloc+0xabc>
  4111c4:	ad820000 	sw	$v0,0($t4)
  4111c8:	8e0d0008 	lw	$t5,8($s0)
  4111cc:	2401fffe 	li	$at,-2
  4111d0:	008d2823 	subu	$a1,$a0,$t5
  4111d4:	8ca20000 	lw	$v0,0($a1)
  4111d8:	00000000 	nop
  4111dc:	304e0001 	andi	$t6,$v0,0x1
  4111e0:	11c0003a 	beqz	$t6,4112cc <_arecalloc+0xad4>
  4111e4:	00417824 	and	$t7,$v0,$at
  4111e8:	acaf0000 	sw	$t7,0($a1)
  4111ec:	8de30000 	lw	$v1,0($t7)
  4111f0:	00000000 	nop
  4111f4:	30780001 	andi	$t8,$v1,0x1
  4111f8:	1700000d 	bnez	$t8,411230 <_arecalloc+0xa38>
  4111fc:	00000000 	nop
  411200:	8df90008 	lw	$t9,8($t7)
  411204:	8de8000c 	lw	$t0,12($t7)
  411208:	00000000 	nop
  41120c:	ad190008 	sw	$t9,8($t0)
  411210:	8de9000c 	lw	$t1,12($t7)
  411214:	8dea0008 	lw	$t2,8($t7)
  411218:	00000000 	nop
  41121c:	ad49000c 	sw	$t1,12($t2)
  411220:	ade0000c 	sw	$zero,12($t7)
  411224:	ade00008 	sw	$zero,8($t7)
  411228:	aca30000 	sw	$v1,0($a1)
  41122c:	ac650004 	sw	$a1,4($v1)
  411230:	8ca20004 	lw	$v0,4($a1)
  411234:	00000000 	nop
  411238:	8c4b0000 	lw	$t3,0($v0)
  41123c:	00000000 	nop
  411240:	316c0001 	andi	$t4,$t3,0x1
  411244:	15800011 	bnez	$t4,41128c <_arecalloc+0xa94>
  411248:	00000000 	nop
  41124c:	8c4d0008 	lw	$t5,8($v0)
  411250:	8c4e000c 	lw	$t6,12($v0)
  411254:	00000000 	nop
  411258:	adcd0008 	sw	$t5,8($t6)
  41125c:	8c4f000c 	lw	$t7,12($v0)
  411260:	8c580008 	lw	$t8,8($v0)
  411264:	00000000 	nop
  411268:	af0f000c 	sw	$t7,12($t8)
  41126c:	ac40000c 	sw	$zero,12($v0)
  411270:	ac400008 	sw	$zero,8($v0)
  411274:	8cb90000 	lw	$t9,0($a1)
  411278:	00000000 	nop
  41127c:	ac590000 	sw	$t9,0($v0)
  411280:	8ca80000 	lw	$t0,0($a1)
  411284:	00402825 	move	$a1,$v0
  411288:	ad020004 	sw	$v0,4($t0)
  41128c:	8e090024 	lw	$t1,36($s0)
  411290:	00000000 	nop
  411294:	11200005 	beqz	$t1,4112ac <_arecalloc+0xab4>
  411298:	00000000 	nop
  41129c:	0c104582 	jal	411608 <_arealloc+0x32c>
  4112a0:	2604004c 	addiu	$a0,$s0,76
  4112a4:	10000004 	b	4112b8 <_arecalloc+0xac0>
  4112a8:	8e0a0094 	lw	$t2,148($s0)
  4112ac:	0c104579 	jal	4115e4 <_arealloc+0x308>
  4112b0:	2604004c 	addiu	$a0,$s0,76
  4112b4:	8e0a0094 	lw	$t2,148($s0)
  4112b8:	00000000 	nop
  4112bc:	11400004 	beqz	$t2,4112d0 <_arecalloc+0xad8>
  4112c0:	8fbf001c 	lw	$ra,28($sp)
  4112c4:	0c1046f4 	jal	411bd0 <__acheckq>
  4112c8:	02002025 	move	$a0,$s0
  4112cc:	8fbf001c 	lw	$ra,28($sp)
  4112d0:	8fb00018 	lw	$s0,24($sp)
  4112d4:	03e00008 	jr	$ra
  4112d8:	27bd0020 	addiu	$sp,$sp,32

004112dc <_arealloc>:
  4112dc:	27bdffc0 	addiu	$sp,$sp,-64
  4112e0:	afb00018 	sw	$s0,24($sp)
  4112e4:	00c08025 	move	$s0,$a2
  4112e8:	afbf001c 	sw	$ra,28($sp)
  4112ec:	afa40040 	sw	$a0,64($sp)
  4112f0:	14800006 	bnez	$a0,41130c <_arealloc+0x30>
  4112f4:	afa50044 	sw	$a1,68($sp)
  4112f8:	00a02025 	move	$a0,$a1
  4112fc:	0c10411c 	jal	410470 <_amalloc>
  411300:	00c02825 	move	$a1,$a2
  411304:	100000b4 	b	4115d8 <_arealloc+0x2fc>
  411308:	8fbf001c 	lw	$ra,28($sp)
  41130c:	8faf0044 	lw	$t7,68($sp)
  411310:	8fa40040 	lw	$a0,64($sp)
  411314:	15e00005 	bnez	$t7,41132c <_arealloc+0x50>
  411318:	00000000 	nop
  41131c:	0c104143 	jal	41050c <_afree>
  411320:	02002825 	move	$a1,$s0
  411324:	100000ab 	b	4115d4 <_arealloc+0x2f8>
  411328:	00001025 	move	$v0,$zero
  41132c:	8e04009c 	lw	$a0,156($s0)
  411330:	8f998b94 	lw	$t9,-29804($gp)
  411334:	10800004 	beqz	$a0,411348 <_arealloc+0x6c>
  411338:	8fb80040 	lw	$t8,64($sp)
  41133c:	0320f809 	jalr	$t9
  411340:	00000000 	nop
  411344:	8fb80040 	lw	$t8,64($sp)
  411348:	2401fffe 	li	$at,-2
  41134c:	8f08fffc 	lw	$t0,-4($t8)
  411350:	270afffc 	addiu	$t2,$t8,-4
  411354:	31090002 	andi	$t1,$t0,0x2
  411358:	1120001e 	beqz	$t1,4113d4 <_arealloc+0xf8>
  41135c:	01415824 	and	$t3,$t2,$at
  411360:	8d6c0000 	lw	$t4,0($t3)
  411364:	2401fffc 	li	$at,-4
  411368:	8fa40044 	lw	$a0,68($sp)
  41136c:	01816824 	and	$t5,$t4,$at
  411370:	afad0030 	sw	$t5,48($sp)
  411374:	0c104225 	jal	410894 <_arecalloc+0x9c>
  411378:	02002825 	move	$a1,$s0
  41137c:	10400087 	beqz	$v0,41159c <_arealloc+0x2c0>
  411380:	afa20038 	sw	$v0,56($sp)
  411384:	8fae0040 	lw	$t6,64($sp)
  411388:	8faf0030 	lw	$t7,48($sp)
  41138c:	11c20083 	beq	$t6,$v0,41159c <_arealloc+0x2c0>
  411390:	00000000 	nop
  411394:	8de20010 	lw	$v0,16($t7)
  411398:	8fb90044 	lw	$t9,68($sp)
  41139c:	8fa40038 	lw	$a0,56($sp)
  4113a0:	0322082b 	sltu	$at,$t9,$v0
  4113a4:	10200003 	beqz	$at,4113b4 <_arealloc+0xd8>
  4113a8:	00403025 	move	$a2,$v0
  4113ac:	10000001 	b	4113b4 <_arealloc+0xd8>
  4113b0:	03203025 	move	$a2,$t9
  4113b4:	8fa50040 	lw	$a1,64($sp)
  4113b8:	0c103118 	jal	40c460 <memcpy>
  4113bc:	00000000 	nop
  4113c0:	8fa40040 	lw	$a0,64($sp)
  4113c4:	0c104430 	jal	4110c0 <_arecalloc+0x8c8>
  4113c8:	02002825 	move	$a1,$s0
  4113cc:	10000074 	b	4115a0 <_arealloc+0x2c4>
  4113d0:	8e180094 	lw	$t8,148($s0)
  4113d4:	8e040008 	lw	$a0,8($s0)
  4113d8:	8fa80044 	lw	$t0,68($sp)
  4113dc:	2401fff0 	li	$at,-16
  4113e0:	00883021 	addu	$a2,$a0,$t0
  4113e4:	24c6000f 	addiu	$a2,$a2,15
  4113e8:	00c14824 	and	$t1,$a2,$at
  4113ec:	2d210010 	sltiu	$at,$t1,16
  4113f0:	10200002 	beqz	$at,4113fc <_arealloc+0x120>
  4113f4:	01203025 	move	$a2,$t1
  4113f8:	24060010 	li	$a2,16
  4113fc:	8fb80040 	lw	$t8,64($sp)
  411400:	2401fffe 	li	$at,-2
  411404:	03041823 	subu	$v1,$t8,$a0
  411408:	8c620000 	lw	$v0,0($v1)
  41140c:	02002825 	move	$a1,$s0
  411410:	304a0001 	andi	$t2,$v0,0x1
  411414:	1540000c 	bnez	$t2,411448 <_arealloc+0x16c>
  411418:	0041c824 	and	$t9,$v0,$at
  41141c:	8c6b0008 	lw	$t3,8($v1)
  411420:	8c6c000c 	lw	$t4,12($v1)
  411424:	344f0001 	ori	$t7,$v0,0x1
  411428:	ad8b0008 	sw	$t3,8($t4)
  41142c:	8c6d000c 	lw	$t5,12($v1)
  411430:	8c6e0008 	lw	$t6,8($v1)
  411434:	00000000 	nop
  411438:	adcd000c 	sw	$t5,12($t6)
  41143c:	ac60000c 	sw	$zero,12($v1)
  411440:	ac600008 	sw	$zero,8($v1)
  411444:	ac6f0000 	sw	$t7,0($v1)
  411448:	8f240000 	lw	$a0,0($t9)
  41144c:	03201025 	move	$v0,$t9
  411450:	30880001 	andi	$t0,$a0,0x1
  411454:	15000012 	bnez	$t0,4114a0 <_arealloc+0x1c4>
  411458:	00833823 	subu	$a3,$a0,$v1
  41145c:	00e6082b 	sltu	$at,$a3,$a2
  411460:	14200010 	bnez	$at,4114a4 <_arealloc+0x1c8>
  411464:	00432023 	subu	$a0,$v0,$v1
  411468:	8f290008 	lw	$t1,8($t9)
  41146c:	8f38000c 	lw	$t8,12($t9)
  411470:	00000000 	nop
  411474:	af090008 	sw	$t1,8($t8)
  411478:	8f2a000c 	lw	$t2,12($t9)
  41147c:	8f2b0008 	lw	$t3,8($t9)
  411480:	00000000 	nop
  411484:	ad6a000c 	sw	$t2,12($t3)
  411488:	8f220000 	lw	$v0,0($t9)
  41148c:	af20000c 	sw	$zero,12($t9)
  411490:	af200008 	sw	$zero,8($t9)
  411494:	ac430004 	sw	$v1,4($v0)
  411498:	344c0001 	ori	$t4,$v0,0x1
  41149c:	ac6c0000 	sw	$t4,0($v1)
  4114a0:	00432023 	subu	$a0,$v0,$v1
  4114a4:	0086082b 	sltu	$at,$a0,$a2
  4114a8:	14200028 	bnez	$at,41154c <_arealloc+0x270>
  4114ac:	00803825 	move	$a3,$a0
  4114b0:	00863823 	subu	$a3,$a0,$a2
  4114b4:	2ce10010 	sltiu	$at,$a3,16
  4114b8:	14200021 	bnez	$at,411540 <_arealloc+0x264>
  4114bc:	00662821 	addu	$a1,$v1,$a2
  4114c0:	aca20000 	sw	$v0,0($a1)
  4114c4:	34ad0001 	ori	$t5,$a1,0x1
  4114c8:	ac6d0000 	sw	$t5,0($v1)
  4114cc:	ac450004 	sw	$a1,4($v0)
  4114d0:	aca30004 	sw	$v1,4($a1)
  4114d4:	8e0e0018 	lw	$t6,24($s0)
  4114d8:	00000000 	nop
  4114dc:	01c7082b 	sltu	$at,$t6,$a3
  4114e0:	1020000d 	beqz	$at,411518 <_arealloc+0x23c>
  4114e4:	00000000 	nop
  4114e8:	8e0f0024 	lw	$t7,36($s0)
  4114ec:	00000000 	nop
  4114f0:	11e00005 	beqz	$t7,411508 <_arealloc+0x22c>
  4114f4:	00000000 	nop
  4114f8:	0c104582 	jal	411608 <_arealloc+0x32c>
  4114fc:	2604004c 	addiu	$a0,$s0,76
  411500:	10000010 	b	411544 <_arealloc+0x268>
  411504:	8fa80040 	lw	$t0,64($sp)
  411508:	0c104579 	jal	4115e4 <_arealloc+0x308>
  41150c:	2604004c 	addiu	$a0,$s0,76
  411510:	1000000c 	b	411544 <_arealloc+0x268>
  411514:	8fa80040 	lw	$t0,64($sp)
  411518:	8e190024 	lw	$t9,36($s0)
  41151c:	00000000 	nop
  411520:	13200005 	beqz	$t9,411538 <_arealloc+0x25c>
  411524:	00000000 	nop
  411528:	0c104582 	jal	411608 <_arealloc+0x32c>
  41152c:	2604006c 	addiu	$a0,$s0,108
  411530:	10000004 	b	411544 <_arealloc+0x268>
  411534:	8fa80040 	lw	$t0,64($sp)
  411538:	0c104579 	jal	4115e4 <_arealloc+0x308>
  41153c:	2604006c 	addiu	$a0,$s0,108
  411540:	8fa80040 	lw	$t0,64($sp)
  411544:	10000015 	b	41159c <_arealloc+0x2c0>
  411548:	afa80038 	sw	$t0,56($sp)
  41154c:	8fa90044 	lw	$t1,68($sp)
  411550:	00000000 	nop
  411554:	0089082b 	sltu	$at,$a0,$t1
  411558:	14200004 	bnez	$at,41156c <_arealloc+0x290>
  41155c:	8fa40044 	lw	$a0,68($sp)
  411560:	8fa70044 	lw	$a3,68($sp)
  411564:	00000000 	nop
  411568:	8fa40044 	lw	$a0,68($sp)
  41156c:	0c104225 	jal	410894 <_arecalloc+0x9c>
  411570:	afa70024 	sw	$a3,36($sp)
  411574:	8fa70024 	lw	$a3,36($sp)
  411578:	10400008 	beqz	$v0,41159c <_arealloc+0x2c0>
  41157c:	afa20038 	sw	$v0,56($sp)
  411580:	8fa50040 	lw	$a1,64($sp)
  411584:	00402025 	move	$a0,$v0
  411588:	0c103118 	jal	40c460 <memcpy>
  41158c:	00e03025 	move	$a2,$a3
  411590:	8fa40040 	lw	$a0,64($sp)
  411594:	0c104430 	jal	4110c0 <_arecalloc+0x8c8>
  411598:	02002825 	move	$a1,$s0
  41159c:	8e180094 	lw	$t8,148($s0)
  4115a0:	00000000 	nop
  4115a4:	13000003 	beqz	$t8,4115b4 <_arealloc+0x2d8>
  4115a8:	00000000 	nop
  4115ac:	0c1046f4 	jal	411bd0 <__acheckq>
  4115b0:	02002025 	move	$a0,$s0
  4115b4:	8e04009c 	lw	$a0,156($s0)
  4115b8:	8f998b98 	lw	$t9,-29800($gp)
  4115bc:	10800004 	beqz	$a0,4115d0 <_arealloc+0x2f4>
  4115c0:	8fa20038 	lw	$v0,56($sp)
  4115c4:	0320f809 	jalr	$t9
  4115c8:	00000000 	nop
  4115cc:	8fa20038 	lw	$v0,56($sp)
  4115d0:	00000000 	nop
  4115d4:	8fbf001c 	lw	$ra,28($sp)
  4115d8:	8fb00018 	lw	$s0,24($sp)
  4115dc:	03e00008 	jr	$ra
  4115e0:	27bd0040 	addiu	$sp,$sp,64
  4115e4:	aca4000c 	sw	$a0,12($a1)
  4115e8:	8c8e0008 	lw	$t6,8($a0)
  4115ec:	00000000 	nop
  4115f0:	acae0008 	sw	$t6,8($a1)
  4115f4:	8c8f0008 	lw	$t7,8($a0)
  4115f8:	00000000 	nop
  4115fc:	ade5000c 	sw	$a1,12($t7)
  411600:	03e00008 	jr	$ra
  411604:	ac850008 	sw	$a1,8($a0)
  411608:	248e0010 	addiu	$t6,$a0,16
  41160c:	acae0008 	sw	$t6,8($a1)
  411610:	8c8f001c 	lw	$t7,28($a0)
  411614:	00000000 	nop
  411618:	acaf000c 	sw	$t7,12($a1)
  41161c:	ade50008 	sw	$a1,8($t7)
  411620:	03e00008 	jr	$ra
  411624:	ac85001c 	sw	$a1,28($a0)

00411628 <_acalloc>:
  411628:	00850019 	multu	$a0,$a1
  41162c:	27bdffe0 	addiu	$sp,$sp,-32
  411630:	afbf0014 	sw	$ra,20($sp)
  411634:	afa50024 	sw	$a1,36($sp)
  411638:	00c02825 	move	$a1,$a2
  41163c:	00002012 	mflo	$a0
  411640:	afa40020 	sw	$a0,32($sp)
  411644:	0c10411c 	jal	410470 <_amalloc>
  411648:	00000000 	nop
  41164c:	8fa70020 	lw	$a3,32($sp)
  411650:	14400003 	bnez	$v0,411660 <_acalloc+0x38>
  411654:	00402025 	move	$a0,$v0
  411658:	10000006 	b	411674 <_acalloc+0x4c>
  41165c:	00001025 	move	$v0,$zero
  411660:	00e02825 	move	$a1,$a3
  411664:	0c105d10 	jal	417440 <_blkclr>
  411668:	afa4001c 	sw	$a0,28($sp)
  41166c:	8fa2001c 	lw	$v0,28($sp)
  411670:	00000000 	nop
  411674:	8fbf0014 	lw	$ra,20($sp)
  411678:	27bd0020 	addiu	$sp,$sp,32
  41167c:	03e00008 	jr	$ra
  411680:	00000000 	nop
  411684:	10800005 	beqz	$a0,41169c <_acalloc+0x74>
  411688:	00001825 	move	$v1,$zero
  41168c:	00047043 	sra	$t6,$a0,0x1
  411690:	01c02025 	move	$a0,$t6
  411694:	15c0fffd 	bnez	$t6,41168c <_acalloc+0x64>
  411698:	24630001 	addiu	$v1,$v1,1
  41169c:	03e00008 	jr	$ra
  4116a0:	2462ffff 	addiu	$v0,$v1,-1

004116a4 <_amallopt>:
  4116a4:	27bdffe8 	addiu	$sp,$sp,-24
  4116a8:	24010005 	li	$at,5
  4116ac:	10810013 	beq	$a0,$at,4116fc <_amallopt+0x58>
  4116b0:	afbf0014 	sw	$ra,20($sp)
  4116b4:	24010006 	li	$at,6
  4116b8:	1081001d 	beq	$a0,$at,411730 <_amallopt+0x8c>
  4116bc:	00001025 	move	$v0,$zero
  4116c0:	24010007 	li	$at,7
  4116c4:	10810017 	beq	$a0,$at,411724 <_amallopt+0x80>
  4116c8:	2cb80001 	sltiu	$t8,$a1,1
  4116cc:	24010008 	li	$at,8
  4116d0:	1081001d 	beq	$a0,$at,411748 <_amallopt+0xa4>
  4116d4:	24010064 	li	$at,100
  4116d8:	10810006 	beq	$a0,$at,4116f4 <_amallopt+0x50>
  4116dc:	00001025 	move	$v0,$zero
  4116e0:	24010068 	li	$at,104
  4116e4:	10810014 	beq	$a0,$at,411738 <_amallopt+0x94>
  4116e8:	24190001 	li	$t9,1
  4116ec:	10000024 	b	411780 <_amallopt+0xdc>
  4116f0:	24010001 	li	$at,1
  4116f4:	10000068 	b	411898 <_amallopt+0x1f4>
  4116f8:	acc50094 	sw	$a1,148($a2)
  4116fc:	28a10200 	slti	$at,$a1,512
  411700:	10200003 	beqz	$at,411710 <_amallopt+0x6c>
  411704:	24ae000f 	addiu	$t6,$a1,15
  411708:	10000063 	b	411898 <_amallopt+0x1f4>
  41170c:	24020001 	li	$v0,1
  411710:	2401fff0 	li	$at,-16
  411714:	01c17824 	and	$t7,$t6,$at
  411718:	accf001c 	sw	$t7,28($a2)
  41171c:	1000005e 	b	411898 <_amallopt+0x1f4>
  411720:	00001025 	move	$v0,$zero
  411724:	acd80024 	sw	$t8,36($a2)
  411728:	1000005b 	b	411898 <_amallopt+0x1f4>
  41172c:	00001025 	move	$v0,$zero
  411730:	10000059 	b	411898 <_amallopt+0x1f4>
  411734:	acc50020 	sw	$a1,32($a2)
  411738:	acd900b4 	sw	$t9,180($a2)
  41173c:	acc500b8 	sw	$a1,184($a2)
  411740:	10000055 	b	411898 <_amallopt+0x1f4>
  411744:	00001025 	move	$v0,$zero
  411748:	8f998b9c 	lw	$t9,-29796($gp)
  41174c:	8cc40098 	lw	$a0,152($a2)
  411750:	0320f809 	jalr	$t9
  411754:	afa60020 	sw	$a2,32($sp)
  411758:	8fa60020 	lw	$a2,32($sp)
  41175c:	14400003 	bnez	$v0,41176c <_amallopt+0xc8>
  411760:	acc2009c 	sw	$v0,156($a2)
  411764:	1000004c 	b	411898 <_amallopt+0x1f4>
  411768:	24020001 	li	$v0,1
  41176c:	8cc80000 	lw	$t0,0($a2)
  411770:	00001025 	move	$v0,$zero
  411774:	35090001 	ori	$t1,$t0,0x1
  411778:	10000047 	b	411898 <_amallopt+0x1f4>
  41177c:	acc90000 	sw	$t1,0($a2)
  411780:	8cca000c 	lw	$t2,12($a2)
  411784:	00000000 	nop
  411788:	11400003 	beqz	$t2,411798 <_amallopt+0xf4>
  41178c:	00000000 	nop
  411790:	10000041 	b	411898 <_amallopt+0x1f4>
  411794:	24020001 	li	$v0,1
  411798:	10810009 	beq	$a0,$at,4117c0 <_amallopt+0x11c>
  41179c:	24010002 	li	$at,2
  4117a0:	10810011 	beq	$a0,$at,4117e8 <_amallopt+0x144>
  4117a4:	24010003 	li	$at,3
  4117a8:	10810016 	beq	$a0,$at,411804 <_amallopt+0x160>
  4117ac:	24010004 	li	$at,4
  4117b0:	10810027 	beq	$a0,$at,411850 <_amallopt+0x1ac>
  4117b4:	00000000 	nop
  4117b8:	10000037 	b	411898 <_amallopt+0x1f4>
  4117bc:	24020001 	li	$v0,1
  4117c0:	04a10003 	bgez	$a1,4117d0 <_amallopt+0x12c>
  4117c4:	00000000 	nop
  4117c8:	10000033 	b	411898 <_amallopt+0x1f4>
  4117cc:	24020001 	li	$v0,1
  4117d0:	8ccb0008 	lw	$t3,8($a2)
  4117d4:	acc50014 	sw	$a1,20($a2)
  4117d8:	00ab6021 	addu	$t4,$a1,$t3
  4117dc:	258d0001 	addiu	$t5,$t4,1
  4117e0:	1000002c 	b	411894 <_amallopt+0x1f0>
  4117e4:	accd0018 	sw	$t5,24($a2)
  4117e8:	28a10002 	slti	$at,$a1,2
  4117ec:	10200003 	beqz	$at,4117fc <_amallopt+0x158>
  4117f0:	00000000 	nop
  4117f4:	10000028 	b	411898 <_amallopt+0x1f4>
  4117f8:	24020001 	li	$v0,1
  4117fc:	10000025 	b	411894 <_amallopt+0x1f0>
  411800:	acc50004 	sw	$a1,4($a2)
  411804:	1ca00003 	bgtz	$a1,411814 <_amallopt+0x170>
  411808:	24a2000f 	addiu	$v0,$a1,15
  41180c:	10000022 	b	411898 <_amallopt+0x1f4>
  411810:	24020001 	li	$v0,1
  411814:	2401fff0 	li	$at,-16
  411818:	00417024 	and	$t6,$v0,$at
  41181c:	25cfffff 	addiu	$t7,$t6,-1
  411820:	01eec024 	and	$t8,$t7,$t6
  411824:	acce0028 	sw	$t6,40($a2)
  411828:	1700001a 	bnez	$t8,411894 <_amallopt+0x1f0>
  41182c:	acc000ac 	sw	$zero,172($a2)
  411830:	25d9ffff 	addiu	$t9,$t6,-1
  411834:	acd900ac 	sw	$t9,172($a2)
  411838:	01c02025 	move	$a0,$t6
  41183c:	0c1045a1 	jal	411684 <_acalloc+0x5c>
  411840:	afa60020 	sw	$a2,32($sp)
  411844:	8fa60020 	lw	$a2,32($sp)
  411848:	10000012 	b	411894 <_amallopt+0x1f0>
  41184c:	acc200b0 	sw	$v0,176($a2)
  411850:	8cc20008 	lw	$v0,8($a2)
  411854:	24080010 	li	$t0,16
  411858:	2c410010 	sltiu	$at,$v0,16
  41185c:	10200003 	beqz	$at,41186c <_amallopt+0x1c8>
  411860:	00000000 	nop
  411864:	10000002 	b	411870 <_amallopt+0x1cc>
  411868:	acc80008 	sw	$t0,8($a2)
  41186c:	acc20008 	sw	$v0,8($a2)
  411870:	8cc90014 	lw	$t1,20($a2)
  411874:	8cca0008 	lw	$t2,8($a2)
  411878:	00000000 	nop
  41187c:	012a5821 	addu	$t3,$t1,$t2
  411880:	256c0001 	addiu	$t4,$t3,1
  411884:	10000003 	b	411894 <_amallopt+0x1f0>
  411888:	accc0018 	sw	$t4,24($a2)
  41188c:	10000002 	b	411898 <_amallopt+0x1f4>
  411890:	24020001 	li	$v0,1
  411894:	00001025 	move	$v0,$zero
  411898:	8fbf0014 	lw	$ra,20($sp)
  41189c:	27bd0018 	addiu	$sp,$sp,24
  4118a0:	03e00008 	jr	$ra
  4118a4:	00000000 	nop

004118a8 <_amallinfo>:
  4118a8:	27bdff78 	addiu	$sp,$sp,-136
  4118ac:	afb20020 	sw	$s2,32($sp)
  4118b0:	afb00018 	sw	$s0,24($sp)
  4118b4:	00a09025 	move	$s2,$a1
  4118b8:	afbf002c 	sw	$ra,44($sp)
  4118bc:	afa40088 	sw	$a0,136($sp)
  4118c0:	00a08025 	move	$s0,$a1
  4118c4:	afb40028 	sw	$s4,40($sp)
  4118c8:	afb30024 	sw	$s3,36($sp)
  4118cc:	afb1001c 	sw	$s1,28($sp)
  4118d0:	24050028 	li	$a1,40
  4118d4:	0c105d10 	jal	417440 <_blkclr>
  4118d8:	27a40050 	addiu	$a0,$sp,80
  4118dc:	8e44009c 	lw	$a0,156($s2)
  4118e0:	8f998b94 	lw	$t9,-29804($gp)
  4118e4:	10800003 	beqz	$a0,4118f4 <_amallinfo+0x4c>
  4118e8:	00000000 	nop
  4118ec:	0320f809 	jalr	$t9
  4118f0:	00000000 	nop
  4118f4:	8e4e0054 	lw	$t6,84($s2)
  4118f8:	00000000 	nop
  4118fc:	15c00004 	bnez	$t6,411910 <_amallinfo+0x68>
  411900:	00000000 	nop
  411904:	8e44009c 	lw	$a0,156($s2)
  411908:	10000076 	b	411ae4 <_amallinfo+0x23c>
  41190c:	00000000 	nop
  411910:	8e4f003c 	lw	$t7,60($s2)
  411914:	2404fffe 	li	$a0,-2
  411918:	01e41824 	and	$v1,$t7,$a0
  41191c:	14600004 	bnez	$v1,411930 <_amallinfo+0x88>
  411920:	00000000 	nop
  411924:	8e44009c 	lw	$a0,156($s2)
  411928:	1000006e 	b	411ae4 <_amallinfo+0x23c>
  41192c:	00000000 	nop
  411930:	8e58008c 	lw	$t8,140($s2)
  411934:	24090010 	li	$t1,16
  411938:	03034023 	subu	$t0,$t8,$v1
  41193c:	afa80050 	sw	$t0,80($sp)
  411940:	8e420008 	lw	$v0,8($s2)
  411944:	00000000 	nop
  411948:	2c410011 	sltiu	$at,$v0,17
  41194c:	14200003 	bnez	$at,41195c <_amallinfo+0xb4>
  411950:	0122a023 	subu	$s4,$t1,$v0
  411954:	10000001 	b	41195c <_amallinfo+0xb4>
  411958:	0000a025 	move	$s4,$zero
  41195c:	8c6a0000 	lw	$t2,0($v1)
  411960:	264b003c 	addiu	$t3,$s2,60
  411964:	01441024 	and	$v0,$t2,$a0
  411968:	11620019 	beq	$t3,$v0,4119d0 <_amallinfo+0x128>
  41196c:	00000000 	nop
  411970:	8fac0054 	lw	$t4,84($sp)
  411974:	8fab0070 	lw	$t3,112($sp)
  411978:	258d0001 	addiu	$t5,$t4,1
  41197c:	afad0054 	sw	$t5,84($sp)
  411980:	8c790000 	lw	$t9,0($v1)
  411984:	00436023 	subu	$t4,$v0,$v1
  411988:	332e0001 	andi	$t6,$t9,0x1
  41198c:	11c00009 	beqz	$t6,4119b4 <_amallinfo+0x10c>
  411990:	016c6821 	addu	$t5,$t3,$t4
  411994:	8faf006c 	lw	$t7,108($sp)
  411998:	8fa90074 	lw	$t1,116($sp)
  41199c:	0043c023 	subu	$t8,$v0,$v1
  4119a0:	01f84021 	addu	$t0,$t7,$t8
  4119a4:	01345021 	addu	$t2,$t1,$s4
  4119a8:	afa8006c 	sw	$t0,108($sp)
  4119ac:	10000002 	b	4119b8 <_amallinfo+0x110>
  4119b0:	afaa0074 	sw	$t2,116($sp)
  4119b4:	afad0070 	sw	$t5,112($sp)
  4119b8:	8c590000 	lw	$t9,0($v0)
  4119bc:	00401825 	move	$v1,$v0
  4119c0:	260e003c 	addiu	$t6,$s0,60
  4119c4:	03241024 	and	$v0,$t9,$a0
  4119c8:	15c2ffea 	bne	$t6,$v0,411974 <_amallinfo+0xcc>
  4119cc:	8fac0054 	lw	$t4,84($sp)
  4119d0:	8e440090 	lw	$a0,144($s2)
  4119d4:	00000000 	nop
  4119d8:	1080002e 	beqz	$a0,411a94 <_amallinfo+0x1ec>
  4119dc:	8fab005c 	lw	$t3,92($sp)
  4119e0:	8e420010 	lw	$v0,16($s2)
  4119e4:	00000000 	nop
  4119e8:	18400029 	blez	$v0,411a90 <_amallinfo+0x1e8>
  4119ec:	00029880 	sll	$s3,$v0,0x2
  4119f0:	00931821 	addu	$v1,$a0,$s3
  4119f4:	8c700000 	lw	$s0,0($v1)
  4119f8:	00000000 	nop
  4119fc:	12000020 	beqz	$s0,411a80 <_amallinfo+0x1d8>
  411a00:	00000000 	nop
  411a04:	8e110010 	lw	$s1,16($s0)
  411a08:	00000000 	nop
  411a0c:	26310004 	addiu	$s1,$s1,4
  411a10:	8faf005c 	lw	$t7,92($sp)
  411a14:	02402025 	move	$a0,$s2
  411a18:	25f80001 	addiu	$t8,$t7,1
  411a1c:	afb8005c 	sw	$t8,92($sp)
  411a20:	0c1046d7 	jal	411b5c <_amallinfo+0x2b4>
  411a24:	02002825 	move	$a1,$s0
  411a28:	8fa80068 	lw	$t0,104($sp)
  411a2c:	8faa0064 	lw	$t2,100($sp)
  411a30:	01024821 	addu	$t1,$t0,$v0
  411a34:	afa90068 	sw	$t1,104($sp)
  411a38:	8e4b0004 	lw	$t3,4($s2)
  411a3c:	8fae0058 	lw	$t6,88($sp)
  411a40:	01710019 	multu	$t3,$s1
  411a44:	00006012 	mflo	$t4
  411a48:	014c6821 	addu	$t5,$t2,$t4
  411a4c:	01a2c823 	subu	$t9,$t5,$v0
  411a50:	afb90064 	sw	$t9,100($sp)
  411a54:	8e4f0004 	lw	$t7,4($s2)
  411a58:	00000000 	nop
  411a5c:	01cfc021 	addu	$t8,$t6,$t7
  411a60:	afb80058 	sw	$t8,88($sp)
  411a64:	8e480090 	lw	$t0,144($s2)
  411a68:	8e100000 	lw	$s0,0($s0)
  411a6c:	01131821 	addu	$v1,$t0,$s3
  411a70:	8c690000 	lw	$t1,0($v1)
  411a74:	00000000 	nop
  411a78:	1609ffe6 	bne	$s0,$t1,411a14 <_amallinfo+0x16c>
  411a7c:	8faf005c 	lw	$t7,92($sp)
  411a80:	2673fffc 	addiu	$s3,$s3,-4
  411a84:	2a610004 	slti	$at,$s3,4
  411a88:	1020ffda 	beqz	$at,4119f4 <_amallinfo+0x14c>
  411a8c:	2463fffc 	addiu	$v1,$v1,-4
  411a90:	8fab005c 	lw	$t3,92($sp)
  411a94:	8fac0054 	lw	$t4,84($sp)
  411a98:	01740019 	multu	$t3,$s4
  411a9c:	018b6823 	subu	$t5,$t4,$t3
  411aa0:	8fae006c 	lw	$t6,108($sp)
  411aa4:	25b9ffff 	addiu	$t9,$t5,-1
  411aa8:	8fb80064 	lw	$t8,100($sp)
  411aac:	000b5140 	sll	$t2,$t3,0x5
  411ab0:	8fa90068 	lw	$t1,104($sp)
  411ab4:	8fad0074 	lw	$t5,116($sp)
  411ab8:	afb90054 	sw	$t9,84($sp)
  411abc:	01ca7823 	subu	$t7,$t6,$t2
  411ac0:	01f84023 	subu	$t0,$t7,$t8
  411ac4:	01096023 	subu	$t4,$t0,$t1
  411ac8:	0000c812 	mflo	$t9
  411acc:	01b97023 	subu	$t6,$t5,$t9
  411ad0:	afaa0060 	sw	$t2,96($sp)
  411ad4:	afac006c 	sw	$t4,108($sp)
  411ad8:	afae0074 	sw	$t6,116($sp)
  411adc:	8e44009c 	lw	$a0,156($s2)
  411ae0:	00000000 	nop
  411ae4:	10800006 	beqz	$a0,411b00 <_amallinfo+0x258>
  411ae8:	8fa30088 	lw	$v1,136($sp)
  411aec:	8f998b98 	lw	$t9,-29800($gp)
  411af0:	00000000 	nop
  411af4:	0320f809 	jalr	$t9
  411af8:	00000000 	nop
  411afc:	8fa30088 	lw	$v1,136($sp)
  411b00:	27aa0050 	addiu	$t2,$sp,80
  411b04:	25480024 	addiu	$t0,$t2,36
  411b08:	00604825 	move	$t1,$v1
  411b0c:	8d410000 	lw	$at,0($t2)
  411b10:	254a000c 	addiu	$t2,$t2,12
  411b14:	ad210000 	sw	$at,0($t1)
  411b18:	8d41fff8 	lw	$at,-8($t2)
  411b1c:	2529000c 	addiu	$t1,$t1,12
  411b20:	ad21fff8 	sw	$at,-8($t1)
  411b24:	8d41fffc 	lw	$at,-4($t2)
  411b28:	1548fff8 	bne	$t2,$t0,411b0c <_amallinfo+0x264>
  411b2c:	ad21fffc 	sw	$at,-4($t1)
  411b30:	8d410000 	lw	$at,0($t2)
  411b34:	00601025 	move	$v0,$v1
  411b38:	ad210000 	sw	$at,0($t1)
  411b3c:	8fbf002c 	lw	$ra,44($sp)
  411b40:	8fb40028 	lw	$s4,40($sp)
  411b44:	8fb30024 	lw	$s3,36($sp)
  411b48:	8fb20020 	lw	$s2,32($sp)
  411b4c:	8fb1001c 	lw	$s1,28($sp)
  411b50:	8fb00018 	lw	$s0,24($sp)
  411b54:	03e00008 	jr	$ra
  411b58:	27bd0088 	addiu	$sp,$sp,136
  411b5c:	afa40000 	sw	$a0,0($sp)
  411b60:	8cae0008 	lw	$t6,8($a1)
  411b64:	8ca40010 	lw	$a0,16($a1)
  411b68:	8caf000c 	lw	$t7,12($a1)
  411b6c:	2407fffd 	li	$a3,-3
  411b70:	01c71024 	and	$v0,$t6,$a3
  411b74:	00001825 	move	$v1,$zero
  411b78:	24840004 	addiu	$a0,$a0,4
  411b7c:	1040000a 	beqz	$v0,411ba8 <_amallinfo+0x300>
  411b80:	01e73024 	and	$a2,$t7,$a3
  411b84:	10460008 	beq	$v0,$a2,411ba8 <_amallinfo+0x300>
  411b88:	00000000 	nop
  411b8c:	8c580000 	lw	$t8,0($v0)
  411b90:	00641821 	addu	$v1,$v1,$a0
  411b94:	03071024 	and	$v0,$t8,$a3
  411b98:	10400003 	beqz	$v0,411ba8 <_amallinfo+0x300>
  411b9c:	00000000 	nop
  411ba0:	1446fffa 	bne	$v0,$a2,411b8c <_amallinfo+0x2e4>
  411ba4:	00000000 	nop
  411ba8:	8ca20014 	lw	$v0,20($a1)
  411bac:	24c60004 	addiu	$a2,$a2,4
  411bb0:	00a2c821 	addu	$t9,$a1,$v0
  411bb4:	00d9082a 	slt	$at,$a2,$t9
  411bb8:	10200003 	beqz	$at,411bc8 <_amallinfo+0x320>
  411bbc:	00654021 	addu	$t0,$v1,$a1
  411bc0:	01024821 	addu	$t1,$t0,$v0
  411bc4:	01261823 	subu	$v1,$t1,$a2
  411bc8:	03e00008 	jr	$ra
  411bcc:	00601025 	move	$v0,$v1

00411bd0 <__acheckq>:
  411bd0:	27bdffd8 	addiu	$sp,$sp,-40
  411bd4:	afb20020 	sw	$s2,32($sp)
  411bd8:	2483fff0 	addiu	$v1,$a0,-16
  411bdc:	00809025 	move	$s2,$a0
  411be0:	afbf0024 	sw	$ra,36($sp)
  411be4:	afb1001c 	sw	$s1,28($sp)
  411be8:	afb00018 	sw	$s0,24($sp)
  411bec:	10830005 	beq	$a0,$v1,411c04 <__acheckq+0x34>
  411bf0:	2482004c 	addiu	$v0,$a0,76
  411bf4:	8c420008 	lw	$v0,8($v0)
  411bf8:	264e005c 	addiu	$t6,$s2,92
  411bfc:	15c2fffd 	bne	$t6,$v0,411bf4 <__acheckq+0x24>
  411c00:	00000000 	nop
  411c04:	264f004c 	addiu	$t7,$s2,76
  411c08:	11e20005 	beq	$t7,$v0,411c20 <__acheckq+0x50>
  411c0c:	2648006c 	addiu	$t0,$s2,108
  411c10:	8c42000c 	lw	$v0,12($v0)
  411c14:	2658004c 	addiu	$t8,$s2,76
  411c18:	1702fffd 	bne	$t8,$v0,411c10 <__acheckq+0x40>
  411c1c:	00000000 	nop
  411c20:	12430005 	beq	$s2,$v1,411c38 <__acheckq+0x68>
  411c24:	2642006c 	addiu	$v0,$s2,108
  411c28:	8c420008 	lw	$v0,8($v0)
  411c2c:	2659007c 	addiu	$t9,$s2,124
  411c30:	1722fffd 	bne	$t9,$v0,411c28 <__acheckq+0x58>
  411c34:	00000000 	nop
  411c38:	11020005 	beq	$t0,$v0,411c50 <__acheckq+0x80>
  411c3c:	00000000 	nop
  411c40:	8c42000c 	lw	$v0,12($v0)
  411c44:	2649006c 	addiu	$t1,$s2,108
  411c48:	1522fffd 	bne	$t1,$v0,411c40 <__acheckq+0x70>
  411c4c:	00000000 	nop
  411c50:	8e4a003c 	lw	$t2,60($s2)
  411c54:	2403fffe 	li	$v1,-2
  411c58:	01432024 	and	$a0,$t2,$v1
  411c5c:	8c8b0000 	lw	$t3,0($a0)
  411c60:	264c003c 	addiu	$t4,$s2,60
  411c64:	01631024 	and	$v0,$t3,$v1
  411c68:	11820006 	beq	$t4,$v0,411c84 <__acheckq+0xb4>
  411c6c:	00000000 	nop
  411c70:	8c4d0000 	lw	$t5,0($v0)
  411c74:	264e003c 	addiu	$t6,$s2,60
  411c78:	01a31024 	and	$v0,$t5,$v1
  411c7c:	15c2fffc 	bne	$t6,$v0,411c70 <__acheckq+0xa0>
  411c80:	00000000 	nop
  411c84:	8e430090 	lw	$v1,144($s2)
  411c88:	00000000 	nop
  411c8c:	10600018 	beqz	$v1,411cf0 <__acheckq+0x120>
  411c90:	8fbf0024 	lw	$ra,36($sp)
  411c94:	8e440010 	lw	$a0,16($s2)
  411c98:	00000000 	nop
  411c9c:	18800013 	blez	$a0,411cec <__acheckq+0x11c>
  411ca0:	00048880 	sll	$s1,$a0,0x2
  411ca4:	00711021 	addu	$v0,$v1,$s1
  411ca8:	8c500000 	lw	$s0,0($v0)
  411cac:	00000000 	nop
  411cb0:	1200000a 	beqz	$s0,411cdc <__acheckq+0x10c>
  411cb4:	02402025 	move	$a0,$s2
  411cb8:	0c1046d7 	jal	411b5c <_amallinfo+0x2b4>
  411cbc:	02002825 	move	$a1,$s0
  411cc0:	8e4f0090 	lw	$t7,144($s2)
  411cc4:	8e100000 	lw	$s0,0($s0)
  411cc8:	01f11021 	addu	$v0,$t7,$s1
  411ccc:	8c580000 	lw	$t8,0($v0)
  411cd0:	00000000 	nop
  411cd4:	1618fff8 	bne	$s0,$t8,411cb8 <__acheckq+0xe8>
  411cd8:	02402025 	move	$a0,$s2
  411cdc:	2631fffc 	addiu	$s1,$s1,-4
  411ce0:	2a210004 	slti	$at,$s1,4
  411ce4:	1020fff0 	beqz	$at,411ca8 <__acheckq+0xd8>
  411ce8:	2442fffc 	addiu	$v0,$v0,-4
  411cec:	8fbf0024 	lw	$ra,36($sp)
  411cf0:	8fb00018 	lw	$s0,24($sp)
  411cf4:	8fb1001c 	lw	$s1,28($sp)
  411cf8:	8fb20020 	lw	$s2,32($sp)
  411cfc:	03e00008 	jr	$ra
  411d00:	27bd0028 	addiu	$sp,$sp,40

00411d04 <_amallocblksize>:
  411d04:	27bdffe0 	addiu	$sp,$sp,-32
  411d08:	afbf0014 	sw	$ra,20($sp)
  411d0c:	8ca6009c 	lw	$a2,156($a1)
  411d10:	00803825 	move	$a3,$a0
  411d14:	10c0000a 	beqz	$a2,411d40 <_amallocblksize+0x3c>
  411d18:	00001825 	move	$v1,$zero
  411d1c:	8f998b94 	lw	$t9,-29804($gp)
  411d20:	00c02025 	move	$a0,$a2
  411d24:	afa50024 	sw	$a1,36($sp)
  411d28:	0320f809 	jalr	$t9
  411d2c:	afa70020 	sw	$a3,32($sp)
  411d30:	8fa50024 	lw	$a1,36($sp)
  411d34:	8fa70020 	lw	$a3,32($sp)
  411d38:	10000001 	b	411d40 <_amallocblksize+0x3c>
  411d3c:	00401825 	move	$v1,$v0
  411d40:	10600011 	beqz	$v1,411d88 <_amallocblksize+0x84>
  411d44:	00e02025 	move	$a0,$a3
  411d48:	0c104768 	jal	411da0 <_amallocblksize+0x9c>
  411d4c:	afa50024 	sw	$a1,36($sp)
  411d50:	8fa50024 	lw	$a1,36($sp)
  411d54:	00401825 	move	$v1,$v0
  411d58:	8ca6009c 	lw	$a2,156($a1)
  411d5c:	00000000 	nop
  411d60:	10c00007 	beqz	$a2,411d80 <_amallocblksize+0x7c>
  411d64:	00000000 	nop
  411d68:	8f998b98 	lw	$t9,-29800($gp)
  411d6c:	00c02025 	move	$a0,$a2
  411d70:	0320f809 	jalr	$t9
  411d74:	afa20018 	sw	$v0,24($sp)
  411d78:	8fa30018 	lw	$v1,24($sp)
  411d7c:	00000000 	nop
  411d80:	10000003 	b	411d90 <_amallocblksize+0x8c>
  411d84:	00601025 	move	$v0,$v1
  411d88:	0c104768 	jal	411da0 <_amallocblksize+0x9c>
  411d8c:	00e02025 	move	$a0,$a3
  411d90:	8fbf0014 	lw	$ra,20($sp)
  411d94:	27bd0020 	addiu	$sp,$sp,32
  411d98:	03e00008 	jr	$ra
  411d9c:	00000000 	nop
  411da0:	14800003 	bnez	$a0,411db0 <_amallocblksize+0xac>
  411da4:	00000000 	nop
  411da8:	03e00008 	jr	$ra
  411dac:	00001025 	move	$v0,$zero
  411db0:	8c8efffc 	lw	$t6,-4($a0)
  411db4:	2498fffc 	addiu	$t8,$a0,-4
  411db8:	31cf0002 	andi	$t7,$t6,0x2
  411dbc:	11e0000c 	beqz	$t7,411df0 <_amallocblksize+0xec>
  411dc0:	2401fffe 	li	$at,-2
  411dc4:	0301c824 	and	$t9,$t8,$at
  411dc8:	8f220000 	lw	$v0,0($t9)
  411dcc:	2401fffc 	li	$at,-4
  411dd0:	30480001 	andi	$t0,$v0,0x1
  411dd4:	15000003 	bnez	$t0,411de4 <_amallocblksize+0xe0>
  411dd8:	00414824 	and	$t1,$v0,$at
  411ddc:	03e00008 	jr	$ra
  411de0:	00001025 	move	$v0,$zero
  411de4:	8d230010 	lw	$v1,16($t1)
  411de8:	1000000d 	b	411e20 <_amallocblksize+0x11c>
  411dec:	00601025 	move	$v0,$v1
  411df0:	8caa0008 	lw	$t2,8($a1)
  411df4:	2401fffe 	li	$at,-2
  411df8:	008a1023 	subu	$v0,$a0,$t2
  411dfc:	8c460000 	lw	$a2,0($v0)
  411e00:	00000000 	nop
  411e04:	30cb0001 	andi	$t3,$a2,0x1
  411e08:	15600003 	bnez	$t3,411e18 <_amallocblksize+0x114>
  411e0c:	00c16024 	and	$t4,$a2,$at
  411e10:	03e00008 	jr	$ra
  411e14:	00001025 	move	$v0,$zero
  411e18:	01841823 	subu	$v1,$t4,$a0
  411e1c:	00601025 	move	$v0,$v1
  411e20:	03e00008 	jr	$ra
  411e24:	00000000 	nop

00411e28 <_amemalign>:
  411e28:	27bdffe0 	addiu	$sp,$sp,-32
  411e2c:	afbf0014 	sw	$ra,20($sp)
  411e30:	afa40020 	sw	$a0,32($sp)
  411e34:	8cc7009c 	lw	$a3,156($a2)
  411e38:	00001825 	move	$v1,$zero
  411e3c:	10e00009 	beqz	$a3,411e64 <_amemalign+0x3c>
  411e40:	00e02025 	move	$a0,$a3
  411e44:	8f998b94 	lw	$t9,-29804($gp)
  411e48:	afa50024 	sw	$a1,36($sp)
  411e4c:	0320f809 	jalr	$t9
  411e50:	afa60028 	sw	$a2,40($sp)
  411e54:	8fa50024 	lw	$a1,36($sp)
  411e58:	8fa60028 	lw	$a2,40($sp)
  411e5c:	10000001 	b	411e64 <_amemalign+0x3c>
  411e60:	00401825 	move	$v1,$v0
  411e64:	10600013 	beqz	$v1,411eb4 <_amemalign+0x8c>
  411e68:	8fa40020 	lw	$a0,32($sp)
  411e6c:	8fa40020 	lw	$a0,32($sp)
  411e70:	0c1047b3 	jal	411ecc <_amemalign+0xa4>
  411e74:	afa60028 	sw	$a2,40($sp)
  411e78:	8fa60028 	lw	$a2,40($sp)
  411e7c:	00401825 	move	$v1,$v0
  411e80:	8cc7009c 	lw	$a3,156($a2)
  411e84:	00000000 	nop
  411e88:	10e00007 	beqz	$a3,411ea8 <_amemalign+0x80>
  411e8c:	00000000 	nop
  411e90:	8f998b98 	lw	$t9,-29800($gp)
  411e94:	00e02025 	move	$a0,$a3
  411e98:	0320f809 	jalr	$t9
  411e9c:	afa20018 	sw	$v0,24($sp)
  411ea0:	8fa30018 	lw	$v1,24($sp)
  411ea4:	00000000 	nop
  411ea8:	10000004 	b	411ebc <_amemalign+0x94>
  411eac:	00601025 	move	$v0,$v1
  411eb0:	8fa40020 	lw	$a0,32($sp)
  411eb4:	0c1047b3 	jal	411ecc <_amemalign+0xa4>
  411eb8:	00000000 	nop
  411ebc:	8fbf0014 	lw	$ra,20($sp)
  411ec0:	27bd0020 	addiu	$sp,$sp,32
  411ec4:	03e00008 	jr	$ra
  411ec8:	00000000 	nop
  411ecc:	27bdffb0 	addiu	$sp,$sp,-80
  411ed0:	afb00018 	sw	$s0,24($sp)
  411ed4:	00c08025 	move	$s0,$a2
  411ed8:	afbf001c 	sw	$ra,28($sp)
  411edc:	afa50054 	sw	$a1,84($sp)
  411ee0:	00803825 	move	$a3,$a0
  411ee4:	10a00006 	beqz	$a1,411f00 <_amemalign+0xd8>
  411ee8:	00a07025 	move	$t6,$a1
  411eec:	308f0003 	andi	$t7,$a0,0x3
  411ef0:	15e00003 	bnez	$t7,411f00 <_amemalign+0xd8>
  411ef4:	00000000 	nop
  411ef8:	14800005 	bnez	$a0,411f10 <_amemalign+0xe8>
  411efc:	2ce10011 	sltiu	$at,$a3,17
  411f00:	0c101ebd 	jal	407af4 <_setoserror>
  411f04:	24040016 	li	$a0,22
  411f08:	10000153 	b	412458 <_amemalign+0x630>
  411f0c:	00001025 	move	$v0,$zero
  411f10:	1020000d 	beqz	$at,411f48 <_amemalign+0x120>
  411f14:	24180010 	li	$t8,16
  411f18:	0307001b 	divu	$zero,$t8,$a3
  411f1c:	8fa40054 	lw	$a0,84($sp)
  411f20:	14e00002 	bnez	$a3,411f2c <_amemalign+0x104>
  411f24:	00000000 	nop
  411f28:	0007000d 	break	0x7
  411f2c:	0000c810 	mfhi	$t9
  411f30:	17200006 	bnez	$t9,411f4c <_amemalign+0x124>
  411f34:	8fa90054 	lw	$t1,84($sp)
  411f38:	0c104225 	jal	410894 <_arecalloc+0x9c>
  411f3c:	02002825 	move	$a1,$s0
  411f40:	10000146 	b	41245c <_amemalign+0x634>
  411f44:	8fbf001c 	lw	$ra,28($sp)
  411f48:	8fa90054 	lw	$t1,84($sp)
  411f4c:	2401fff0 	li	$at,-16
  411f50:	252a000f 	addiu	$t2,$t1,15
  411f54:	01415824 	and	$t3,$t2,$at
  411f58:	afab0054 	sw	$t3,84($sp)
  411f5c:	8e020014 	lw	$v0,20($s0)
  411f60:	02002825 	move	$a1,$s0
  411f64:	004b082b 	sltu	$at,$v0,$t3
  411f68:	14200002 	bnez	$at,411f74 <_amemalign+0x14c>
  411f6c:	244c0004 	addiu	$t4,$v0,4
  411f70:	afac0054 	sw	$t4,84($sp)
  411f74:	8fad0054 	lw	$t5,84($sp)
  411f78:	afa70050 	sw	$a3,80($sp)
  411f7c:	01a72021 	addu	$a0,$t5,$a3
  411f80:	0c104225 	jal	410894 <_arecalloc+0x9c>
  411f84:	24840020 	addiu	$a0,$a0,32
  411f88:	8fa70050 	lw	$a3,80($sp)
  411f8c:	8fa80054 	lw	$t0,84($sp)
  411f90:	14400003 	bnez	$v0,411fa0 <_amemalign+0x178>
  411f94:	afa20044 	sw	$v0,68($sp)
  411f98:	1000012f 	b	412458 <_amemalign+0x630>
  411f9c:	00001025 	move	$v0,$zero
  411fa0:	00477021 	addu	$t6,$v0,$a3
  411fa4:	25cfffff 	addiu	$t7,$t6,-1
  411fa8:	01e7001b 	divu	$zero,$t7,$a3
  411fac:	2401fffe 	li	$at,-2
  411fb0:	14e00002 	bnez	$a3,411fbc <_amemalign+0x194>
  411fb4:	00000000 	nop
  411fb8:	0007000d 	break	0x7
  411fbc:	0000c012 	mflo	$t8
	...
  411fc8:	03070019 	multu	$t8,$a3
  411fcc:	00002812 	mflo	$a1
  411fd0:	afa50040 	sw	$a1,64($sp)
  411fd4:	8e040008 	lw	$a0,8($s0)
  411fd8:	00000000 	nop
  411fdc:	0044c823 	subu	$t9,$v0,$a0
  411fe0:	afb90038 	sw	$t9,56($sp)
  411fe4:	8f230000 	lw	$v1,0($t9)
  411fe8:	03204825 	move	$t1,$t9
  411fec:	00615024 	and	$t2,$v1,$at
  411ff0:	14450096 	bne	$v0,$a1,41224c <_amemalign+0x424>
  411ff4:	01401825 	move	$v1,$t2
  411ff8:	01455823 	subu	$t3,$t2,$a1
  411ffc:	01686023 	subu	$t4,$t3,$t0
  412000:	2d810010 	sltiu	$at,$t4,16
  412004:	1420007b 	bnez	$at,4121f4 <_amemalign+0x3cc>
  412008:	00000000 	nop
  41200c:	00a82021 	addu	$a0,$a1,$t0
  412010:	ac8a0000 	sw	$t2,0($a0)
  412014:	8fad0038 	lw	$t5,56($sp)
  412018:	00000000 	nop
  41201c:	ac8d0004 	sw	$t5,4($a0)
  412020:	8d460000 	lw	$a2,0($t2)
  412024:	ad440004 	sw	$a0,4($t2)
  412028:	30ce0001 	andi	$t6,$a2,0x1
  41202c:	15c0000d 	bnez	$t6,412064 <_amemalign+0x23c>
  412030:	00000000 	nop
  412034:	8d4f0008 	lw	$t7,8($t2)
  412038:	8d58000c 	lw	$t8,12($t2)
  41203c:	00000000 	nop
  412040:	af0f0008 	sw	$t7,8($t8)
  412044:	8d59000c 	lw	$t9,12($t2)
  412048:	8d490008 	lw	$t1,8($t2)
  41204c:	00000000 	nop
  412050:	ad39000c 	sw	$t9,12($t1)
  412054:	ad40000c 	sw	$zero,12($t2)
  412058:	ad400008 	sw	$zero,8($t2)
  41205c:	ac860000 	sw	$a2,0($a0)
  412060:	acc40004 	sw	$a0,4($a2)
  412064:	8c8a0000 	lw	$t2,0($a0)
  412068:	8e0c0018 	lw	$t4,24($s0)
  41206c:	01445823 	subu	$t3,$t2,$a0
  412070:	016c082a 	slt	$at,$t3,$t4
  412074:	1420002f 	bnez	$at,412134 <_amemalign+0x30c>
  412078:	00000000 	nop
  41207c:	8e0d0024 	lw	$t5,36($s0)
  412080:	00000000 	nop
  412084:	11a00016 	beqz	$t5,4120e0 <_amemalign+0x2b8>
  412088:	00000000 	nop
  41208c:	8fae0044 	lw	$t6,68($sp)
  412090:	2604004c 	addiu	$a0,$s0,76
  412094:	01c77821 	addu	$t7,$t6,$a3
  412098:	25f8ffff 	addiu	$t8,$t7,-1
  41209c:	0307001b 	divu	$zero,$t8,$a3
  4120a0:	afa70050 	sw	$a3,80($sp)
  4120a4:	14e00002 	bnez	$a3,4120b0 <_amemalign+0x288>
  4120a8:	00000000 	nop
  4120ac:	0007000d 	break	0x7
  4120b0:	0000c812 	mflo	$t9
	...
  4120bc:	03270019 	multu	$t9,$a3
  4120c0:	00004812 	mflo	$t1
  4120c4:	01282821 	addu	$a1,$t1,$t0
  4120c8:	0c104582 	jal	411608 <_arealloc+0x32c>
  4120cc:	afa50024 	sw	$a1,36($sp)
  4120d0:	8fa50024 	lw	$a1,36($sp)
  4120d4:	8fa70050 	lw	$a3,80($sp)
  4120d8:	10000044 	b	4121ec <_amemalign+0x3c4>
  4120dc:	8fa90038 	lw	$t1,56($sp)
  4120e0:	8faa0044 	lw	$t2,68($sp)
  4120e4:	2604004c 	addiu	$a0,$s0,76
  4120e8:	01475821 	addu	$t3,$t2,$a3
  4120ec:	256cffff 	addiu	$t4,$t3,-1
  4120f0:	0187001b 	divu	$zero,$t4,$a3
  4120f4:	afa70050 	sw	$a3,80($sp)
  4120f8:	14e00002 	bnez	$a3,412104 <_amemalign+0x2dc>
  4120fc:	00000000 	nop
  412100:	0007000d 	break	0x7
  412104:	00006812 	mflo	$t5
	...
  412110:	01a70019 	multu	$t5,$a3
  412114:	00007012 	mflo	$t6
  412118:	01c82821 	addu	$a1,$t6,$t0
  41211c:	0c104579 	jal	4115e4 <_arealloc+0x308>
  412120:	afa50024 	sw	$a1,36($sp)
  412124:	8fa50024 	lw	$a1,36($sp)
  412128:	8fa70050 	lw	$a3,80($sp)
  41212c:	1000002f 	b	4121ec <_amemalign+0x3c4>
  412130:	8fa90038 	lw	$t1,56($sp)
  412134:	8e0f0024 	lw	$t7,36($s0)
  412138:	00000000 	nop
  41213c:	11e00016 	beqz	$t7,412198 <_amemalign+0x370>
  412140:	00000000 	nop
  412144:	8fb80044 	lw	$t8,68($sp)
  412148:	2604006c 	addiu	$a0,$s0,108
  41214c:	0307c821 	addu	$t9,$t8,$a3
  412150:	2729ffff 	addiu	$t1,$t9,-1
  412154:	0127001b 	divu	$zero,$t1,$a3
  412158:	afa70050 	sw	$a3,80($sp)
  41215c:	14e00002 	bnez	$a3,412168 <_amemalign+0x340>
  412160:	00000000 	nop
  412164:	0007000d 	break	0x7
  412168:	00005012 	mflo	$t2
	...
  412174:	01470019 	multu	$t2,$a3
  412178:	00005812 	mflo	$t3
  41217c:	01682821 	addu	$a1,$t3,$t0
  412180:	0c104582 	jal	411608 <_arealloc+0x32c>
  412184:	afa50024 	sw	$a1,36($sp)
  412188:	8fa50024 	lw	$a1,36($sp)
  41218c:	8fa70050 	lw	$a3,80($sp)
  412190:	10000016 	b	4121ec <_amemalign+0x3c4>
  412194:	8fa90038 	lw	$t1,56($sp)
  412198:	8fac0044 	lw	$t4,68($sp)
  41219c:	2604006c 	addiu	$a0,$s0,108
  4121a0:	01876821 	addu	$t5,$t4,$a3
  4121a4:	25aeffff 	addiu	$t6,$t5,-1
  4121a8:	01c7001b 	divu	$zero,$t6,$a3
  4121ac:	afa70050 	sw	$a3,80($sp)
  4121b0:	14e00002 	bnez	$a3,4121bc <_amemalign+0x394>
  4121b4:	00000000 	nop
  4121b8:	0007000d 	break	0x7
  4121bc:	00007812 	mflo	$t7
	...
  4121c8:	01e70019 	multu	$t7,$a3
  4121cc:	0000c012 	mflo	$t8
  4121d0:	03082821 	addu	$a1,$t8,$t0
  4121d4:	0c104579 	jal	4115e4 <_arealloc+0x308>
  4121d8:	afa50024 	sw	$a1,36($sp)
  4121dc:	8fa50024 	lw	$a1,36($sp)
  4121e0:	8fa70050 	lw	$a3,80($sp)
  4121e4:	00000000 	nop
  4121e8:	8fa90038 	lw	$t1,56($sp)
  4121ec:	34b90001 	ori	$t9,$a1,0x1
  4121f0:	ad390000 	sw	$t9,0($t1)
  4121f4:	8faa0044 	lw	$t2,68($sp)
  4121f8:	8e0e0094 	lw	$t6,148($s0)
  4121fc:	01475821 	addu	$t3,$t2,$a3
  412200:	256cffff 	addiu	$t4,$t3,-1
  412204:	0187001b 	divu	$zero,$t4,$a3
  412208:	02002025 	move	$a0,$s0
  41220c:	14e00002 	bnez	$a3,412218 <_amemalign+0x3f0>
  412210:	00000000 	nop
  412214:	0007000d 	break	0x7
  412218:	00006812 	mflo	$t5
	...
  412224:	01a70019 	multu	$t5,$a3
  412228:	00001812 	mflo	$v1
  41222c:	11c00005 	beqz	$t6,412244 <_amemalign+0x41c>
  412230:	00000000 	nop
  412234:	0c1046f4 	jal	411bd0 <__acheckq>
  412238:	afa30024 	sw	$v1,36($sp)
  41223c:	8fa30024 	lw	$v1,36($sp)
  412240:	00000000 	nop
  412244:	10000084 	b	412458 <_amemalign+0x630>
  412248:	00601025 	move	$v0,$v1
  41224c:	00a27823 	subu	$t7,$a1,$v0
  412250:	2de10010 	sltiu	$at,$t7,16
  412254:	10200002 	beqz	$at,412260 <_amemalign+0x438>
  412258:	00a7c021 	addu	$t8,$a1,$a3
  41225c:	afb80040 	sw	$t8,64($sp)
  412260:	8fb90040 	lw	$t9,64($sp)
  412264:	2401fff0 	li	$at,-16
  412268:	03243823 	subu	$a3,$t9,$a0
  41226c:	ace0000c 	sw	$zero,12($a3)
  412270:	8fa60040 	lw	$a2,64($sp)
  412274:	00000000 	nop
  412278:	24c6000f 	addiu	$a2,$a2,15
  41227c:	00c14824 	and	$t1,$a2,$at
  412280:	00695023 	subu	$t2,$v1,$t1
  412284:	01485823 	subu	$t3,$t2,$t0
  412288:	2d610010 	sltiu	$at,$t3,16
  41228c:	14200042 	bnez	$at,412398 <_amemalign+0x570>
  412290:	01282821 	addu	$a1,$t1,$t0
  412294:	aca30000 	sw	$v1,0($a1)
  412298:	aca70004 	sw	$a3,4($a1)
  41229c:	8c620000 	lw	$v0,0($v1)
  4122a0:	ac650004 	sw	$a1,4($v1)
  4122a4:	304c0001 	andi	$t4,$v0,0x1
  4122a8:	1580000d 	bnez	$t4,4122e0 <_amemalign+0x4b8>
  4122ac:	00000000 	nop
  4122b0:	8c6d0008 	lw	$t5,8($v1)
  4122b4:	8c6e000c 	lw	$t6,12($v1)
  4122b8:	00000000 	nop
  4122bc:	adcd0008 	sw	$t5,8($t6)
  4122c0:	8c6f000c 	lw	$t7,12($v1)
  4122c4:	8c780008 	lw	$t8,8($v1)
  4122c8:	00000000 	nop
  4122cc:	af0f000c 	sw	$t7,12($t8)
  4122d0:	ac60000c 	sw	$zero,12($v1)
  4122d4:	ac600008 	sw	$zero,8($v1)
  4122d8:	aca20000 	sw	$v0,0($a1)
  4122dc:	ac450004 	sw	$a1,4($v0)
  4122e0:	8cb90000 	lw	$t9,0($a1)
  4122e4:	8e0a0018 	lw	$t2,24($s0)
  4122e8:	03254823 	subu	$t1,$t9,$a1
  4122ec:	012a082a 	slt	$at,$t1,$t2
  4122f0:	14200014 	bnez	$at,412344 <_amemalign+0x51c>
  4122f4:	00000000 	nop
  4122f8:	8e0b0024 	lw	$t3,36($s0)
  4122fc:	2604004c 	addiu	$a0,$s0,76
  412300:	11600009 	beqz	$t3,412328 <_amemalign+0x500>
  412304:	00000000 	nop
  412308:	2604004c 	addiu	$a0,$s0,76
  41230c:	afa50024 	sw	$a1,36($sp)
  412310:	0c104582 	jal	411608 <_arealloc+0x32c>
  412314:	afa7003c 	sw	$a3,60($sp)
  412318:	8fa50024 	lw	$a1,36($sp)
  41231c:	8fa7003c 	lw	$a3,60($sp)
  412320:	1000001b 	b	412390 <_amemalign+0x568>
  412324:	34ad0001 	ori	$t5,$a1,0x1
  412328:	afa50024 	sw	$a1,36($sp)
  41232c:	0c104579 	jal	4115e4 <_arealloc+0x308>
  412330:	afa7003c 	sw	$a3,60($sp)
  412334:	8fa50024 	lw	$a1,36($sp)
  412338:	8fa7003c 	lw	$a3,60($sp)
  41233c:	10000014 	b	412390 <_amemalign+0x568>
  412340:	34ad0001 	ori	$t5,$a1,0x1
  412344:	8e0c0024 	lw	$t4,36($s0)
  412348:	2604006c 	addiu	$a0,$s0,108
  41234c:	11800009 	beqz	$t4,412374 <_amemalign+0x54c>
  412350:	00000000 	nop
  412354:	2604006c 	addiu	$a0,$s0,108
  412358:	afa50024 	sw	$a1,36($sp)
  41235c:	0c104582 	jal	411608 <_arealloc+0x32c>
  412360:	afa7003c 	sw	$a3,60($sp)
  412364:	8fa50024 	lw	$a1,36($sp)
  412368:	8fa7003c 	lw	$a3,60($sp)
  41236c:	10000008 	b	412390 <_amemalign+0x568>
  412370:	34ad0001 	ori	$t5,$a1,0x1
  412374:	afa50024 	sw	$a1,36($sp)
  412378:	0c104579 	jal	4115e4 <_arealloc+0x308>
  41237c:	afa7003c 	sw	$a3,60($sp)
  412380:	8fa50024 	lw	$a1,36($sp)
  412384:	8fa7003c 	lw	$a3,60($sp)
  412388:	00000000 	nop
  41238c:	34ad0001 	ori	$t5,$a1,0x1
  412390:	10000007 	b	4123b0 <_amemalign+0x588>
  412394:	aced0000 	sw	$t5,0($a3)
  412398:	ac670004 	sw	$a3,4($v1)
  41239c:	8fae0038 	lw	$t6,56($sp)
  4123a0:	00000000 	nop
  4123a4:	8dcf0000 	lw	$t7,0($t6)
  4123a8:	00000000 	nop
  4123ac:	acef0000 	sw	$t7,0($a3)
  4123b0:	8fb80038 	lw	$t8,56($sp)
  4123b4:	2401fffe 	li	$at,-2
  4123b8:	acf80004 	sw	$t8,4($a3)
  4123bc:	8fb90038 	lw	$t9,56($sp)
  4123c0:	00e11024 	and	$v0,$a3,$at
  4123c4:	af220000 	sw	$v0,0($t9)
  4123c8:	8e0a0018 	lw	$t2,24($s0)
  4123cc:	00594823 	subu	$t1,$v0,$t9
  4123d0:	012a082a 	slt	$at,$t1,$t2
  4123d4:	1420000d 	bnez	$at,41240c <_amemalign+0x5e4>
  4123d8:	00000000 	nop
  4123dc:	8e0b0024 	lw	$t3,36($s0)
  4123e0:	8fa50038 	lw	$a1,56($sp)
  4123e4:	11600005 	beqz	$t3,4123fc <_amemalign+0x5d4>
  4123e8:	2604004c 	addiu	$a0,$s0,76
  4123ec:	0c104582 	jal	411608 <_arealloc+0x32c>
  4123f0:	03202825 	move	$a1,$t9
  4123f4:	10000011 	b	41243c <_amemalign+0x614>
  4123f8:	8e0d0094 	lw	$t5,148($s0)
  4123fc:	0c104579 	jal	4115e4 <_arealloc+0x308>
  412400:	00000000 	nop
  412404:	1000000d 	b	41243c <_amemalign+0x614>
  412408:	8e0d0094 	lw	$t5,148($s0)
  41240c:	8e0c0024 	lw	$t4,36($s0)
  412410:	8fa50038 	lw	$a1,56($sp)
  412414:	11800006 	beqz	$t4,412430 <_amemalign+0x608>
  412418:	2604006c 	addiu	$a0,$s0,108
  41241c:	8fa50038 	lw	$a1,56($sp)
  412420:	0c104582 	jal	411608 <_arealloc+0x32c>
  412424:	00000000 	nop
  412428:	10000004 	b	41243c <_amemalign+0x614>
  41242c:	8e0d0094 	lw	$t5,148($s0)
  412430:	0c104579 	jal	4115e4 <_arealloc+0x308>
  412434:	00000000 	nop
  412438:	8e0d0094 	lw	$t5,148($s0)
  41243c:	00000000 	nop
  412440:	11a00004 	beqz	$t5,412454 <_amemalign+0x62c>
  412444:	8fa20040 	lw	$v0,64($sp)
  412448:	0c1046f4 	jal	411bd0 <__acheckq>
  41244c:	02002025 	move	$a0,$s0
  412450:	8fa20040 	lw	$v0,64($sp)
  412454:	00000000 	nop
  412458:	8fbf001c 	lw	$ra,28($sp)
  41245c:	8fb00018 	lw	$s0,24($sp)
  412460:	03e00008 	jr	$ra
  412464:	27bd0050 	addiu	$sp,$sp,80
	...
  412470:	8c820008 	lw	$v0,8($a0)
  412474:	03e00008 	jr	$ra
  412478:	00000000 	nop

0041247c <_usr4klocks_init>:
  41247c:	3c0e0040 	lui	$t6,0x40
  412480:	3c0f0040 	lui	$t7,0x40
  412484:	3c180040 	lui	$t8,0x40
  412488:	3c190040 	lui	$t9,0x40
  41248c:	3c080040 	lui	$t0,0x40
  412490:	25ce7e30 	addiu	$t6,$t6,32304
  412494:	25ef7f90 	addiu	$t7,$t7,32656
  412498:	27187c3c 	addiu	$t8,$t8,31804
  41249c:	27397ba0 	addiu	$t9,$t9,31648
  4124a0:	25087d60 	addiu	$t0,$t0,32096
  4124a4:	24010002 	li	$at,2
  4124a8:	afa40000 	sw	$a0,0($sp)
  4124ac:	af8e8bb4 	sw	$t6,-29772($gp)
  4124b0:	af8f8bb8 	sw	$t7,-29768($gp)
  4124b4:	af988b9c 	sw	$t8,-29796($gp)
  4124b8:	af998ba0 	sw	$t9,-29792($gp)
  4124bc:	14a10011 	bne	$a1,$at,412504 <_usr4klocks_init+0x88>
  4124c0:	af888ba4 	sw	$t0,-29788($gp)
  4124c4:	3c090042 	lui	$t1,0x42
  4124c8:	3c0a0042 	lui	$t2,0x42
  4124cc:	3c0b0042 	lui	$t3,0x42
  4124d0:	3c0c0040 	lui	$t4,0x40
  4124d4:	3c0d0040 	lui	$t5,0x40
  4124d8:	25299090 	addiu	$t1,$t1,-28528
  4124dc:	254a91d0 	addiu	$t2,$t2,-28208
  4124e0:	256b9154 	addiu	$t3,$t3,-28332
  4124e4:	258c7de4 	addiu	$t4,$t4,32228
  4124e8:	25ad7e08 	addiu	$t5,$t5,32264
  4124ec:	af898b94 	sw	$t1,-29804($gp)
  4124f0:	af8a8b98 	sw	$t2,-29800($gp)
  4124f4:	af8b8bac 	sw	$t3,-29780($gp)
  4124f8:	af8c8ba8 	sw	$t4,-29784($gp)
  4124fc:	10000016 	b	412558 <_usr4klocks_init+0xdc>
  412500:	af8d8bb0 	sw	$t5,-29776($gp)
  412504:	3c0e0042 	lui	$t6,0x42
  412508:	3c0f0042 	lui	$t7,0x42
  41250c:	3c180042 	lui	$t8,0x42
  412510:	3c190042 	lui	$t9,0x42
  412514:	3c080041 	lui	$t0,0x41
  412518:	3c090042 	lui	$t1,0x42
  41251c:	3c0a0042 	lui	$t2,0x42
  412520:	25ce938c 	addiu	$t6,$t6,-27764
  412524:	25ef9484 	addiu	$t7,$t7,-27516
  412528:	27189430 	addiu	$t8,$t8,-27600
  41252c:	27399310 	addiu	$t9,$t9,-27888
  412530:	25082470 	addiu	$t0,$t0,9328
  412534:	252992e8 	addiu	$t1,$t1,-27928
  412538:	254a9308 	addiu	$t2,$t2,-27896
  41253c:	af8e8b94 	sw	$t6,-29804($gp)
  412540:	af8f8b98 	sw	$t7,-29800($gp)
  412544:	af988bac 	sw	$t8,-29780($gp)
  412548:	af998ba8 	sw	$t9,-29784($gp)
  41254c:	af888bb0 	sw	$t0,-29776($gp)
  412550:	af898bc4 	sw	$t1,-29756($gp)
  412554:	af8a8bc8 	sw	$t2,-29752($gp)
  412558:	3c020042 	lui	$v0,0x42
  41255c:	244292c8 	addiu	$v0,$v0,-27960
  412560:	24010005 	li	$at,5
  412564:	af828bbc 	sw	$v0,-29764($gp)
  412568:	14a10008 	bne	$a1,$at,41258c <_usr4klocks_init+0x110>
  41256c:	af828bc0 	sw	$v0,-29760($gp)
  412570:	3c020041 	lui	$v0,0x41
  412574:	3c0b0041 	lui	$t3,0x41
  412578:	2442261c 	addiu	$v0,$v0,9756
  41257c:	256b2698 	addiu	$t3,$t3,9880
  412580:	af8b8bc4 	sw	$t3,-29756($gp)
  412584:	af828bbc 	sw	$v0,-29764($gp)
  412588:	af828bc0 	sw	$v0,-29760($gp)
  41258c:	03e00008 	jr	$ra
  412590:	00000000 	nop

00412594 <_r4k_llwarinit>:
  412594:	248504e3 	addiu	$a1,$a0,1251
  412598:	2401ff80 	li	$at,-128
  41259c:	00a17024 	and	$t6,$a1,$at
  4125a0:	27bdffd8 	addiu	$sp,$sp,-40
  4125a4:	25c30080 	addiu	$v1,$t6,128
  4125a8:	0064c023 	subu	$t8,$v1,$a0
  4125ac:	afbf0024 	sw	$ra,36($sp)
  4125b0:	afb00020 	sw	$s0,32($sp)
  4125b4:	24630080 	addiu	$v1,$v1,128
  4125b8:	0064c823 	subu	$t9,$v1,$a0
  4125bc:	24630080 	addiu	$v1,$v1,128
  4125c0:	00644023 	subu	$t0,$v1,$a0
  4125c4:	01c47823 	subu	$t7,$t6,$a0
  4125c8:	ac880460 	sw	$t0,1120($a0)
  4125cc:	ac99045c 	sw	$t9,1116($a0)
  4125d0:	ac980458 	sw	$t8,1112($a0)
  4125d4:	ac8f0454 	sw	$t7,1108($a0)
  4125d8:	8f89af30 	lw	$t1,-20688($gp)
  4125dc:	00808025 	move	$s0,$a0
  4125e0:	1120000a 	beqz	$t1,41260c <_r4k_llwarinit+0x78>
  4125e4:	00002025 	move	$a0,$zero
  4125e8:	8e0a045c 	lw	$t2,1116($s0)
  4125ec:	8e060454 	lw	$a2,1108($s0)
  4125f0:	8e070458 	lw	$a3,1112($s0)
  4125f4:	afaa0010 	sw	$t2,16($sp)
  4125f8:	8e0b0460 	lw	$t3,1120($s0)
  4125fc:	3c050042 	lui	$a1,0x42
  412600:	24a5c6b0 	addiu	$a1,$a1,-14672
  412604:	0c103f10 	jal	40fc40 <_uprint>
  412608:	afab0014 	sw	$t3,20($sp)
  41260c:	8fbf0024 	lw	$ra,36($sp)
  412610:	8fb00020 	lw	$s0,32($sp)
  412614:	03e00008 	jr	$ra
  412618:	27bd0028 	addiu	$sp,$sp,40
  41261c:	27bdffe0 	addiu	$sp,$sp,-32
  412620:	00047883 	sra	$t7,$a0,0x2
  412624:	31f80003 	andi	$t8,$t7,0x3
  412628:	0018c880 	sll	$t9,$t8,0x2
  41262c:	afbf0014 	sw	$ra,20($sp)
  412630:	afa40020 	sw	$a0,32($sp)
  412634:	afa50024 	sw	$a1,36($sp)
  412638:	afa60028 	sw	$a2,40($sp)
  41263c:	00f94021 	addu	$t0,$a3,$t9
  412640:	8d040454 	lw	$a0,1108($t0)
  412644:	3c090020 	lui	$t1,0x20
  412648:	8d250e00 	lw	$a1,3584($t1)
  41264c:	00872021 	addu	$a0,$a0,$a3
  412650:	0c10652b 	jal	4194ac <_r4kmpllwar_grablock>
  412654:	afa40018 	sw	$a0,24($sp)
  412658:	8fa30020 	lw	$v1,32($sp)
  41265c:	8faa0024 	lw	$t2,36($sp)
  412660:	8c6b0000 	lw	$t3,0($v1)
  412664:	8fa40018 	lw	$a0,24($sp)
  412668:	154b0006 	bne	$t2,$t3,412684 <_r4k_llwarinit+0xf0>
  41266c:	00001025 	move	$v0,$zero
  412670:	8fac0028 	lw	$t4,40($sp)
  412674:	24020001 	li	$v0,1
  412678:	ac6c0000 	sw	$t4,0($v1)
  41267c:	10000002 	b	412688 <_r4k_llwarinit+0xf4>
  412680:	ac800000 	sw	$zero,0($a0)
  412684:	ac800000 	sw	$zero,0($a0)
  412688:	8fbf0014 	lw	$ra,20($sp)
  41268c:	27bd0020 	addiu	$sp,$sp,32
  412690:	03e00008 	jr	$ra
  412694:	00000000 	nop
  412698:	27bdffe0 	addiu	$sp,$sp,-32
  41269c:	00803025 	move	$a2,$a0
  4126a0:	afbf0014 	sw	$ra,20($sp)
  4126a4:	00067083 	sra	$t6,$a2,0x2
  4126a8:	8cc20000 	lw	$v0,0($a2)
  4126ac:	31cf0003 	andi	$t7,$t6,0x3
  4126b0:	000fc080 	sll	$t8,$t7,0x2
  4126b4:	0058c821 	addu	$t9,$v0,$t8
  4126b8:	8f240454 	lw	$a0,1108($t9)
  4126bc:	3c080020 	lui	$t0,0x20
  4126c0:	8d050e00 	lw	$a1,3584($t0)
  4126c4:	00822021 	addu	$a0,$a0,$v0
  4126c8:	afa40018 	sw	$a0,24($sp)
  4126cc:	0c10652b 	jal	4194ac <_r4kmpllwar_grablock>
  4126d0:	afa60020 	sw	$a2,32($sp)
  4126d4:	8fa60020 	lw	$a2,32($sp)
  4126d8:	8fa40018 	lw	$a0,24($sp)
  4126dc:	8cc90008 	lw	$t1,8($a2)
  4126e0:	240a0001 	li	$t2,1
  4126e4:	11200004 	beqz	$t1,4126f8 <_r4k_llwarinit+0x164>
  4126e8:	00001025 	move	$v0,$zero
  4126ec:	ac800000 	sw	$zero,0($a0)
  4126f0:	10000003 	b	412700 <_r4k_llwarinit+0x16c>
  4126f4:	24020001 	li	$v0,1
  4126f8:	acca0008 	sw	$t2,8($a2)
  4126fc:	ac800000 	sw	$zero,0($a0)
  412700:	8fbf0014 	lw	$ra,20($sp)
  412704:	27bd0020 	addiu	$sp,$sp,32
  412708:	03e00008 	jr	$ra
  41270c:	00000000 	nop

00412710 <_syncinit>:
  412710:	27bdffe8 	addiu	$sp,$sp,-24
  412714:	24010002 	li	$at,2
  412718:	10810048 	beq	$a0,$at,41283c <_syncinit+0x12c>
  41271c:	afbf0014 	sw	$ra,20($sp)
  412720:	24010004 	li	$at,4
  412724:	10810045 	beq	$a0,$at,41283c <_syncinit+0x12c>
  412728:	24010006 	li	$at,6
  41272c:	10810043 	beq	$a0,$at,41283c <_syncinit+0x12c>
  412730:	24010007 	li	$at,7
  412734:	10810041 	beq	$a0,$at,41283c <_syncinit+0x12c>
  412738:	24010005 	li	$at,5
  41273c:	1081003f 	beq	$a0,$at,41283c <_syncinit+0x12c>
  412740:	3c020020 	lui	$v0,0x20
  412744:	3c0e0041 	lui	$t6,0x41
  412748:	3c0f0041 	lui	$t7,0x41
  41274c:	3c180041 	lui	$t8,0x41
  412750:	3c190041 	lui	$t9,0x41
  412754:	3c080041 	lui	$t0,0x41
  412758:	3c090041 	lui	$t1,0x41
  41275c:	3c0a0041 	lui	$t2,0x41
  412760:	3c0b0041 	lui	$t3,0x41
  412764:	3c0c0041 	lui	$t4,0x41
  412768:	3c0d0041 	lui	$t5,0x41
  41276c:	25ced920 	addiu	$t6,$t6,-9952
  412770:	25efdb98 	addiu	$t7,$t7,-9320
  412774:	2718d930 	addiu	$t8,$t8,-9936
  412778:	2739d954 	addiu	$t9,$t9,-9900
  41277c:	2508d9f0 	addiu	$t0,$t0,-9744
  412780:	2529da20 	addiu	$t1,$t1,-9696
  412784:	254ad974 	addiu	$t2,$t2,-9868
  412788:	256bd980 	addiu	$t3,$t3,-9856
  41278c:	258cda5c 	addiu	$t4,$t4,-9636
  412790:	25adda98 	addiu	$t5,$t5,-9576
  412794:	ac4e0e18 	sw	$t6,3608($v0)
  412798:	ac4f0e1c 	sw	$t7,3612($v0)
  41279c:	ac580e20 	sw	$t8,3616($v0)
  4127a0:	ac590e24 	sw	$t9,3620($v0)
  4127a4:	ac480e4c 	sw	$t0,3660($v0)
  4127a8:	ac490e50 	sw	$t1,3664($v0)
  4127ac:	ac4a0e28 	sw	$t2,3624($v0)
  4127b0:	ac4b0e2c 	sw	$t3,3628($v0)
  4127b4:	ac4c0e30 	sw	$t4,3632($v0)
  4127b8:	ac4d0e34 	sw	$t5,3636($v0)
  4127bc:	3c0e0041 	lui	$t6,0x41
  4127c0:	3c0f0041 	lui	$t7,0x41
  4127c4:	3c180041 	lui	$t8,0x41
  4127c8:	3c190041 	lui	$t9,0x41
  4127cc:	3c080041 	lui	$t0,0x41
  4127d0:	3c090041 	lui	$t1,0x41
  4127d4:	3c0a0041 	lui	$t2,0x41
  4127d8:	3c0b0041 	lui	$t3,0x41
  4127dc:	3c0c0041 	lui	$t4,0x41
  4127e0:	3c0d0041 	lui	$t5,0x41
  4127e4:	25cedab4 	addiu	$t6,$t6,-9548
  4127e8:	25efdac0 	addiu	$t7,$t7,-9536
  4127ec:	2718db48 	addiu	$t8,$t8,-9400
  4127f0:	2739db30 	addiu	$t9,$t9,-9424
  4127f4:	2508db48 	addiu	$t0,$t0,-9400
  4127f8:	2529db8c 	addiu	$t1,$t1,-9332
  4127fc:	254adb58 	addiu	$t2,$t2,-9384
  412800:	256bdb80 	addiu	$t3,$t3,-9344
  412804:	258cdb5c 	addiu	$t4,$t4,-9380
  412808:	25addb6c 	addiu	$t5,$t5,-9364
  41280c:	ac4e0e38 	sw	$t6,3640($v0)
  412810:	ac4f0e3c 	sw	$t7,3644($v0)
  412814:	ac580e48 	sw	$t8,3656($v0)
  412818:	ac590e40 	sw	$t9,3648($v0)
  41281c:	ac480e44 	sw	$t0,3652($v0)
  412820:	ac490e5c 	sw	$t1,3676($v0)
  412824:	ac4a0e54 	sw	$t2,3668($v0)
  412828:	ac4b0e58 	sw	$t3,3672($v0)
  41282c:	ac4c0e60 	sw	$t4,3680($v0)
  412830:	ac4d0e64 	sw	$t5,3684($v0)
  412834:	0c10156c 	jal	4055b0 <_prctl>
  412838:	24040007 	li	$a0,7
  41283c:	8fbf0014 	lw	$ra,20($sp)
  412840:	27bd0018 	addiu	$sp,$sp,24
  412844:	03e00008 	jr	$ra
	...

00412850 <_usfreadlock>:
  412850:	27bdffa8 	addiu	$sp,$sp,-88
  412854:	afb50028 	sw	$s5,40($sp)
  412858:	afb40024 	sw	$s4,36($sp)
  41285c:	afb30020 	sw	$s3,32($sp)
  412860:	afb2001c 	sw	$s2,28($sp)
  412864:	afb10018 	sw	$s1,24($sp)
  412868:	00808825 	move	$s1,$a0
  41286c:	00a09025 	move	$s2,$a1
  412870:	afbf002c 	sw	$ra,44($sp)
  412874:	afb00014 	sw	$s0,20($sp)
  412878:	27b30034 	addiu	$s3,$sp,52
  41287c:	24140004 	li	$s4,4
  412880:	2415ffff 	li	$s5,-1
  412884:	240e0001 	li	$t6,1
  412888:	240f0001 	li	$t7,1
  41288c:	a7ae0034 	sh	$t6,52($sp)
  412890:	a7a00036 	sh	$zero,54($sp)
  412894:	afb10038 	sw	$s1,56($sp)
  412898:	afaf003c 	sw	$t7,60($sp)
  41289c:	02402025 	move	$a0,$s2
  4128a0:	24050007 	li	$a1,7
  4128a4:	0c103290 	jal	40ca40 <_fcntl>
  4128a8:	02603025 	move	$a2,$s3
  4128ac:	14550005 	bne	$v0,$s5,4128c4 <_usfreadlock+0x74>
  4128b0:	00408025 	move	$s0,$v0
  4128b4:	0c101eb8 	jal	407ae0 <_oserror>
  4128b8:	00000000 	nop
  4128bc:	1054fff2 	beq	$v0,$s4,412888 <_usfreadlock+0x38>
  4128c0:	240e0001 	li	$t6,1
  4128c4:	16150003 	bne	$s0,$s5,4128d4 <_usfreadlock+0x84>
  4128c8:	00001025 	move	$v0,$zero
  4128cc:	10000001 	b	4128d4 <_usfreadlock+0x84>
  4128d0:	2402ffff 	li	$v0,-1
  4128d4:	8fbf002c 	lw	$ra,44($sp)
  4128d8:	8fb00014 	lw	$s0,20($sp)
  4128dc:	8fb10018 	lw	$s1,24($sp)
  4128e0:	8fb2001c 	lw	$s2,28($sp)
  4128e4:	8fb30020 	lw	$s3,32($sp)
  4128e8:	8fb40024 	lw	$s4,36($sp)
  4128ec:	8fb50028 	lw	$s5,40($sp)
  4128f0:	03e00008 	jr	$ra
  4128f4:	27bd0058 	addiu	$sp,$sp,88

004128f8 <_usfsplock>:
  4128f8:	27bdffa8 	addiu	$sp,$sp,-88
  4128fc:	afb50028 	sw	$s5,40($sp)
  412900:	afb40024 	sw	$s4,36($sp)
  412904:	afb30020 	sw	$s3,32($sp)
  412908:	afb2001c 	sw	$s2,28($sp)
  41290c:	afb10018 	sw	$s1,24($sp)
  412910:	00808825 	move	$s1,$a0
  412914:	00a09025 	move	$s2,$a1
  412918:	afbf002c 	sw	$ra,44($sp)
  41291c:	afb00014 	sw	$s0,20($sp)
  412920:	27b30034 	addiu	$s3,$sp,52
  412924:	24140004 	li	$s4,4
  412928:	2415ffff 	li	$s5,-1
  41292c:	240e0002 	li	$t6,2
  412930:	240f0001 	li	$t7,1
  412934:	a7ae0034 	sh	$t6,52($sp)
  412938:	a7a00036 	sh	$zero,54($sp)
  41293c:	afb10038 	sw	$s1,56($sp)
  412940:	afaf003c 	sw	$t7,60($sp)
  412944:	02402025 	move	$a0,$s2
  412948:	24050007 	li	$a1,7
  41294c:	0c103290 	jal	40ca40 <_fcntl>
  412950:	02603025 	move	$a2,$s3
  412954:	14550005 	bne	$v0,$s5,41296c <_usfsplock+0x74>
  412958:	00408025 	move	$s0,$v0
  41295c:	0c101eb8 	jal	407ae0 <_oserror>
  412960:	00000000 	nop
  412964:	1054fff2 	beq	$v0,$s4,412930 <_usfsplock+0x38>
  412968:	240e0002 	li	$t6,2
  41296c:	16150003 	bne	$s0,$s5,41297c <_usfsplock+0x84>
  412970:	00001025 	move	$v0,$zero
  412974:	10000001 	b	41297c <_usfsplock+0x84>
  412978:	2402ffff 	li	$v0,-1
  41297c:	8fbf002c 	lw	$ra,44($sp)
  412980:	8fb00014 	lw	$s0,20($sp)
  412984:	8fb10018 	lw	$s1,24($sp)
  412988:	8fb2001c 	lw	$s2,28($sp)
  41298c:	8fb30020 	lw	$s3,32($sp)
  412990:	8fb40024 	lw	$s4,36($sp)
  412994:	8fb50028 	lw	$s5,40($sp)
  412998:	03e00008 	jr	$ra
  41299c:	27bd0058 	addiu	$sp,$sp,88

004129a0 <_usfunsplock>:
  4129a0:	27bdffb8 	addiu	$sp,$sp,-72
  4129a4:	afa40048 	sw	$a0,72($sp)
  4129a8:	afa40028 	sw	$a0,40($sp)
  4129ac:	afbf001c 	sw	$ra,28($sp)
  4129b0:	afa5004c 	sw	$a1,76($sp)
  4129b4:	240e0003 	li	$t6,3
  4129b8:	24180001 	li	$t8,1
  4129bc:	00a02025 	move	$a0,$a1
  4129c0:	a7ae0024 	sh	$t6,36($sp)
  4129c4:	a7a00026 	sh	$zero,38($sp)
  4129c8:	afb8002c 	sw	$t8,44($sp)
  4129cc:	24050006 	li	$a1,6
  4129d0:	0c103290 	jal	40ca40 <_fcntl>
  4129d4:	27a60024 	addiu	$a2,$sp,36
  4129d8:	2401ffff 	li	$at,-1
  4129dc:	1441000f 	bne	$v0,$at,412a1c <_usfunsplock+0x7c>
  4129e0:	00001025 	move	$v0,$zero
  4129e4:	8f998a30 	lw	$t9,-30160($gp)
  4129e8:	24040001 	li	$a0,1
  4129ec:	13200008 	beqz	$t9,412a10 <_usfunsplock+0x70>
  4129f0:	3c050042 	lui	$a1,0x42
  4129f4:	3c080020 	lui	$t0,0x20
  4129f8:	8d090e00 	lw	$t1,3584($t0)
  4129fc:	8fa6004c 	lw	$a2,76($sp)
  412a00:	8fa70048 	lw	$a3,72($sp)
  412a04:	24a5c6e0 	addiu	$a1,$a1,-14624
  412a08:	0c103f10 	jal	40fc40 <_uprint>
  412a0c:	afa90010 	sw	$t1,16($sp)
  412a10:	10000002 	b	412a1c <_usfunsplock+0x7c>
  412a14:	2402ffff 	li	$v0,-1
  412a18:	00001025 	move	$v0,$zero
  412a1c:	8fbf001c 	lw	$ra,28($sp)
  412a20:	27bd0048 	addiu	$sp,$sp,72
  412a24:	03e00008 	jr	$ra
  412a28:	00000000 	nop

00412a2c <_usfgetlock>:
  412a2c:	27bdffb8 	addiu	$sp,$sp,-72
  412a30:	afa40048 	sw	$a0,72($sp)
  412a34:	afa40028 	sw	$a0,40($sp)
  412a38:	afbf001c 	sw	$ra,28($sp)
  412a3c:	afa5004c 	sw	$a1,76($sp)
  412a40:	240e0002 	li	$t6,2
  412a44:	24180001 	li	$t8,1
  412a48:	00a02025 	move	$a0,$a1
  412a4c:	a7ae0024 	sh	$t6,36($sp)
  412a50:	a7a00026 	sh	$zero,38($sp)
  412a54:	afb8002c 	sw	$t8,44($sp)
  412a58:	2405000e 	li	$a1,14
  412a5c:	0c103290 	jal	40ca40 <_fcntl>
  412a60:	27a60024 	addiu	$a2,$sp,36
  412a64:	2401ffff 	li	$at,-1
  412a68:	1441000f 	bne	$v0,$at,412aa8 <_usfgetlock+0x7c>
  412a6c:	87aa0024 	lh	$t2,36($sp)
  412a70:	8f998a30 	lw	$t9,-30160($gp)
  412a74:	24040001 	li	$a0,1
  412a78:	13200008 	beqz	$t9,412a9c <_usfgetlock+0x70>
  412a7c:	3c050042 	lui	$a1,0x42
  412a80:	3c080020 	lui	$t0,0x20
  412a84:	8d090e00 	lw	$t1,3584($t0)
  412a88:	8fa6004c 	lw	$a2,76($sp)
  412a8c:	8fa70048 	lw	$a3,72($sp)
  412a90:	24a5c708 	addiu	$a1,$a1,-14584
  412a94:	0c103f10 	jal	40fc40 <_uprint>
  412a98:	afa90010 	sw	$t1,16($sp)
  412a9c:	10000009 	b	412ac4 <_usfgetlock+0x98>
  412aa0:	2402ffff 	li	$v0,-1
  412aa4:	87aa0024 	lh	$t2,36($sp)
  412aa8:	24010003 	li	$at,3
  412aac:	15410004 	bne	$t2,$at,412ac0 <_usfgetlock+0x94>
  412ab0:	8fa20034 	lw	$v0,52($sp)
  412ab4:	10000003 	b	412ac4 <_usfgetlock+0x98>
  412ab8:	00001025 	move	$v0,$zero
  412abc:	8fa20034 	lw	$v0,52($sp)
  412ac0:	00000000 	nop
  412ac4:	8fbf001c 	lw	$ra,28($sp)
  412ac8:	27bd0048 	addiu	$sp,$sp,72
  412acc:	03e00008 	jr	$ra
	...

00412ae0 <_getsystype>:
  412ae0:	27bdffc8 	addiu	$sp,$sp,-56
  412ae4:	afbf0014 	sw	$ra,20($sp)
  412ae8:	240effff 	li	$t6,-1
  412aec:	afae0030 	sw	$t6,48($sp)
  412af0:	afa0001c 	sw	$zero,28($sp)
  412af4:	0c105ea0 	jal	417a80 <_sysconf>
  412af8:	2404000e 	li	$a0,14
  412afc:	1c400003 	bgtz	$v0,412b0c <_getsystype+0x2c>
  412b00:	afa20034 	sw	$v0,52($sp)
  412b04:	10000060 	b	412c88 <_getsystype+0x1a8>
  412b08:	00001025 	move	$v0,$zero
  412b0c:	0c105ef3 	jal	417bcc <_setinvent_r>
  412b10:	27a4001c 	addiu	$a0,$sp,28
  412b14:	10400004 	beqz	$v0,412b28 <_getsystype+0x48>
  412b18:	8fa4001c 	lw	$a0,28($sp)
  412b1c:	1000005a 	b	412c88 <_getsystype+0x1a8>
  412b20:	00001025 	move	$v0,$zero
  412b24:	8fa4001c 	lw	$a0,28($sp)
  412b28:	0c105f73 	jal	417dcc <_getinvent_r>
  412b2c:	00000000 	nop
  412b30:	10400017 	beqz	$v0,412b90 <_getsystype+0xb0>
  412b34:	8fa4001c 	lw	$a0,28($sp)
  412b38:	8c4f0004 	lw	$t7,4($v0)
  412b3c:	24010001 	li	$at,1
  412b40:	15e1000e 	bne	$t7,$at,412b7c <_getsystype+0x9c>
  412b44:	8fa4001c 	lw	$a0,28($sp)
  412b48:	8c580008 	lw	$t8,8($v0)
  412b4c:	24010002 	li	$at,2
  412b50:	1701000a 	bne	$t8,$at,412b7c <_getsystype+0x9c>
  412b54:	8fa4001c 	lw	$a0,28($sp)
  412b58:	8c430014 	lw	$v1,20($v0)
  412b5c:	00000000 	nop
  412b60:	00034103 	sra	$t0,$v1,0x4
  412b64:	3109000f 	andi	$t1,$t0,0xf
  412b68:	0003ca03 	sra	$t9,$v1,0x8
  412b6c:	afb90030 	sw	$t9,48($sp)
  412b70:	10000006 	b	412b8c <_getsystype+0xac>
  412b74:	afa90024 	sw	$t1,36($sp)
  412b78:	8fa4001c 	lw	$a0,28($sp)
  412b7c:	0c105f73 	jal	417dcc <_getinvent_r>
  412b80:	00000000 	nop
  412b84:	1440ffec 	bnez	$v0,412b38 <_getsystype+0x58>
  412b88:	00000000 	nop
  412b8c:	8fa4001c 	lw	$a0,28($sp)
  412b90:	0c105ed8 	jal	417b60 <_endinvent_r>
  412b94:	00000000 	nop
  412b98:	8faa0030 	lw	$t2,48($sp)
  412b9c:	00000000 	nop
  412ba0:	2d410021 	sltiu	$at,$t2,33
  412ba4:	10200028 	beqz	$at,412c48 <_getsystype+0x168>
  412ba8:	000a5080 	sll	$t2,$t2,0x2
  412bac:	3c010042 	lui	$at,0x42
  412bb0:	002a0821 	addu	$at,$at,$t2
  412bb4:	8c2ac758 	lw	$t2,-14504($at)
  412bb8:	00000000 	nop
  412bbc:	01400008 	jr	$t2
  412bc0:	00000000 	nop
  412bc4:	8fab0034 	lw	$t3,52($sp)
  412bc8:	00000000 	nop
  412bcc:	29610002 	slti	$at,$t3,2
  412bd0:	14200003 	bnez	$at,412be0 <_getsystype+0x100>
  412bd4:	00000000 	nop
  412bd8:	1000002a 	b	412c84 <_getsystype+0x1a4>
  412bdc:	24030003 	li	$v1,3
  412be0:	10000028 	b	412c84 <_getsystype+0x1a4>
  412be4:	24030001 	li	$v1,1
  412be8:	8fac0034 	lw	$t4,52($sp)
  412bec:	8fad0024 	lw	$t5,36($sp)
  412bf0:	29810002 	slti	$at,$t4,2
  412bf4:	14200007 	bnez	$at,412c14 <_getsystype+0x134>
  412bf8:	29a10004 	slti	$at,$t5,4
  412bfc:	10200003 	beqz	$at,412c0c <_getsystype+0x12c>
  412c00:	00000000 	nop
  412c04:	1000001f 	b	412c84 <_getsystype+0x1a4>
  412c08:	24030005 	li	$v1,5
  412c0c:	1000001d 	b	412c84 <_getsystype+0x1a4>
  412c10:	24030004 	li	$v1,4
  412c14:	1000001b 	b	412c84 <_getsystype+0x1a4>
  412c18:	24030002 	li	$v1,2
  412c1c:	10000019 	b	412c84 <_getsystype+0x1a4>
  412c20:	24030002 	li	$v1,2
  412c24:	8fae0034 	lw	$t6,52($sp)
  412c28:	00000000 	nop
  412c2c:	29c10002 	slti	$at,$t6,2
  412c30:	14200003 	bnez	$at,412c40 <_getsystype+0x160>
  412c34:	00000000 	nop
  412c38:	10000012 	b	412c84 <_getsystype+0x1a4>
  412c3c:	24030007 	li	$v1,7
  412c40:	10000010 	b	412c84 <_getsystype+0x1a4>
  412c44:	24030006 	li	$v1,6
  412c48:	8faf0034 	lw	$t7,52($sp)
  412c4c:	8f988a30 	lw	$t8,-30160($gp)
  412c50:	29e10002 	slti	$at,$t7,2
  412c54:	14200003 	bnez	$at,412c64 <_getsystype+0x184>
  412c58:	24030002 	li	$v1,2
  412c5c:	10000001 	b	412c64 <_getsystype+0x184>
  412c60:	24030004 	li	$v1,4
  412c64:	13000007 	beqz	$t8,412c84 <_getsystype+0x1a4>
  412c68:	00002025 	move	$a0,$zero
  412c6c:	3c050042 	lui	$a1,0x42
  412c70:	24a5c730 	addiu	$a1,$a1,-14544
  412c74:	0c103f10 	jal	40fc40 <_uprint>
  412c78:	afa30020 	sw	$v1,32($sp)
  412c7c:	8fa30020 	lw	$v1,32($sp)
  412c80:	00000000 	nop
  412c84:	00601025 	move	$v0,$v1
  412c88:	8fbf0014 	lw	$ra,20($sp)
  412c8c:	27bd0038 	addiu	$sp,$sp,56
  412c90:	03e00008 	jr	$ra
	...
  412ca0:	27bdffe8 	addiu	$sp,$sp,-24
  412ca4:	afbf0014 	sw	$ra,20($sp)
  412ca8:	00802825 	move	$a1,$a0
  412cac:	0c104a8b 	jal	412a2c <_usfgetlock>
  412cb0:	24040001 	li	$a0,1
  412cb4:	8fbf0014 	lw	$ra,20($sp)
  412cb8:	10400003 	beqz	$v0,412cc8 <_getsystype+0x1e8>
  412cbc:	00000000 	nop
  412cc0:	10000002 	b	412ccc <_getsystype+0x1ec>
  412cc4:	00000000 	nop
  412cc8:	00001025 	move	$v0,$zero
  412ccc:	03e00008 	jr	$ra
  412cd0:	27bd0018 	addiu	$sp,$sp,24

00412cd4 <_uscasaddme>:
  412cd4:	27bdfec0 	addiu	$sp,$sp,-320
  412cd8:	afb00018 	sw	$s0,24($sp)
  412cdc:	3c100042 	lui	$s0,0x42
  412ce0:	2610d710 	addiu	$s0,$s0,-10480
  412ce4:	8e030000 	lw	$v1,0($s0)
  412ce8:	8e020004 	lw	$v0,4($s0)
  412cec:	10600007 	beqz	$v1,412d0c <_uscasaddme+0x38>
  412cf0:	afbf001c 	sw	$ra,28($sp)
  412cf4:	04400005 	bltz	$v0,412d0c <_uscasaddme+0x38>
  412cf8:	00000000 	nop
  412cfc:	8f84af34 	lw	$a0,-20684($gp)
  412d00:	00000000 	nop
  412d04:	14800004 	bnez	$a0,412d18 <_uscasaddme+0x44>
  412d08:	00000000 	nop
  412d0c:	af80af44 	sw	$zero,-20668($gp)
  412d10:	1000006a 	b	412ebc <_uscasaddme+0x1e8>
  412d14:	ae000000 	sw	$zero,0($s0)
  412d18:	afa2013c 	sw	$v0,316($sp)
  412d1c:	0c1049c4 	jal	412710 <_syncinit>
  412d20:	afa30134 	sw	$v1,308($sp)
  412d24:	8fa5013c 	lw	$a1,316($sp)
  412d28:	0c104a3e 	jal	4128f8 <_usfsplock>
  412d2c:	00002025 	move	$a0,$zero
  412d30:	2401ffff 	li	$at,-1
  412d34:	14410005 	bne	$v0,$at,412d4c <_uscasaddme+0x78>
  412d38:	00000000 	nop
  412d3c:	0c101eb8 	jal	407ae0 <_oserror>
  412d40:	00000000 	nop
  412d44:	1000004d 	b	412e7c <_uscasaddme+0x1a8>
  412d48:	00000000 	nop
  412d4c:	8f84af34 	lw	$a0,-20684($gp)
  412d50:	24010003 	li	$at,3
  412d54:	14810031 	bne	$a0,$at,412e1c <_uscasaddme+0x148>
  412d58:	8fa5013c 	lw	$a1,316($sp)
  412d5c:	8e040008 	lw	$a0,8($s0)
  412d60:	0c1032f8 	jal	40cbe0 <_fstat>
  412d64:	27a500ac 	addiu	$a1,$sp,172
  412d68:	8fa40134 	lw	$a0,308($sp)
  412d6c:	27a50024 	addiu	$a1,$sp,36
  412d70:	0c105e7c 	jal	4179f0 <_stat>
  412d74:	24840454 	addiu	$a0,$a0,1108
  412d78:	8fae00d0 	lw	$t6,208($sp)
  412d7c:	8faf0048 	lw	$t7,72($sp)
  412d80:	00000000 	nop
  412d84:	11cf0025 	beq	$t6,$t7,412e1c <_uscasaddme+0x148>
  412d88:	8fa5013c 	lw	$a1,316($sp)
  412d8c:	8e040004 	lw	$a0,4($s0)
  412d90:	0c101978 	jal	4065e0 <_close>
  412d94:	00000000 	nop
  412d98:	8fa40134 	lw	$a0,308($sp)
  412d9c:	2418ffff 	li	$t8,-1
  412da0:	ae180004 	sw	$t8,4($s0)
  412da4:	8c85041c 	lw	$a1,1052($a0)
  412da8:	0c1032b4 	jal	40cad0 <_munmap>
  412dac:	00000000 	nop
  412db0:	8e05000c 	lw	$a1,12($s0)
  412db4:	2401ffff 	li	$at,-1
  412db8:	10a1000b 	beq	$a1,$at,412de8 <_uscasaddme+0x114>
  412dbc:	00000000 	nop
  412dc0:	8e060008 	lw	$a2,8($s0)
  412dc4:	0c102c63 	jal	40b18c <_ushardlock_detach>
  412dc8:	00002025 	move	$a0,$zero
  412dcc:	8e040008 	lw	$a0,8($s0)
  412dd0:	0c101978 	jal	4065e0 <_close>
  412dd4:	00000000 	nop
  412dd8:	2419ffff 	li	$t9,-1
  412ddc:	2408ffff 	li	$t0,-1
  412de0:	ae190008 	sw	$t9,8($s0)
  412de4:	ae08000c 	sw	$t0,12($s0)
  412de8:	af80af44 	sw	$zero,-20668($gp)
  412dec:	ae000000 	sw	$zero,0($s0)
  412df0:	8f89af30 	lw	$t1,-20688($gp)
  412df4:	00002025 	move	$a0,$zero
  412df8:	11200030 	beqz	$t1,412ebc <_uscasaddme+0x1e8>
  412dfc:	3c050042 	lui	$a1,0x42
  412e00:	3c0a0020 	lui	$t2,0x20
  412e04:	8d460e00 	lw	$a2,3584($t2)
  412e08:	0c103f10 	jal	40fc40 <_uprint>
  412e0c:	24a5c7e0 	addiu	$a1,$a1,-14368
  412e10:	1000002b 	b	412ec0 <_uscasaddme+0x1ec>
  412e14:	8fbf001c 	lw	$ra,28($sp)
  412e18:	8fa5013c 	lw	$a1,316($sp)
  412e1c:	0c104a14 	jal	412850 <_usfreadlock>
  412e20:	24040001 	li	$a0,1
  412e24:	2401ffff 	li	$at,-1
  412e28:	14410005 	bne	$v0,$at,412e40 <_uscasaddme+0x16c>
  412e2c:	00000000 	nop
  412e30:	0c101eb8 	jal	407ae0 <_oserror>
  412e34:	00000000 	nop
  412e38:	10000010 	b	412e7c <_uscasaddme+0x1a8>
  412e3c:	00000000 	nop
  412e40:	8f8baf30 	lw	$t3,-20688($gp)
  412e44:	00002025 	move	$a0,$zero
  412e48:	11600007 	beqz	$t3,412e68 <_uscasaddme+0x194>
  412e4c:	3c050042 	lui	$a1,0x42
  412e50:	8fa70134 	lw	$a3,308($sp)
  412e54:	3c0c0020 	lui	$t4,0x20
  412e58:	8d860e00 	lw	$a2,3584($t4)
  412e5c:	24a5c80c 	addiu	$a1,$a1,-14324
  412e60:	0c103f10 	jal	40fc40 <_uprint>
  412e64:	24e7001c 	addiu	$a3,$a3,28
  412e68:	8fa5013c 	lw	$a1,316($sp)
  412e6c:	0c104a68 	jal	4129a0 <_usfunsplock>
  412e70:	00002025 	move	$a0,$zero
  412e74:	10000012 	b	412ec0 <_uscasaddme+0x1ec>
  412e78:	8fbf001c 	lw	$ra,28($sp)
  412e7c:	8f8d8a30 	lw	$t5,-30160($gp)
  412e80:	24040001 	li	$a0,1
  412e84:	11a00007 	beqz	$t5,412ea4 <_uscasaddme+0x1d0>
  412e88:	3c050042 	lui	$a1,0x42
  412e8c:	8fa70134 	lw	$a3,308($sp)
  412e90:	3c0e0020 	lui	$t6,0x20
  412e94:	8dc60e00 	lw	$a2,3584($t6)
  412e98:	24a5c834 	addiu	$a1,$a1,-14284
  412e9c:	0c103f10 	jal	40fc40 <_uprint>
  412ea0:	24e7001c 	addiu	$a3,$a3,28
  412ea4:	8fa5013c 	lw	$a1,316($sp)
  412ea8:	0c104a68 	jal	4129a0 <_usfunsplock>
  412eac:	00002025 	move	$a0,$zero
  412eb0:	af80af44 	sw	$zero,-20668($gp)
  412eb4:	0c103320 	jal	40cc80 <abort>
  412eb8:	ae000000 	sw	$zero,0($s0)
  412ebc:	8fbf001c 	lw	$ra,28($sp)
  412ec0:	8fb00018 	lw	$s0,24($sp)
  412ec4:	03e00008 	jr	$ra
  412ec8:	27bd0140 	addiu	$sp,$sp,320

00412ecc <__uscasarenainit>:
  412ecc:	27bdeeb8 	addiu	$sp,$sp,-4424
  412ed0:	8f85af34 	lw	$a1,-20684($gp)
  412ed4:	240effff 	li	$t6,-1
  412ed8:	240f0004 	li	$t7,4
  412edc:	afbf0054 	sw	$ra,84($sp)
  412ee0:	afbe0050 	sw	$s8,80($sp)
  412ee4:	afb7004c 	sw	$s7,76($sp)
  412ee8:	afb60048 	sw	$s6,72($sp)
  412eec:	afb50044 	sw	$s5,68($sp)
  412ef0:	afb40040 	sw	$s4,64($sp)
  412ef4:	afb3003c 	sw	$s3,60($sp)
  412ef8:	afb20038 	sw	$s2,56($sp)
  412efc:	afb10034 	sw	$s1,52($sp)
  412f00:	afb00030 	sw	$s0,48($sp)
  412f04:	afae0114 	sw	$t6,276($sp)
  412f08:	afa0010c 	sw	$zero,268($sp)
  412f0c:	afaf0100 	sw	$t7,256($sp)
  412f10:	14a00007 	bnez	$a1,412f30 <__uscasarenainit+0x64>
  412f14:	afa000f0 	sw	$zero,240($sp)
  412f18:	0c104ab8 	jal	412ae0 <_getsystype>
  412f1c:	00000000 	nop
  412f20:	14400003 	bnez	$v0,412f30 <__uscasarenainit+0x64>
  412f24:	00402825 	move	$a1,$v0
  412f28:	100001f5 	b	413700 <__uscasarenainit+0x834>
  412f2c:	af82af34 	sw	$v0,-20684($gp)
  412f30:	8f98af44 	lw	$t8,-20668($gp)
  412f34:	00000000 	nop
  412f38:	13000003 	beqz	$t8,412f48 <__uscasarenainit+0x7c>
  412f3c:	00000000 	nop
  412f40:	100001f1 	b	413708 <__uscasarenainit+0x83c>
  412f44:	af85af34 	sw	$a1,-20684($gp)
  412f48:	3c120042 	lui	$s2,0x42
  412f4c:	2652d710 	addiu	$s2,$s2,-10480
  412f50:	ae450014 	sw	$a1,20($s2)
  412f54:	24010002 	li	$at,2
  412f58:	10a1000a 	beq	$a1,$at,412f84 <__uscasarenainit+0xb8>
  412f5c:	af85af34 	sw	$a1,-20684($gp)
  412f60:	24010004 	li	$at,4
  412f64:	10a10007 	beq	$a1,$at,412f84 <__uscasarenainit+0xb8>
  412f68:	af85af34 	sw	$a1,-20684($gp)
  412f6c:	24010006 	li	$at,6
  412f70:	10a10004 	beq	$a1,$at,412f84 <__uscasarenainit+0xb8>
  412f74:	af85af34 	sw	$a1,-20684($gp)
  412f78:	24010007 	li	$at,7
  412f7c:	14a1000a 	bne	$a1,$at,412fa8 <__uscasarenainit+0xdc>
  412f80:	af85af34 	sw	$a1,-20684($gp)
  412f84:	3c020042 	lui	$v0,0x42
  412f88:	244292c8 	addiu	$v0,$v0,-27960
  412f8c:	24190001 	li	$t9,1
  412f90:	af828bbc 	sw	$v0,-29764($gp)
  412f94:	af828bc0 	sw	$v0,-29760($gp)
  412f98:	af99af44 	sw	$t9,-20668($gp)
  412f9c:	24080001 	li	$t0,1
  412fa0:	100001d9 	b	413708 <__uscasarenainit+0x83c>
  412fa4:	ae480000 	sw	$t0,0($s2)
  412fa8:	0c10336c 	jal	40cdb0 <getenv>
  412fac:	27848a90 	addiu	$a0,$gp,-30064
  412fb0:	10400006 	beqz	$v0,412fcc <__uscasarenainit+0x100>
  412fb4:	24090006 	li	$t1,6
  412fb8:	240a0001 	li	$t2,1
  412fbc:	240b0001 	li	$t3,1
  412fc0:	afa90100 	sw	$t1,256($sp)
  412fc4:	af8aaf30 	sw	$t2,-20688($gp)
  412fc8:	af8b8a30 	sw	$t3,-30160($gp)
  412fcc:	0c10336c 	jal	40cdb0 <getenv>
  412fd0:	27848a98 	addiu	$a0,$gp,-30056
  412fd4:	10400003 	beqz	$v0,412fe4 <__uscasarenainit+0x118>
  412fd8:	3c040042 	lui	$a0,0x42
  412fdc:	240c0001 	li	$t4,1
  412fe0:	af8c8a30 	sw	$t4,-30160($gp)
  412fe4:	0c10336c 	jal	40cdb0 <getenv>
  412fe8:	2484c85c 	addiu	$a0,$a0,-14244
  412fec:	3c100042 	lui	$s0,0x42
  412ff0:	00401825 	move	$v1,$v0
  412ff4:	2610c868 	addiu	$s0,$s0,-14232
  412ff8:	241e0003 	li	$s8,3
  412ffc:	2417ffff 	li	$s7,-1
  413000:	27b60120 	addiu	$s6,$sp,288
  413004:	3c150020 	lui	$s5,0x20
  413008:	2414ffff 	li	$s4,-1
  41300c:	27b3112c 	addiu	$s3,$sp,4396
  413010:	1060000d 	beqz	$v1,413048 <__uscasarenainit+0x17c>
  413014:	00000000 	nop
  413018:	906d0000 	lbu	$t5,0($v1)
  41301c:	02602025 	move	$a0,$s3
  413020:	11a00009 	beqz	$t5,413048 <__uscasarenainit+0x17c>
  413024:	3c050042 	lui	$a1,0x42
  413028:	24a5c878 	addiu	$a1,$a1,-14216
  41302c:	02003025 	move	$a2,$s0
  413030:	27878aa0 	addiu	$a3,$gp,-30048
  413034:	afa30010 	sw	$v1,16($sp)
  413038:	0c103038 	jal	40c0e0 <sprintf>
  41303c:	afa300f8 	sw	$v1,248($sp)
  413040:	10000009 	b	413068 <__uscasarenainit+0x19c>
  413044:	02602025 	move	$a0,$s3
  413048:	0c105988 	jal	416620 <_geteuid>
  41304c:	afa300f8 	sw	$v1,248($sp)
  413050:	02602025 	move	$a0,$s3
  413054:	27858aa4 	addiu	$a1,$gp,-30044
  413058:	02003025 	move	$a2,$s0
  41305c:	0c103038 	jal	40c0e0 <sprintf>
  413060:	00403825 	move	$a3,$v0
  413064:	02602025 	move	$a0,$s3
  413068:	0c1032c0 	jal	40cb00 <_open>
  41306c:	24050002 	li	$a1,2
  413070:	1454002f 	bne	$v0,$s4,413130 <__uscasarenainit+0x264>
  413074:	00408825 	move	$s1,$v0
  413078:	3c040042 	lui	$a0,0x42
  41307c:	241001a0 	li	$s0,416
  413080:	0c10336c 	jal	40cdb0 <getenv>
  413084:	2484c884 	addiu	$a0,$a0,-14204
  413088:	10400008 	beqz	$v0,4130ac <__uscasarenainit+0x1e0>
  41308c:	00402025 	move	$a0,$v0
  413090:	904e0000 	lbu	$t6,0($v0)
  413094:	00002825 	move	$a1,$zero
  413098:	11c00004 	beqz	$t6,4130ac <__uscasarenainit+0x1e0>
  41309c:	00000000 	nop
  4130a0:	0c105fec 	jal	417fb0 <strtoul>
  4130a4:	00003025 	move	$a2,$zero
  4130a8:	00408025 	move	$s0,$v0
  4130ac:	02602025 	move	$a0,$s3
  4130b0:	24050102 	li	$a1,258
  4130b4:	0c1032c0 	jal	40cb00 <_open>
  4130b8:	02003025 	move	$a2,$s0
  4130bc:	14540018 	bne	$v0,$s4,413120 <__uscasarenainit+0x254>
  4130c0:	00408825 	move	$s1,$v0
  4130c4:	8faf00f0 	lw	$t7,240($sp)
  4130c8:	24180001 	li	$t8,1
  4130cc:	15e00005 	bnez	$t7,4130e4 <__uscasarenainit+0x218>
  4130d0:	3c100042 	lui	$s0,0x42
  4130d4:	8fa300f8 	lw	$v1,248($sp)
  4130d8:	afb800f0 	sw	$t8,240($sp)
  4130dc:	1000ffcc 	b	413010 <__uscasarenainit+0x144>
  4130e0:	2610c898 	addiu	$s0,$s0,-14184
  4130e4:	0c101eb8 	jal	407ae0 <_oserror>
  4130e8:	00000000 	nop
  4130ec:	8f998a30 	lw	$t9,-30160($gp)
  4130f0:	afa20110 	sw	$v0,272($sp)
  4130f4:	13200005 	beqz	$t9,41310c <__uscasarenainit+0x240>
  4130f8:	24040001 	li	$a0,1
  4130fc:	3c050042 	lui	$a1,0x42
  413100:	24a5c8a4 	addiu	$a1,$a1,-14172
  413104:	0c103f10 	jal	40fc40 <_uprint>
  413108:	02603025 	move	$a2,$s3
  41310c:	8fa40110 	lw	$a0,272($sp)
  413110:	0c101ebd 	jal	407af4 <_setoserror>
  413114:	00000000 	nop
  413118:	10000179 	b	413700 <__uscasarenainit+0x834>
  41311c:	00000000 	nop
  413120:	8fa8010c 	lw	$t0,268($sp)
  413124:	00000000 	nop
  413128:	25090001 	addiu	$t1,$t0,1
  41312c:	afa9010c 	sw	$t1,268($sp)
  413130:	02202025 	move	$a0,$s1
  413134:	24050002 	li	$a1,2
  413138:	0c103290 	jal	40ca40 <_fcntl>
  41313c:	24060001 	li	$a2,1
  413140:	00002025 	move	$a0,$zero
  413144:	0c104a3e 	jal	4128f8 <_usfsplock>
  413148:	02202825 	move	$a1,$s1
  41314c:	1454000d 	bne	$v0,$s4,413184 <__uscasarenainit+0x2b8>
  413150:	02c02025 	move	$a0,$s6
  413154:	0c101eb8 	jal	407ae0 <_oserror>
  413158:	00000000 	nop
  41315c:	8f8a8a30 	lw	$t2,-30160($gp)
  413160:	afa20110 	sw	$v0,272($sp)
  413164:	11400153 	beqz	$t2,4136b4 <__uscasarenainit+0x7e8>
  413168:	24040001 	li	$a0,1
  41316c:	3c050042 	lui	$a1,0x42
  413170:	24a5c8cc 	addiu	$a1,$a1,-14132
  413174:	0c103f10 	jal	40fc40 <_uprint>
  413178:	02603025 	move	$a2,$s3
  41317c:	1000014e 	b	4136b8 <__uscasarenainit+0x7ec>
  413180:	8faa010c 	lw	$t2,268($sp)
  413184:	0c105d10 	jal	417440 <_blkclr>
  413188:	24051000 	li	$a1,4096
  41318c:	02202025 	move	$a0,$s1
  413190:	02c02825 	move	$a1,$s6
  413194:	0c105e3c 	jal	4178f0 <_read>
  413198:	24061000 	li	$a2,4096
  41319c:	8fab0124 	lw	$t3,292($sp)
  4131a0:	3c01dead 	lui	$at,0xdead
  4131a4:	3421babe 	ori	$at,$at,0xbabe
  4131a8:	1561008d 	bne	$t3,$at,4133e0 <__uscasarenainit+0x514>
  4131ac:	00000000 	nop
  4131b0:	0c104b28 	jal	412ca0 <_getsystype+0x1c0>
  4131b4:	02202025 	move	$a0,$s1
  4131b8:	10400089 	beqz	$v0,4133e0 <__uscasarenainit+0x514>
  4131bc:	00000000 	nop
  4131c0:	8f8caf30 	lw	$t4,-20688($gp)
  4131c4:	00002025 	move	$a0,$zero
  4131c8:	11800005 	beqz	$t4,4131e0 <__uscasarenainit+0x314>
  4131cc:	3c050042 	lui	$a1,0x42
  4131d0:	8ea60e00 	lw	$a2,3584($s5)
  4131d4:	24a5c8f8 	addiu	$a1,$a1,-14088
  4131d8:	0c103f10 	jal	40fc40 <_uprint>
  4131dc:	02603825 	move	$a3,$s3
  4131e0:	8fad0128 	lw	$t5,296($sp)
  4131e4:	24010004 	li	$at,4
  4131e8:	11a1000a 	beq	$t5,$at,413214 <__uscasarenainit+0x348>
  4131ec:	00002025 	move	$a0,$zero
  4131f0:	8f8e8a30 	lw	$t6,-30160($gp)
  4131f4:	00002025 	move	$a0,$zero
  4131f8:	11c00003 	beqz	$t6,413208 <__uscasarenainit+0x33c>
  4131fc:	3c050042 	lui	$a1,0x42
  413200:	0c103f10 	jal	40fc40 <_uprint>
  413204:	24a5c924 	addiu	$a1,$a1,-14044
  413208:	240f0016 	li	$t7,22
  41320c:	10000129 	b	4136b4 <__uscasarenainit+0x7e8>
  413210:	afaf0110 	sw	$t7,272($sp)
  413214:	8fb8056c 	lw	$t8,1388($sp)
  413218:	24052000 	li	$a1,8192
  41321c:	13d8000b 	beq	$s8,$t8,41324c <__uscasarenainit+0x380>
  413220:	03c03025 	move	$a2,$s8
  413224:	8f998a30 	lw	$t9,-30160($gp)
  413228:	00002025 	move	$a0,$zero
  41322c:	13200004 	beqz	$t9,413240 <__uscasarenainit+0x374>
  413230:	3c050042 	lui	$a1,0x42
  413234:	24a5c94c 	addiu	$a1,$a1,-14004
  413238:	0c103f10 	jal	40fc40 <_uprint>
  41323c:	02603025 	move	$a2,$s3
  413240:	24080016 	li	$t0,22
  413244:	1000011b 	b	4136b4 <__uscasarenainit+0x7e8>
  413248:	afa80110 	sw	$t0,272($sp)
  41324c:	24070001 	li	$a3,1
  413250:	afb10010 	sw	$s1,16($sp)
  413254:	0c1032a8 	jal	40caa0 <_mmap>
  413258:	afa00014 	sw	$zero,20($sp)
  41325c:	1457000c 	bne	$v0,$s7,413290 <__uscasarenainit+0x3c4>
  413260:	00408025 	move	$s0,$v0
  413264:	0c101eb8 	jal	407ae0 <_oserror>
  413268:	00000000 	nop
  41326c:	8f898a30 	lw	$t1,-30160($gp)
  413270:	afa20110 	sw	$v0,272($sp)
  413274:	1120010f 	beqz	$t1,4136b4 <__uscasarenainit+0x7e8>
  413278:	24040001 	li	$a0,1
  41327c:	3c050042 	lui	$a1,0x42
  413280:	0c103f10 	jal	40fc40 <_uprint>
  413284:	24a5c974 	addiu	$a1,$a1,-13964
  413288:	1000010b 	b	4136b8 <__uscasarenainit+0x7ec>
  41328c:	8faa010c 	lw	$t2,268($sp)
  413290:	8f85af34 	lw	$a1,-20684($gp)
  413294:	03c02025 	move	$a0,$s8
  413298:	14be0040 	bne	$a1,$s8,41339c <__uscasarenainit+0x4d0>
  41329c:	24010001 	li	$at,1
  4132a0:	0c102f44 	jal	40bd10 <_ushardlocks_init>
  4132a4:	af85af34 	sw	$a1,-20684($gp)
  4132a8:	3c050042 	lui	$a1,0x42
  4132ac:	ae57000c 	sw	$s7,12($s2)
  4132b0:	24a5d71c 	addiu	$a1,$a1,-10468
  4132b4:	0c102be7 	jal	40af9c <_ushardlock_attach>
  4132b8:	26040454 	addiu	$a0,$s0,1108
  4132bc:	04410004 	bgez	$v0,4132d0 <__uscasarenainit+0x404>
  4132c0:	afa20114 	sw	$v0,276($sp)
  4132c4:	0c101eb8 	jal	407ae0 <_oserror>
  4132c8:	00000000 	nop
  4132cc:	afa20110 	sw	$v0,272($sp)
  4132d0:	8faa0114 	lw	$t2,276($sp)
  4132d4:	8e4e000c 	lw	$t6,12($s2)
  4132d8:	ae4a0008 	sw	$t2,8($s2)
  4132dc:	8e0c0854 	lw	$t4,2132($s0)
  4132e0:	8e0b0000 	lw	$t3,0($s0)
  4132e4:	02202025 	move	$a0,$s1
  4132e8:	016c6823 	subu	$t5,$t3,$t4
  4132ec:	01ae7821 	addu	$t7,$t5,$t6
  4132f0:	ae4f0010 	sw	$t7,16($s2)
  4132f4:	0c104b28 	jal	412ca0 <_getsystype+0x1c0>
  4132f8:	af8faf40 	sw	$t7,-20672($gp)
  4132fc:	1440001f 	bnez	$v0,41337c <__uscasarenainit+0x4b0>
  413300:	8fa90114 	lw	$t1,276($sp)
  413304:	8fb90114 	lw	$t9,276($sp)
  413308:	00000000 	nop
  41330c:	0720000a 	bltz	$t9,413338 <__uscasarenainit+0x46c>
  413310:	02002025 	move	$a0,$s0
  413314:	8e45000c 	lw	$a1,12($s2)
  413318:	8e460008 	lw	$a2,8($s2)
  41331c:	0c102c63 	jal	40b18c <_ushardlock_detach>
  413320:	00002025 	move	$a0,$zero
  413324:	8fa40114 	lw	$a0,276($sp)
  413328:	0c101978 	jal	4065e0 <_close>
  41332c:	00000000 	nop
  413330:	ae540008 	sw	$s4,8($s2)
  413334:	02002025 	move	$a0,$s0
  413338:	0c1032b4 	jal	40cad0 <_munmap>
  41333c:	24052000 	li	$a1,8192
  413340:	00002025 	move	$a0,$zero
  413344:	0c104a68 	jal	4129a0 <_usfunsplock>
  413348:	02202825 	move	$a1,$s1
  41334c:	8f88af30 	lw	$t0,-20688($gp)
  413350:	00002025 	move	$a0,$zero
  413354:	11000004 	beqz	$t0,413368 <__uscasarenainit+0x49c>
  413358:	3c050042 	lui	$a1,0x42
  41335c:	8ea60e00 	lw	$a2,3584($s5)
  413360:	0c103f10 	jal	40fc40 <_uprint>
  413364:	24a5c998 	addiu	$a1,$a1,-13928
  413368:	0c101978 	jal	4065e0 <_close>
  41336c:	02202025 	move	$a0,$s1
  413370:	1000ff3d 	b	413068 <__uscasarenainit+0x19c>
  413374:	02602025 	move	$a0,$s3
  413378:	8fa90114 	lw	$t1,276($sp)
  41337c:	02002025 	move	$a0,$s0
  413380:	052100ac 	bgez	$t1,413634 <__uscasarenainit+0x768>
  413384:	00000000 	nop
  413388:	0c1032b4 	jal	40cad0 <_munmap>
  41338c:	24052000 	li	$a1,8192
  413390:	100000c9 	b	4136b8 <__uscasarenainit+0x7ec>
  413394:	8faa010c 	lw	$t2,268($sp)
  413398:	24010001 	li	$at,1
  41339c:	14a10005 	bne	$a1,$at,4133b4 <__uscasarenainit+0x4e8>
  4133a0:	24040003 	li	$a0,3
  4133a4:	0c10219b 	jal	40866c <_ussoftlocks_init>
  4133a8:	af85af34 	sw	$a1,-20684($gp)
  4133ac:	100000a1 	b	413634 <__uscasarenainit+0x768>
  4133b0:	00000000 	nop
  4133b4:	24010005 	li	$at,5
  4133b8:	14a10005 	bne	$a1,$at,4133d0 <__uscasarenainit+0x504>
  4133bc:	24040003 	li	$a0,3
  4133c0:	0c10491f 	jal	41247c <_usr4klocks_init>
  4133c4:	af85af34 	sw	$a1,-20684($gp)
  4133c8:	1000009a 	b	413634 <__uscasarenainit+0x768>
  4133cc:	00000000 	nop
  4133d0:	0c103320 	jal	40cc80 <abort>
  4133d4:	af85af34 	sw	$a1,-20684($gp)
  4133d8:	10000096 	b	413634 <__uscasarenainit+0x768>
  4133dc:	00000000 	nop
  4133e0:	8f8aaf30 	lw	$t2,-20688($gp)
  4133e4:	00002025 	move	$a0,$zero
  4133e8:	11400005 	beqz	$t2,413400 <__uscasarenainit+0x534>
  4133ec:	3c050042 	lui	$a1,0x42
  4133f0:	8ea60e00 	lw	$a2,3584($s5)
  4133f4:	24a5c9d4 	addiu	$a1,$a1,-13868
  4133f8:	0c103f10 	jal	40fc40 <_uprint>
  4133fc:	02603825 	move	$a3,$s3
  413400:	8fab010c 	lw	$t3,268($sp)
  413404:	02202025 	move	$a0,$s1
  413408:	15600025 	bnez	$t3,4134a0 <__uscasarenainit+0x5d4>
  41340c:	00000000 	nop
  413410:	0c1032f8 	jal	40cbe0 <_fstat>
  413414:	27a50060 	addiu	$a1,$sp,96
  413418:	0c105988 	jal	416620 <_geteuid>
  41341c:	00000000 	nop
  413420:	8fac007c 	lw	$t4,124($sp)
  413424:	8f8daf30 	lw	$t5,-20688($gp)
  413428:	104c001d 	beq	$v0,$t4,4134a0 <__uscasarenainit+0x5d4>
  41342c:	00002025 	move	$a0,$zero
  413430:	11a00005 	beqz	$t5,413448 <__uscasarenainit+0x57c>
  413434:	3c050042 	lui	$a1,0x42
  413438:	8ea60e00 	lw	$a2,3584($s5)
  41343c:	24a5c9fc 	addiu	$a1,$a1,-13828
  413440:	0c103f10 	jal	40fc40 <_uprint>
  413444:	02603825 	move	$a3,$s3
  413448:	0c105e48 	jal	417920 <_unlink>
  41344c:	02602025 	move	$a0,$s3
  413450:	1040000d 	beqz	$v0,413488 <__uscasarenainit+0x5bc>
  413454:	00002025 	move	$a0,$zero
  413458:	8f8e8a30 	lw	$t6,-30160($gp)
  41345c:	24040001 	li	$a0,1
  413460:	11c00004 	beqz	$t6,413474 <__uscasarenainit+0x5a8>
  413464:	3c050042 	lui	$a1,0x42
  413468:	24a5ca48 	addiu	$a1,$a1,-13752
  41346c:	0c103f10 	jal	40fc40 <_uprint>
  413470:	02603025 	move	$a2,$s3
  413474:	0c101ec5 	jal	407b14 <__oserror>
  413478:	00000000 	nop
  41347c:	8c4f0000 	lw	$t7,0($v0)
  413480:	1000008c 	b	4136b4 <__uscasarenainit+0x7e8>
  413484:	afaf0110 	sw	$t7,272($sp)
  413488:	0c104a68 	jal	4129a0 <_usfunsplock>
  41348c:	02202825 	move	$a1,$s1
  413490:	0c101978 	jal	4065e0 <_close>
  413494:	02202025 	move	$a0,$s1
  413498:	1000fef3 	b	413068 <__uscasarenainit+0x19c>
  41349c:	02602025 	move	$a0,$s3
  4134a0:	8f85af34 	lw	$a1,-20684($gp)
  4134a4:	3c040042 	lui	$a0,0x42
  4134a8:	14be0021 	bne	$a1,$s8,413530 <__uscasarenainit+0x664>
  4134ac:	24010001 	li	$at,1
  4134b0:	2484ca7c 	addiu	$a0,$a0,-13700
  4134b4:	0c1032c0 	jal	40cb00 <_open>
  4134b8:	24050002 	li	$a1,2
  4134bc:	0441000c 	bgez	$v0,4134f0 <__uscasarenainit+0x624>
  4134c0:	afa20114 	sw	$v0,276($sp)
  4134c4:	8f988a30 	lw	$t8,-30160($gp)
  4134c8:	24040001 	li	$a0,1
  4134cc:	13000003 	beqz	$t8,4134dc <__uscasarenainit+0x610>
  4134d0:	3c050042 	lui	$a1,0x42
  4134d4:	0c103f10 	jal	40fc40 <_uprint>
  4134d8:	24a5ca90 	addiu	$a1,$a1,-13680
  4134dc:	0c101ec5 	jal	407b14 <__oserror>
  4134e0:	00000000 	nop
  4134e4:	8c590000 	lw	$t9,0($v0)
  4134e8:	10000072 	b	4136b4 <__uscasarenainit+0x7e8>
  4134ec:	afb90110 	sw	$t9,272($sp)
  4134f0:	8fa40114 	lw	$a0,276($sp)
  4134f4:	24050002 	li	$a1,2
  4134f8:	0c103290 	jal	40ca40 <_fcntl>
  4134fc:	24060001 	li	$a2,1
  413500:	8f85af34 	lw	$a1,-20684($gp)
  413504:	0c102f44 	jal	40bd10 <_ushardlocks_init>
  413508:	24040003 	li	$a0,3
  41350c:	8f88af30 	lw	$t0,-20688($gp)
  413510:	00002025 	move	$a0,$zero
  413514:	11000023 	beqz	$t0,4135a4 <__uscasarenainit+0x6d8>
  413518:	3c050042 	lui	$a1,0x42
  41351c:	8ea60e00 	lw	$a2,3584($s5)
  413520:	0c103f10 	jal	40fc40 <_uprint>
  413524:	24a5cac4 	addiu	$a1,$a1,-13628
  413528:	1000001f 	b	4135a8 <__uscasarenainit+0x6dc>
  41352c:	8fa50114 	lw	$a1,276($sp)
  413530:	14a1000c 	bne	$a1,$at,413564 <__uscasarenainit+0x698>
  413534:	24040003 	li	$a0,3
  413538:	0c10219b 	jal	40866c <_ussoftlocks_init>
  41353c:	af85af34 	sw	$a1,-20684($gp)
  413540:	8f89af30 	lw	$t1,-20688($gp)
  413544:	00002025 	move	$a0,$zero
  413548:	11200016 	beqz	$t1,4135a4 <__uscasarenainit+0x6d8>
  41354c:	3c050042 	lui	$a1,0x42
  413550:	8ea60e00 	lw	$a2,3584($s5)
  413554:	0c103f10 	jal	40fc40 <_uprint>
  413558:	24a5caf4 	addiu	$a1,$a1,-13580
  41355c:	10000012 	b	4135a8 <__uscasarenainit+0x6dc>
  413560:	8fa50114 	lw	$a1,276($sp)
  413564:	24010005 	li	$at,5
  413568:	14a1000c 	bne	$a1,$at,41359c <__uscasarenainit+0x6d0>
  41356c:	24040003 	li	$a0,3
  413570:	0c10491f 	jal	41247c <_usr4klocks_init>
  413574:	af85af34 	sw	$a1,-20684($gp)
  413578:	8f8aaf30 	lw	$t2,-20688($gp)
  41357c:	00002025 	move	$a0,$zero
  413580:	11400008 	beqz	$t2,4135a4 <__uscasarenainit+0x6d8>
  413584:	3c050042 	lui	$a1,0x42
  413588:	8ea60e00 	lw	$a2,3584($s5)
  41358c:	0c103f10 	jal	40fc40 <_uprint>
  413590:	24a5cb24 	addiu	$a1,$a1,-13532
  413594:	10000004 	b	4135a8 <__uscasarenainit+0x6dc>
  413598:	8fa50114 	lw	$a1,276($sp)
  41359c:	0c103320 	jal	40cc80 <abort>
  4135a0:	af85af34 	sw	$a1,-20684($gp)
  4135a4:	8fa50114 	lw	$a1,276($sp)
  4135a8:	8fa60100 	lw	$a2,256($sp)
  4135ac:	240b0003 	li	$t3,3
  4135b0:	240cffff 	li	$t4,-1
  4135b4:	afac0020 	sw	$t4,32($sp)
  4135b8:	afab0010 	sw	$t3,16($sp)
  4135bc:	02202025 	move	$a0,$s1
  4135c0:	24072000 	li	$a3,8192
  4135c4:	afa00014 	sw	$zero,20($sp)
  4135c8:	afa00018 	sw	$zero,24($sp)
  4135cc:	0c103964 	jal	40e590 <_usinit_mapfile>
  4135d0:	afa0001c 	sw	$zero,28($sp)
  4135d4:	14400008 	bnez	$v0,4135f8 <__uscasarenainit+0x72c>
  4135d8:	00408025 	move	$s0,$v0
  4135dc:	0c101eb8 	jal	407ae0 <_oserror>
  4135e0:	00000000 	nop
  4135e4:	8fad010c 	lw	$t5,268($sp)
  4135e8:	afa20110 	sw	$v0,272($sp)
  4135ec:	25ae0001 	addiu	$t6,$t5,1
  4135f0:	10000030 	b	4136b4 <__uscasarenainit+0x7e8>
  4135f4:	afae010c 	sw	$t6,268($sp)
  4135f8:	8faf0114 	lw	$t7,276($sp)
  4135fc:	2604001c 	addiu	$a0,$s0,28
  413600:	ae4f0008 	sw	$t7,8($s2)
  413604:	8e180854 	lw	$t8,2132($s0)
  413608:	02602825 	move	$a1,$s3
  41360c:	ae58000c 	sw	$t8,12($s2)
  413610:	8e190000 	lw	$t9,0($s0)
  413614:	00000000 	nop
  413618:	ae590010 	sw	$t9,16($s2)
  41361c:	0c10320c 	jal	40c830 <strcpy>
  413620:	af99af40 	sw	$t9,-20672($gp)
  413624:	02002025 	move	$a0,$s0
  413628:	24050a78 	li	$a1,2680
  41362c:	0c105e30 	jal	4178c0 <_msync>
  413630:	24060002 	li	$a2,2
  413634:	8f84af34 	lw	$a0,-20684($gp)
  413638:	0c1049c4 	jal	412710 <_syncinit>
  41363c:	00000000 	nop
  413640:	24040001 	li	$a0,1
  413644:	0c104a14 	jal	412850 <_usfreadlock>
  413648:	02202825 	move	$a1,$s1
  41364c:	14540009 	bne	$v0,$s4,413674 <__uscasarenainit+0x7a8>
  413650:	00002025 	move	$a0,$zero
  413654:	0c101eb8 	jal	407ae0 <_oserror>
  413658:	00000000 	nop
  41365c:	afa20110 	sw	$v0,272($sp)
  413660:	02002025 	move	$a0,$s0
  413664:	0c1032b4 	jal	40cad0 <_munmap>
  413668:	24052000 	li	$a1,8192
  41366c:	10000012 	b	4136b8 <__uscasarenainit+0x7ec>
  413670:	8faa010c 	lw	$t2,268($sp)
  413674:	af90af44 	sw	$s0,-20668($gp)
  413678:	ae500000 	sw	$s0,0($s2)
  41367c:	ae510004 	sw	$s1,4($s2)
  413680:	0c104a68 	jal	4129a0 <_usfunsplock>
  413684:	02202825 	move	$a1,$s1
  413688:	8f89af30 	lw	$t1,-20688($gp)
  41368c:	00002025 	move	$a0,$zero
  413690:	1120001d 	beqz	$t1,413708 <__uscasarenainit+0x83c>
  413694:	3c050042 	lui	$a1,0x42
  413698:	8ea60e00 	lw	$a2,3584($s5)
  41369c:	afb00010 	sw	$s0,16($sp)
  4136a0:	24a5cb58 	addiu	$a1,$a1,-13480
  4136a4:	0c103f10 	jal	40fc40 <_uprint>
  4136a8:	02603825 	move	$a3,$s3
  4136ac:	10000017 	b	41370c <__uscasarenainit+0x840>
  4136b0:	8fbf0054 	lw	$ra,84($sp)
  4136b4:	8faa010c 	lw	$t2,268($sp)
  4136b8:	00000000 	nop
  4136bc:	11400004 	beqz	$t2,4136d0 <__uscasarenainit+0x804>
  4136c0:	8fa40114 	lw	$a0,276($sp)
  4136c4:	0c105e48 	jal	417920 <_unlink>
  4136c8:	02602025 	move	$a0,$s3
  4136cc:	8fa40114 	lw	$a0,276($sp)
  4136d0:	00000000 	nop
  4136d4:	04800003 	bltz	$a0,4136e4 <__uscasarenainit+0x818>
  4136d8:	00000000 	nop
  4136dc:	0c101978 	jal	4065e0 <_close>
  4136e0:	00000000 	nop
  4136e4:	06200004 	bltz	$s1,4136f8 <__uscasarenainit+0x82c>
  4136e8:	8fa40110 	lw	$a0,272($sp)
  4136ec:	0c101978 	jal	4065e0 <_close>
  4136f0:	02202025 	move	$a0,$s1
  4136f4:	8fa40110 	lw	$a0,272($sp)
  4136f8:	0c101ebd 	jal	407af4 <_setoserror>
  4136fc:	00000000 	nop
  413700:	0c103320 	jal	40cc80 <abort>
  413704:	00000000 	nop
  413708:	8fbf0054 	lw	$ra,84($sp)
  41370c:	8fb00030 	lw	$s0,48($sp)
  413710:	8fb10034 	lw	$s1,52($sp)
  413714:	8fb20038 	lw	$s2,56($sp)
  413718:	8fb3003c 	lw	$s3,60($sp)
  41371c:	8fb40040 	lw	$s4,64($sp)
  413720:	8fb50044 	lw	$s5,68($sp)
  413724:	8fb60048 	lw	$s6,72($sp)
  413728:	8fb7004c 	lw	$s7,76($sp)
  41372c:	8fbe0050 	lw	$s8,80($sp)
  413730:	03e00008 	jr	$ra
  413734:	27bd1148 	addiu	$sp,$sp,4424

00413738 <__uscas_rldinit>:
  413738:	3c020042 	lui	$v0,0x42
  41373c:	8c42d714 	lw	$v0,-10476($v0)
  413740:	27bdffe8 	addiu	$sp,$sp,-24
  413744:	2401ffff 	li	$at,-1
  413748:	10410009 	beq	$v0,$at,413770 <__uscas_rldinit+0x38>
  41374c:	afbf0014 	sw	$ra,20($sp)
  413750:	8c8e0004 	lw	$t6,4($a0)
  413754:	00000000 	nop
  413758:	104e0005 	beq	$v0,$t6,413770 <__uscas_rldinit+0x38>
  41375c:	00000000 	nop
  413760:	0c103320 	jal	40cc80 <abort>
  413764:	afa40018 	sw	$a0,24($sp)
  413768:	8fa40018 	lw	$a0,24($sp)
  41376c:	00000000 	nop
  413770:	8c810000 	lw	$at,0($a0)
  413774:	3c0f0042 	lui	$t7,0x42
  413778:	25efd710 	addiu	$t7,$t7,-10480
  41377c:	ade10000 	sw	$at,0($t7)
  413780:	8c880004 	lw	$t0,4($a0)
  413784:	00000000 	nop
  413788:	ade80004 	sw	$t0,4($t7)
  41378c:	8c810008 	lw	$at,8($a0)
  413790:	00000000 	nop
  413794:	ade10008 	sw	$at,8($t7)
  413798:	8c88000c 	lw	$t0,12($a0)
  41379c:	00000000 	nop
  4137a0:	ade8000c 	sw	$t0,12($t7)
  4137a4:	8c810010 	lw	$at,16($a0)
  4137a8:	00000000 	nop
  4137ac:	ade10010 	sw	$at,16($t7)
  4137b0:	8c880014 	lw	$t0,20($a0)
  4137b4:	24010003 	li	$at,3
  4137b8:	ade80014 	sw	$t0,20($t7)
  4137bc:	8c890000 	lw	$t1,0($a0)
  4137c0:	00000000 	nop
  4137c4:	af89af44 	sw	$t1,-20668($gp)
  4137c8:	8c8a0010 	lw	$t2,16($a0)
  4137cc:	00000000 	nop
  4137d0:	af8aaf40 	sw	$t2,-20672($gp)
  4137d4:	8c8b0014 	lw	$t3,20($a0)
  4137d8:	24040003 	li	$a0,3
  4137dc:	15610005 	bne	$t3,$at,4137f4 <__uscas_rldinit+0xbc>
  4137e0:	af8baf34 	sw	$t3,-20684($gp)
  4137e4:	0c102f44 	jal	40bd10 <_ushardlocks_init>
  4137e8:	01602825 	move	$a1,$t3
  4137ec:	1000001c 	b	413860 <__uscas_rldinit+0x128>
  4137f0:	8fbf0014 	lw	$ra,20($sp)
  4137f4:	8f85af34 	lw	$a1,-20684($gp)
  4137f8:	24010001 	li	$at,1
  4137fc:	14a10006 	bne	$a1,$at,413818 <__uscas_rldinit+0xe0>
  413800:	24010002 	li	$at,2
  413804:	0c10219b 	jal	40866c <_ussoftlocks_init>
  413808:	24040003 	li	$a0,3
  41380c:	10000014 	b	413860 <__uscas_rldinit+0x128>
  413810:	8fbf0014 	lw	$ra,20($sp)
  413814:	24010002 	li	$at,2
  413818:	10a10007 	beq	$a1,$at,413838 <__uscas_rldinit+0x100>
  41381c:	3c020042 	lui	$v0,0x42
  413820:	24010004 	li	$at,4
  413824:	10a10004 	beq	$a1,$at,413838 <__uscas_rldinit+0x100>
  413828:	24010006 	li	$at,6
  41382c:	10a10002 	beq	$a1,$at,413838 <__uscas_rldinit+0x100>
  413830:	24010007 	li	$at,7
  413834:	14a10004 	bne	$a1,$at,413848 <__uscas_rldinit+0x110>
  413838:	244292c8 	addiu	$v0,$v0,-27960
  41383c:	af828bbc 	sw	$v0,-29764($gp)
  413840:	10000006 	b	41385c <__uscas_rldinit+0x124>
  413844:	af828bc0 	sw	$v0,-29760($gp)
  413848:	24010005 	li	$at,5
  41384c:	14a10004 	bne	$a1,$at,413860 <__uscas_rldinit+0x128>
  413850:	8fbf0014 	lw	$ra,20($sp)
  413854:	0c10491f 	jal	41247c <_usr4klocks_init>
  413858:	24040003 	li	$a0,3
  41385c:	8fbf0014 	lw	$ra,20($sp)
  413860:	27bd0018 	addiu	$sp,$sp,24
  413864:	03e00008 	jr	$ra
	...
  413870:	27bdffc8 	addiu	$sp,$sp,-56
  413874:	afbf0014 	sw	$ra,20($sp)
  413878:	afa40038 	sw	$a0,56($sp)
  41387c:	8c850004 	lw	$a1,4($a0)
  413880:	8c980000 	lw	$t8,0($a0)
  413884:	30a90001 	andi	$t1,$a1,0x1
  413888:	afa90034 	sw	$t1,52($sp)
  41388c:	24060000 	li	$a2,0
  413890:	24070001 	li	$a3,1
  413894:	afa5001c 	sw	$a1,28($sp)
  413898:	afb80018 	sw	$t8,24($sp)
  41389c:	0c1063f6 	jal	418fd8 <__ll_rshift>
  4138a0:	03002025 	move	$a0,$t8
  4138a4:	3c017fff 	lui	$at,0x7fff
  4138a8:	3421ffff 	ori	$at,$at,0xffff
  4138ac:	00412024 	and	$a0,$v0,$at
  4138b0:	2401ffff 	li	$at,-1
  4138b4:	00612824 	and	$a1,$v1,$at
  4138b8:	afa5001c 	sw	$a1,28($sp)
  4138bc:	afa5002c 	sw	$a1,44($sp)
  4138c0:	afa40018 	sw	$a0,24($sp)
  4138c4:	afa40028 	sw	$a0,40($sp)
  4138c8:	24060000 	li	$a2,0
  4138cc:	0c106202 	jal	418808 <__ll_div>
  4138d0:	24070005 	li	$a3,5
  4138d4:	8fae0038 	lw	$t6,56($sp)
  4138d8:	24060000 	li	$a2,0
  4138dc:	adc20000 	sw	$v0,0($t6)
  4138e0:	adc30004 	sw	$v1,4($t6)
  4138e4:	8fa5002c 	lw	$a1,44($sp)
  4138e8:	8fa40028 	lw	$a0,40($sp)
  4138ec:	0c1062c9 	jal	418b24 <__ll_rem>
  4138f0:	24070005 	li	$a3,5
  4138f4:	00402025 	move	$a0,$v0
  4138f8:	00602825 	move	$a1,$v1
  4138fc:	24060000 	li	$a2,0
  413900:	0c105f94 	jal	417e50 <__ll_mul>
  413904:	24070002 	li	$a3,2
  413908:	8fa80034 	lw	$t0,52($sp)
  41390c:	8fbf0014 	lw	$ra,20($sp)
  413910:	00685821 	addu	$t3,$v1,$t0
  413914:	25620030 	addiu	$v0,$t3,48
  413918:	03e00008 	jr	$ra
  41391c:	27bd0038 	addiu	$sp,$sp,56
  413920:	8c850000 	lw	$a1,0($a0)
  413924:	3c017fff 	lui	$at,0x7fff
  413928:	3421ffff 	ori	$at,$at,0xffff
  41392c:	00053043 	sra	$a2,$a1,0x1
  413930:	24070005 	li	$a3,5
  413934:	00c17024 	and	$t6,$a2,$at
  413938:	01c7001a 	div	$zero,$t6,$a3
  41393c:	01c03025 	move	$a2,$t6
  413940:	30a30001 	andi	$v1,$a1,0x1
  413944:	14e00002 	bnez	$a3,413950 <__uscas_rldinit+0x218>
  413948:	00000000 	nop
  41394c:	0007000d 	break	0x7
  413950:	2401ffff 	li	$at,-1
  413954:	14e10004 	bne	$a3,$at,413968 <__uscas_rldinit+0x230>
  413958:	3c018000 	lui	$at,0x8000
  41395c:	14c10002 	bne	$a2,$at,413968 <__uscas_rldinit+0x230>
  413960:	00000000 	nop
  413964:	0006000d 	break	0x6
  413968:	0000c010 	mfhi	$t8
  41396c:	0018c840 	sll	$t9,$t8,0x1
  413970:	00007812 	mflo	$t7
  413974:	03231021 	addu	$v0,$t9,$v1
  413978:	ac8f0000 	sw	$t7,0($a0)
  41397c:	03e00008 	jr	$ra
  413980:	24420030 	addiu	$v0,$v0,48
  413984:	27bdffe0 	addiu	$sp,$sp,-32
  413988:	afbf001c 	sw	$ra,28($sp)
  41398c:	afb10018 	sw	$s1,24($sp)
  413990:	afb00014 	sw	$s0,20($sp)
  413994:	afa40020 	sw	$a0,32($sp)
  413998:	afa50024 	sw	$a1,36($sp)
  41399c:	90ce000c 	lbu	$t6,12($a2)
  4139a0:	00c08025 	move	$s0,$a2
  4139a4:	31cf0001 	andi	$t7,$t6,0x1
  4139a8:	15e00025 	bnez	$t7,413a40 <__uscas_rldinit+0x308>
  4139ac:	00e08825 	move	$s1,$a3
  4139b0:	8cf80000 	lw	$t8,0($a3)
  4139b4:	8cd90004 	lw	$t9,4($a2)
  4139b8:	8cc90000 	lw	$t1,0($a2)
  4139bc:	03194023 	subu	$t0,$t8,$t9
  4139c0:	01285023 	subu	$t2,$t1,$t0
  4139c4:	90c2000d 	lbu	$v0,13($a2)
  4139c8:	acca0000 	sw	$t2,0($a2)
  4139cc:	8ceb0000 	lw	$t3,0($a3)
  4139d0:	28410064 	slti	$at,$v0,100
  4139d4:	10200007 	beqz	$at,4139f4 <__uscas_rldinit+0x2bc>
  4139d8:	accb0004 	sw	$t3,4($a2)
  4139dc:	00026080 	sll	$t4,$v0,0x2
  4139e0:	3c050042 	lui	$a1,0x42
  4139e4:	00ac2821 	addu	$a1,$a1,$t4
  4139e8:	8ca5dad0 	lw	$a1,-9520($a1)
  4139ec:	10000004 	b	413a00 <__uscas_rldinit+0x2c8>
  4139f0:	00000000 	nop
  4139f4:	0c10165b 	jal	40596c <_realbufend>
  4139f8:	02002025 	move	$a0,$s0
  4139fc:	00402825 	move	$a1,$v0
  413a00:	0c1017be 	jal	405ef8 <_bufsync>
  413a04:	02002025 	move	$a0,$s0
  413a08:	8fa40020 	lw	$a0,32($sp)
  413a0c:	8fa60024 	lw	$a2,36($sp)
  413a10:	24050001 	li	$a1,1
  413a14:	0c105ab8 	jal	416ae0 <fwrite>
  413a18:	02003825 	move	$a3,$s0
  413a1c:	8fad0024 	lw	$t5,36($sp)
  413a20:	00000000 	nop
  413a24:	104d0003 	beq	$v0,$t5,413a34 <__uscas_rldinit+0x2fc>
  413a28:	00000000 	nop
  413a2c:	1000000e 	b	413a68 <__uscas_rldinit+0x330>
  413a30:	00001025 	move	$v0,$zero
  413a34:	8e0e0004 	lw	$t6,4($s0)
  413a38:	1000000a 	b	413a64 <__uscas_rldinit+0x32c>
  413a3c:	ae2e0000 	sw	$t6,0($s1)
  413a40:	8e240000 	lw	$a0,0($s1)
  413a44:	8fa50020 	lw	$a1,32($sp)
  413a48:	8fa60024 	lw	$a2,36($sp)
  413a4c:	0c103118 	jal	40c460 <memcpy>
  413a50:	00000000 	nop
  413a54:	8faf0024 	lw	$t7,36($sp)
  413a58:	00000000 	nop
  413a5c:	004fc021 	addu	$t8,$v0,$t7
  413a60:	ae380000 	sw	$t8,0($s1)
  413a64:	24020001 	li	$v0,1
  413a68:	8fbf001c 	lw	$ra,28($sp)
  413a6c:	8fb00014 	lw	$s0,20($sp)
  413a70:	8fb10018 	lw	$s1,24($sp)
  413a74:	03e00008 	jr	$ra
  413a78:	27bd0020 	addiu	$sp,$sp,32

00413a7c <_doprnt>:
  413a7c:	27bdfba0 	addiu	$sp,$sp,-1120
  413a80:	240e0001 	li	$t6,1
  413a84:	afbf004c 	sw	$ra,76($sp)
  413a88:	afbe0048 	sw	$s8,72($sp)
  413a8c:	afb70044 	sw	$s7,68($sp)
  413a90:	afb60040 	sw	$s6,64($sp)
  413a94:	afb5003c 	sw	$s5,60($sp)
  413a98:	afb40038 	sw	$s4,56($sp)
  413a9c:	afb30034 	sw	$s3,52($sp)
  413aa0:	afb20030 	sw	$s2,48($sp)
  413aa4:	afb1002c 	sw	$s1,44($sp)
  413aa8:	afb00028 	sw	$s0,40($sp)
  413aac:	e7b50020 	swc1	$f21,32($sp)
  413ab0:	e7b40024 	swc1	$f20,36($sp)
  413ab4:	afa50464 	sw	$a1,1124($sp)
  413ab8:	afa60468 	sw	$a2,1128($sp)
  413abc:	afa00454 	sw	$zero,1108($sp)
  413ac0:	afa0025c 	sw	$zero,604($sp)
  413ac4:	afa00258 	sw	$zero,600($sp)
  413ac8:	afa00250 	sw	$zero,592($sp)
  413acc:	afa4024c 	sw	$a0,588($sp)
  413ad0:	afae0248 	sw	$t6,584($sp)
  413ad4:	afa001c0 	sw	$zero,448($sp)
  413ad8:	27af0464 	addiu	$t7,$sp,1124
  413adc:	8de10000 	lw	$at,0($t7)
  413ae0:	27a2008c 	addiu	$v0,$sp,140
  413ae4:	27ab0240 	addiu	$t3,$sp,576
  413ae8:	ac410000 	sw	$at,0($v0)
  413aec:	ad610000 	sw	$at,0($t3)
  413af0:	8c410000 	lw	$at,0($v0)
  413af4:	27b90244 	addiu	$t9,$sp,580
  413af8:	af210000 	sw	$at,0($t9)
  413afc:	8fad0468 	lw	$t5,1128($sp)
  413b00:	00809825 	move	$s3,$a0
  413b04:	8dac0008 	lw	$t4,8($t5)
  413b08:	00000000 	nop
  413b0c:	15800008 	bnez	$t4,413b30 <_doprnt+0xb4>
  413b10:	8fab0468 	lw	$t3,1128($sp)
  413b14:	0c105c30 	jal	4170c0 <_findbuf>
  413b18:	01a02025 	move	$a0,$t5
  413b1c:	14400004 	bnez	$v0,413b30 <_doprnt+0xb4>
  413b20:	8fab0468 	lw	$t3,1128($sp)
  413b24:	10000841 	b	415c2c <_doprnt+0x21b0>
  413b28:	2402ffff 	li	$v0,-1
  413b2c:	8fab0468 	lw	$t3,1128($sp)
  413b30:	00000000 	nop
  413b34:	8d6e0004 	lw	$t6,4($t3)
  413b38:	00000000 	nop
  413b3c:	afae045c 	sw	$t6,1116($sp)
  413b40:	916f000c 	lbu	$t7,12($t3)
  413b44:	00000000 	nop
  413b48:	31f80001 	andi	$t8,$t7,0x1
  413b4c:	13000005 	beqz	$t8,413b64 <_doprnt+0xe8>
  413b50:	3c017fff 	lui	$at,0x7fff
  413b54:	3421ffff 	ori	$at,$at,0xffff
  413b58:	01c15025 	or	$t2,$t6,$at
  413b5c:	10000012 	b	413ba8 <_doprnt+0x12c>
  413b60:	afaa0458 	sw	$t2,1112($sp)
  413b64:	8fac0468 	lw	$t4,1128($sp)
  413b68:	00000000 	nop
  413b6c:	9182000d 	lbu	$v0,13($t4)
  413b70:	00000000 	nop
  413b74:	28410064 	slti	$at,$v0,100
  413b78:	10200006 	beqz	$at,413b94 <_doprnt+0x118>
  413b7c:	00026880 	sll	$t5,$v0,0x2
  413b80:	3c060042 	lui	$a2,0x42
  413b84:	00cd3021 	addu	$a2,$a2,$t5
  413b88:	8cc6dad0 	lw	$a2,-9520($a2)
  413b8c:	10000006 	b	413ba8 <_doprnt+0x12c>
  413b90:	afa60458 	sw	$a2,1112($sp)
  413b94:	8fa40468 	lw	$a0,1128($sp)
  413b98:	0c10165b 	jal	40596c <_realbufend>
  413b9c:	00000000 	nop
  413ba0:	00403025 	move	$a2,$v0
  413ba4:	afa60458 	sw	$a2,1112($sp)
  413ba8:	4480a000 	mtc1	$zero,$f20
  413bac:	4480a800 	mtc1	$zero,$f21
  413bb0:	8fb60444 	lw	$s6,1092($sp)
  413bb4:	2409fffc 	li	$t1,-4
  413bb8:	92700000 	lbu	$s0,0($s3)
  413bbc:	00000000 	nop
  413bc0:	12000021 	beqz	$s0,413c48 <_doprnt+0x1cc>
  413bc4:	24010025 	li	$at,37
  413bc8:	1201001f 	beq	$s0,$at,413c48 <_doprnt+0x1cc>
  413bcc:	0260b825 	move	$s7,$s3
  413bd0:	92700001 	lbu	$s0,1($s3)
  413bd4:	26730001 	addiu	$s3,$s3,1
  413bd8:	12000003 	beqz	$s0,413be8 <_doprnt+0x16c>
  413bdc:	24010025 	li	$at,37
  413be0:	1601fffb 	bne	$s0,$at,413bd0 <_doprnt+0x154>
  413be4:	00000000 	nop
  413be8:	8faf045c 	lw	$t7,1116($sp)
  413bec:	8fae0454 	lw	$t6,1108($sp)
  413bf0:	8fb80458 	lw	$t8,1112($sp)
  413bf4:	02778823 	subu	$s1,$s3,$s7
  413bf8:	01f19021 	addu	$s2,$t7,$s1
  413bfc:	01d15821 	addu	$t3,$t6,$s1
  413c00:	0312082b 	sltu	$at,$t8,$s2
  413c04:	1020000a 	beqz	$at,413c30 <_doprnt+0x1b4>
  413c08:	afab0454 	sw	$t3,1108($sp)
  413c0c:	8fa60468 	lw	$a2,1128($sp)
  413c10:	02e02025 	move	$a0,$s7
  413c14:	02202825 	move	$a1,$s1
  413c18:	0c104e61 	jal	413984 <__uscas_rldinit+0x24c>
  413c1c:	27a7045c 	addiu	$a3,$sp,1116
  413c20:	14400009 	bnez	$v0,413c48 <_doprnt+0x1cc>
  413c24:	2409fffc 	li	$t1,-4
  413c28:	10000800 	b	415c2c <_doprnt+0x21b0>
  413c2c:	2402ffff 	li	$v0,-1
  413c30:	8fa4045c 	lw	$a0,1116($sp)
  413c34:	02e02825 	move	$a1,$s7
  413c38:	0c103118 	jal	40c460 <memcpy>
  413c3c:	02203025 	move	$a2,$s1
  413c40:	2409fffc 	li	$t1,-4
  413c44:	afb2045c 	sw	$s2,1116($sp)
  413c48:	1600003a 	bnez	$s0,413d34 <_doprnt+0x2b8>
  413c4c:	00000000 	nop
  413c50:	8fa70468 	lw	$a3,1128($sp)
  413c54:	8fb9045c 	lw	$t9,1116($sp)
  413c58:	8cea0004 	lw	$t2,4($a3)
  413c5c:	8cec0000 	lw	$t4,0($a3)
  413c60:	032a8023 	subu	$s0,$t9,$t2
  413c64:	8fa50458 	lw	$a1,1112($sp)
  413c68:	01906823 	subu	$t5,$t4,$s0
  413c6c:	aced0000 	sw	$t5,0($a3)
  413c70:	8fae045c 	lw	$t6,1116($sp)
  413c74:	00000000 	nop
  413c78:	acee0004 	sw	$t6,4($a3)
  413c7c:	8faf045c 	lw	$t7,1116($sp)
  413c80:	00000000 	nop
  413c84:	01afc021 	addu	$t8,$t5,$t7
  413c88:	00b8082b 	sltu	$at,$a1,$t8
  413c8c:	1020000a 	beqz	$at,413cb8 <_doprnt+0x23c>
  413c90:	00000000 	nop
  413c94:	90f9000c 	lbu	$t9,12($a3)
  413c98:	00000000 	nop
  413c9c:	332a0001 	andi	$t2,$t9,0x1
  413ca0:	15400005 	bnez	$t2,413cb8 <_doprnt+0x23c>
  413ca4:	00000000 	nop
  413ca8:	0c1017be 	jal	405ef8 <_bufsync>
  413cac:	00e02025 	move	$a0,$a3
  413cb0:	8fa70468 	lw	$a3,1128($sp)
  413cb4:	00000000 	nop
  413cb8:	90e2000c 	lbu	$v0,12($a3)
  413cbc:	00000000 	nop
  413cc0:	304c0044 	andi	$t4,$v0,0x44
  413cc4:	1180000e 	beqz	$t4,413d00 <_doprnt+0x284>
  413cc8:	304d0004 	andi	$t5,$v0,0x4
  413ccc:	15a0000a 	bnez	$t5,413cf8 <_doprnt+0x27c>
  413cd0:	00000000 	nop
  413cd4:	8fae045c 	lw	$t6,1116($sp)
  413cd8:	2405000a 	li	$a1,10
  413cdc:	02003025 	move	$a2,$s0
  413ce0:	0c105d38 	jal	4174e0 <memchr>
  413ce4:	01d02023 	subu	$a0,$t6,$s0
  413ce8:	10400006 	beqz	$v0,413d04 <_doprnt+0x288>
  413cec:	8fa70468 	lw	$a3,1128($sp)
  413cf0:	8fa70468 	lw	$a3,1128($sp)
  413cf4:	00000000 	nop
  413cf8:	0c1017ce 	jal	405f38 <_xflsbuf>
  413cfc:	00e02025 	move	$a0,$a3
  413d00:	8fa70468 	lw	$a3,1128($sp)
  413d04:	00000000 	nop
  413d08:	90eb000c 	lbu	$t3,12($a3)
  413d0c:	00000000 	nop
  413d10:	316f0020 	andi	$t7,$t3,0x20
  413d14:	11e00004 	beqz	$t7,413d28 <_doprnt+0x2ac>
  413d18:	8fa60454 	lw	$a2,1108($sp)
  413d1c:	100007c3 	b	415c2c <_doprnt+0x21b0>
  413d20:	2402ffff 	li	$v0,-1
  413d24:	8fa60454 	lw	$a2,1108($sp)
  413d28:	00000000 	nop
  413d2c:	100007bf 	b	415c2c <_doprnt+0x21b0>
  413d30:	00c01025 	move	$v0,$a2
  413d34:	afa00298 	sw	$zero,664($sp)
  413d38:	afa00294 	sw	$zero,660($sp)
  413d3c:	afa0029c 	sw	$zero,668($sp)
  413d40:	92700001 	lbu	$s0,1($s3)
  413d44:	00008825 	move	$s1,$zero
  413d48:	0000a825 	move	$s5,$zero
  413d4c:	26730001 	addiu	$s3,$s3,1
  413d50:	2618ffe0 	addiu	$t8,$s0,-32
  413d54:	2f010059 	sltiu	$at,$t8,89
  413d58:	26730001 	addiu	$s3,$s3,1
  413d5c:	1020065d 	beqz	$at,4156d4 <_doprnt+0x1c58>
  413d60:	02001825 	move	$v1,$s0
  413d64:	0018c080 	sll	$t8,$t8,0x2
  413d68:	3c010042 	lui	$at,0x42
  413d6c:	00380821 	addu	$at,$at,$t8
  413d70:	8c38ccec 	lw	$t8,-13076($at)
  413d74:	00000000 	nop
  413d78:	03000008 	jr	$t8
  413d7c:	00000000 	nop
  413d80:	36390002 	ori	$t9,$s1,0x2
  413d84:	92700000 	lbu	$s0,0($s3)
  413d88:	1000fff1 	b	413d50 <_doprnt+0x2d4>
  413d8c:	03208825 	move	$s1,$t9
  413d90:	362a0004 	ori	$t2,$s1,0x4
  413d94:	2401ffdf 	li	$at,-33
  413d98:	92700000 	lbu	$s0,0($s3)
  413d9c:	1000ffec 	b	413d50 <_doprnt+0x2d4>
  413da0:	01418824 	and	$s1,$t2,$at
  413da4:	362d0008 	ori	$t5,$s1,0x8
  413da8:	92700000 	lbu	$s0,0($s3)
  413dac:	1000ffe8 	b	413d50 <_doprnt+0x2d4>
  413db0:	01a08825 	move	$s1,$t5
  413db4:	362e0010 	ori	$t6,$s1,0x10
  413db8:	92700000 	lbu	$s0,0($s3)
  413dbc:	1000ffe4 	b	413d50 <_doprnt+0x2d4>
  413dc0:	01c08825 	move	$s1,$t6
  413dc4:	362b0040 	ori	$t3,$s1,0x40
  413dc8:	92700000 	lbu	$s0,0($s3)
  413dcc:	01608825 	move	$s1,$t3
  413dd0:	1000ffdf 	b	413d50 <_doprnt+0x2d4>
  413dd4:	0000b025 	move	$s6,$zero
  413dd8:	926f0000 	lbu	$t7,0($s3)
  413ddc:	3c180042 	lui	$t8,0x42
  413de0:	030fc021 	addu	$t8,$t8,$t7
  413de4:	9318d751 	lbu	$t8,-10415($t8)
  413de8:	00000000 	nop
  413dec:	33190004 	andi	$t9,$t8,0x4
  413df0:	13200009 	beqz	$t9,413e18 <_doprnt+0x39c>
  413df4:	322d0040 	andi	$t5,$s1,0x40
  413df8:	8fac0244 	lw	$t4,580($sp)
  413dfc:	240a0001 	li	$t2,1
  413e00:	afaa01c0 	sw	$t2,448($sp)
  413e04:	afac023c 	sw	$t4,572($sp)
  413e08:	92700000 	lbu	$s0,0($s3)
  413e0c:	1000ffd1 	b	413d54 <_doprnt+0x2d8>
  413e10:	2618ffe0 	addiu	$t8,$s0,-32
  413e14:	322d0040 	andi	$t5,$s1,0x40
  413e18:	15a0000f 	bnez	$t5,413e58 <_doprnt+0x3dc>
  413e1c:	8faa0244 	lw	$t2,580($sp)
  413e20:	8fae0244 	lw	$t6,580($sp)
  413e24:	00000000 	nop
  413e28:	25cb0003 	addiu	$t3,$t6,3
  413e2c:	01697824 	and	$t7,$t3,$t1
  413e30:	25f80004 	addiu	$t8,$t7,4
  413e34:	afb80244 	sw	$t8,580($sp)
  413e38:	8df50000 	lw	$s5,0($t7)
  413e3c:	00000000 	nop
  413e40:	06a10011 	bgez	$s5,413e88 <_doprnt+0x40c>
  413e44:	36390004 	ori	$t9,$s1,0x4
  413e48:	0015a823 	negu	$s5,$s5
  413e4c:	1000000e 	b	413e88 <_doprnt+0x40c>
  413e50:	03208825 	move	$s1,$t9
  413e54:	8faa0244 	lw	$t2,580($sp)
  413e58:	00000000 	nop
  413e5c:	254c0003 	addiu	$t4,$t2,3
  413e60:	01896824 	and	$t5,$t4,$t1
  413e64:	25ae0004 	addiu	$t6,$t5,4
  413e68:	afae0244 	sw	$t6,580($sp)
  413e6c:	8db60000 	lw	$s6,0($t5)
  413e70:	00000000 	nop
  413e74:	06c10004 	bgez	$s6,413e88 <_doprnt+0x40c>
  413e78:	2401ffbf 	li	$at,-65
  413e7c:	02215824 	and	$t3,$s1,$at
  413e80:	0000b025 	move	$s6,$zero
  413e84:	01608825 	move	$s1,$t3
  413e88:	92700000 	lbu	$s0,0($s3)
  413e8c:	1000ffb1 	b	413d54 <_doprnt+0x2d8>
  413e90:	2618ffe0 	addiu	$t8,$s0,-32
  413e94:	8fb80248 	lw	$t8,584($sp)
  413e98:	32340040 	andi	$s4,$s1,0x40
  413e9c:	13000008 	beqz	$t8,413ec0 <_doprnt+0x444>
  413ea0:	00000000 	nop
  413ea4:	8fa50240 	lw	$a1,576($sp)
  413ea8:	8fa4024c 	lw	$a0,588($sp)
  413eac:	27a601c4 	addiu	$a2,$sp,452
  413eb0:	afa00248 	sw	$zero,584($sp)
  413eb4:	0c105719 	jal	415c64 <_mkarglst>
  413eb8:	afa50004 	sw	$a1,4($sp)
  413ebc:	2409fffc 	li	$t1,-4
  413ec0:	12800003 	beqz	$s4,413ed0 <_doprnt+0x454>
  413ec4:	02c03025 	move	$a2,$s6
  413ec8:	10000003 	b	413ed8 <_doprnt+0x45c>
  413ecc:	0000b025 	move	$s6,$zero
  413ed0:	02a03025 	move	$a2,$s5
  413ed4:	0000a825 	move	$s5,$zero
  413ed8:	1cc00004 	bgtz	$a2,413eec <_doprnt+0x470>
  413edc:	28c1001f 	slti	$at,$a2,31
  413ee0:	1000ff35 	b	413bb8 <_doprnt+0x13c>
  413ee4:	2673ffff 	addiu	$s3,$s3,-1
  413ee8:	28c1001f 	slti	$at,$a2,31
  413eec:	10200008 	beqz	$at,413f10 <_doprnt+0x494>
  413ef0:	00065080 	sll	$t2,$a2,0x2
  413ef4:	254cfffc 	addiu	$t4,$t2,-4
  413ef8:	27ae01c4 	addiu	$t6,$sp,452
  413efc:	018e6821 	addu	$t5,$t4,$t6
  413f00:	8da10000 	lw	$at,0($t5)
  413f04:	27b90158 	addiu	$t9,$sp,344
  413f08:	10000007 	b	413f28 <_doprnt+0x4ac>
  413f0c:	af210000 	sw	$at,0($t9)
  413f10:	8faf0238 	lw	$t7,568($sp)
  413f14:	8fa4024c 	lw	$a0,588($sp)
  413f18:	27a50158 	addiu	$a1,$sp,344
  413f1c:	0c105821 	jal	416084 <_getarg>
  413f20:	afaf0158 	sw	$t7,344($sp)
  413f24:	2409fffc 	li	$t1,-4
  413f28:	8faa01c0 	lw	$t2,448($sp)
  413f2c:	00000000 	nop
  413f30:	15400005 	bnez	$t2,413f48 <_doprnt+0x4cc>
  413f34:	8fae023c 	lw	$t6,572($sp)
  413f38:	8fac0158 	lw	$t4,344($sp)
  413f3c:	1000001f 	b	413fbc <_doprnt+0x540>
  413f40:	afac0244 	sw	$t4,580($sp)
  413f44:	8fae023c 	lw	$t6,572($sp)
  413f48:	afa001c0 	sw	$zero,448($sp)
  413f4c:	1280000f 	beqz	$s4,413f8c <_doprnt+0x510>
  413f50:	afae0244 	sw	$t6,580($sp)
  413f54:	8fab0158 	lw	$t3,344($sp)
  413f58:	00000000 	nop
  413f5c:	25790003 	addiu	$t9,$t3,3
  413f60:	03296824 	and	$t5,$t9,$t1
  413f64:	25b80004 	addiu	$t8,$t5,4
  413f68:	afb80158 	sw	$t8,344($sp)
  413f6c:	8db60000 	lw	$s6,0($t5)
  413f70:	00000000 	nop
  413f74:	06c10011 	bgez	$s6,413fbc <_doprnt+0x540>
  413f78:	2401ffbf 	li	$at,-65
  413f7c:	02217824 	and	$t7,$s1,$at
  413f80:	0000b025 	move	$s6,$zero
  413f84:	1000000d 	b	413fbc <_doprnt+0x540>
  413f88:	01e08825 	move	$s1,$t7
  413f8c:	8faa0158 	lw	$t2,344($sp)
  413f90:	00000000 	nop
  413f94:	254c0003 	addiu	$t4,$t2,3
  413f98:	01897024 	and	$t6,$t4,$t1
  413f9c:	25cb0004 	addiu	$t3,$t6,4
  413fa0:	afab0158 	sw	$t3,344($sp)
  413fa4:	8dd50000 	lw	$s5,0($t6)
  413fa8:	00000000 	nop
  413fac:	06a10003 	bgez	$s5,413fbc <_doprnt+0x540>
  413fb0:	36390004 	ori	$t9,$s1,0x4
  413fb4:	0015a823 	negu	$s5,$s5
  413fb8:	03208825 	move	$s1,$t9
  413fbc:	92700000 	lbu	$s0,0($s3)
  413fc0:	1000ff64 	b	413d54 <_doprnt+0x2d8>
  413fc4:	2618ffe0 	addiu	$t8,$s0,-32
  413fc8:	32380044 	andi	$t8,$s1,0x44
  413fcc:	17000002 	bnez	$t8,413fd8 <_doprnt+0x55c>
  413fd0:	362d0020 	ori	$t5,$s1,0x20
  413fd4:	01a08825 	move	$s1,$t5
  413fd8:	2602ffd0 	addiu	$v0,$s0,-48
  413fdc:	92700000 	lbu	$s0,0($s3)
  413fe0:	3c0f0042 	lui	$t7,0x42
  413fe4:	01f07821 	addu	$t7,$t7,$s0
  413fe8:	91efd751 	lbu	$t7,-10415($t7)
  413fec:	32340040 	andi	$s4,$s1,0x40
  413ff0:	31ea0004 	andi	$t2,$t7,0x4
  413ff4:	1140000f 	beqz	$t2,414034 <_doprnt+0x5b8>
  413ff8:	3c030042 	lui	$v1,0x42
  413ffc:	2463d750 	addiu	$v1,$v1,-10416
  414000:	2404000a 	li	$a0,10
  414004:	00440019 	multu	$v0,$a0
  414008:	26730001 	addiu	$s3,$s3,1
  41400c:	00006012 	mflo	$t4
  414010:	01901021 	addu	$v0,$t4,$s0
  414014:	92700000 	lbu	$s0,0($s3)
  414018:	2442ffd0 	addiu	$v0,$v0,-48
  41401c:	02035821 	addu	$t3,$s0,$v1
  414020:	916e0001 	lbu	$t6,1($t3)
  414024:	00000000 	nop
  414028:	31d90004 	andi	$t9,$t6,0x4
  41402c:	1720fff5 	bnez	$t9,414004 <_doprnt+0x588>
  414030:	00000000 	nop
  414034:	12800003 	beqz	$s4,414044 <_doprnt+0x5c8>
  414038:	00000000 	nop
  41403c:	1000ff44 	b	413d50 <_doprnt+0x2d4>
  414040:	0040b025 	move	$s6,$v0
  414044:	1000ff42 	b	413d50 <_doprnt+0x2d4>
  414048:	0040a825 	move	$s5,$v0
  41404c:	32380001 	andi	$t8,$s1,0x1
  414050:	13000004 	beqz	$t8,414064 <_doprnt+0x5e8>
  414054:	2401fffe 	li	$at,-2
  414058:	02216824 	and	$t5,$s1,$at
  41405c:	10000003 	b	41406c <_doprnt+0x5f0>
  414060:	35b10800 	ori	$s1,$t5,0x800
  414064:	362a0001 	ori	$t2,$s1,0x1
  414068:	01408825 	move	$s1,$t2
  41406c:	92700000 	lbu	$s0,0($s3)
  414070:	1000ff38 	b	413d54 <_doprnt+0x2d8>
  414074:	2618ffe0 	addiu	$t8,$s0,-32
  414078:	362c0400 	ori	$t4,$s1,0x400
  41407c:	92700000 	lbu	$s0,0($s3)
  414080:	1000ff33 	b	413d50 <_doprnt+0x2d4>
  414084:	01808825 	move	$s1,$t4
  414088:	92700000 	lbu	$s0,0($s3)
  41408c:	1000ff31 	b	413d54 <_doprnt+0x2d8>
  414090:	2618ffe0 	addiu	$t8,$s0,-32
  414094:	27a802c6 	addiu	$t0,$sp,710
  414098:	322e0800 	andi	$t6,$s1,0x800
  41409c:	00001025 	move	$v0,$zero
  4140a0:	0100b825 	move	$s7,$t0
  4140a4:	11c0000c 	beqz	$t6,4140d8 <_doprnt+0x65c>
  4140a8:	32340040 	andi	$s4,$s1,0x40
  4140ac:	8fb90244 	lw	$t9,580($sp)
  4140b0:	2401fff8 	li	$at,-8
  4140b4:	27380007 	addiu	$t8,$t9,7
  4140b8:	03016824 	and	$t5,$t8,$at
  4140bc:	25af0008 	addiu	$t7,$t5,8
  4140c0:	afaf0244 	sw	$t7,580($sp)
  4140c4:	8dab0004 	lw	$t3,4($t5)
  4140c8:	8daa0000 	lw	$t2,0($t5)
  4140cc:	afab028c 	sw	$t3,652($sp)
  4140d0:	10000016 	b	41412c <_doprnt+0x6b0>
  4140d4:	afaa0288 	sw	$t2,648($sp)
  4140d8:	322c0001 	andi	$t4,$s1,0x1
  4140dc:	1180000b 	beqz	$t4,41410c <_doprnt+0x690>
  4140e0:	8faa0244 	lw	$t2,580($sp)
  4140e4:	8fae0244 	lw	$t6,580($sp)
  4140e8:	24020001 	li	$v0,1
  4140ec:	25d90003 	addiu	$t9,$t6,3
  4140f0:	0329c024 	and	$t8,$t9,$t1
  4140f4:	270f0004 	addiu	$t7,$t8,4
  4140f8:	afaf0244 	sw	$t7,580($sp)
  4140fc:	8f0d0000 	lw	$t5,0($t8)
  414100:	1000000a 	b	41412c <_doprnt+0x6b0>
  414104:	afad0284 	sw	$t5,644($sp)
  414108:	8faa0244 	lw	$t2,580($sp)
  41410c:	24020001 	li	$v0,1
  414110:	254b0003 	addiu	$t3,$t2,3
  414114:	01696024 	and	$t4,$t3,$t1
  414118:	258e0004 	addiu	$t6,$t4,4
  41411c:	afae0244 	sw	$t6,580($sp)
  414120:	8d990000 	lw	$t9,0($t4)
  414124:	00000000 	nop
  414128:	afb90284 	sw	$t9,644($sp)
  41412c:	322f0400 	andi	$t7,$s1,0x400
  414130:	11e00009 	beqz	$t7,414158 <_doprnt+0x6dc>
  414134:	322c0020 	andi	$t4,$s1,0x20
  414138:	8fb9028c 	lw	$t9,652($sp)
  41413c:	00000000 	nop
  414140:	00195400 	sll	$t2,$t9,0x10
  414144:	000a5c03 	sra	$t3,$t2,0x10
  414148:	000b77c3 	sra	$t6,$t3,0x1f
  41414c:	afae0288 	sw	$t6,648($sp)
  414150:	afab028c 	sw	$t3,652($sp)
  414154:	322c0020 	andi	$t4,$s1,0x20
  414158:	11800006 	beqz	$t4,414174 <_doprnt+0x6f8>
  41415c:	00000000 	nop
  414160:	12800004 	beqz	$s4,414174 <_doprnt+0x6f8>
  414164:	2401ffdf 	li	$at,-33
  414168:	0221c024 	and	$t8,$s1,$at
  41416c:	03008825 	move	$s1,$t8
  414170:	33140040 	andi	$s4,$t8,0x40
  414174:	10400056 	beqz	$v0,4142d0 <_doprnt+0x854>
  414178:	8faa0288 	lw	$t2,648($sp)
  41417c:	8fb90284 	lw	$t9,644($sp)
  414180:	00000000 	nop
  414184:	07210013 	bgez	$t9,4141d4 <_doprnt+0x758>
  414188:	278d8acc 	addiu	$t5,$gp,-30004
  41418c:	240a0001 	li	$t2,1
  414190:	3c018000 	lui	$at,0x8000
  414194:	afad02ac 	sw	$t5,684($sp)
  414198:	13210004 	beq	$t9,$at,4141ac <_doprnt+0x730>
  41419c:	afaa029c 	sw	$t2,668($sp)
  4141a0:	00195823 	negu	$t3,$t9
  4141a4:	10000008 	b	4141c8 <_doprnt+0x74c>
  4141a8:	afab0284 	sw	$t3,644($sp)
  4141ac:	27b702c5 	addiu	$s7,$sp,709
  4141b0:	27a40284 	addiu	$a0,$sp,644
  4141b4:	0c104e48 	jal	413920 <__uscas_rldinit+0x1e8>
  4141b8:	afa8044c 	sw	$t0,1100($sp)
  4141bc:	8fa8044c 	lw	$t0,1100($sp)
  4141c0:	a2e20000 	sb	$v0,0($s7)
  4141c4:	2409fffc 	li	$t1,-4
  4141c8:	8fa60284 	lw	$a2,644($sp)
  4141cc:	10000010 	b	414210 <_doprnt+0x794>
  4141d0:	8fb90284 	lw	$t9,644($sp)
  4141d4:	8fa60284 	lw	$a2,644($sp)
  4141d8:	322e0002 	andi	$t6,$s1,0x2
  4141dc:	11c00005 	beqz	$t6,4141f4 <_doprnt+0x778>
  4141e0:	278f8ad0 	addiu	$t7,$gp,-30000
  4141e4:	240c0001 	li	$t4,1
  4141e8:	afaf02ac 	sw	$t7,684($sp)
  4141ec:	10000007 	b	41420c <_doprnt+0x790>
  4141f0:	afac029c 	sw	$t4,668($sp)
  4141f4:	32380008 	andi	$t8,$s1,0x8
  4141f8:	13000004 	beqz	$t8,41420c <_doprnt+0x790>
  4141fc:	278d8ad4 	addiu	$t5,$gp,-29996
  414200:	240a0001 	li	$t2,1
  414204:	afad02ac 	sw	$t5,684($sp)
  414208:	afaa029c 	sw	$t2,668($sp)
  41420c:	8fb90284 	lw	$t9,644($sp)
  414210:	00000000 	nop
  414214:	2b21000a 	slti	$at,$t9,10
  414218:	10200009 	beqz	$at,414240 <_doprnt+0x7c4>
  41421c:	00c02025 	move	$a0,$a2
  414220:	17200003 	bnez	$t9,414230 <_doprnt+0x7b4>
  414224:	24cb0030 	addiu	$t3,$a2,48
  414228:	168000a8 	bnez	$s4,4144cc <_doprnt+0xa50>
  41422c:	24cb0030 	addiu	$t3,$a2,48
  414230:	a2ebffff 	sb	$t3,-1($s7)
  414234:	100000a5 	b	4144cc <_doprnt+0xa50>
  414238:	26f7ffff 	addiu	$s7,$s7,-1
  41423c:	00c02025 	move	$a0,$a2
  414240:	afa6014c 	sw	$a2,332($sp)
  414244:	0c105951 	jal	416544 <_getarg+0x4c0>
  414248:	afa8044c 	sw	$t0,1100($sp)
  41424c:	8fa6014c 	lw	$a2,332($sp)
  414250:	8fa8044c 	lw	$t0,1100($sp)
  414254:	2444fffe 	addiu	$a0,$v0,-2
  414258:	2409fffc 	li	$t1,-4
  41425c:	04800016 	bltz	$a0,4142b8 <_doprnt+0x83c>
  414260:	02e2b823 	subu	$s7,$s7,$v0
  414264:	3c0f0042 	lui	$t7,0x42
  414268:	25efcc30 	addiu	$t7,$t7,-13264
  41426c:	00047080 	sll	$t6,$a0,0x2
  414270:	01cf3821 	addu	$a3,$t6,$t7
  414274:	8ce40000 	lw	$a0,0($a3)
  414278:	00002825 	move	$a1,$zero
  41427c:	00c4082a 	slt	$at,$a2,$a0
  414280:	14200005 	bnez	$at,414298 <_doprnt+0x81c>
  414284:	00000000 	nop
  414288:	00c43023 	subu	$a2,$a2,$a0
  41428c:	00c4082a 	slt	$at,$a2,$a0
  414290:	1020fffd 	beqz	$at,414288 <_doprnt+0x80c>
  414294:	24a50001 	addiu	$a1,$a1,1
  414298:	3c180042 	lui	$t8,0x42
  41429c:	2718cc30 	addiu	$t8,$t8,-13264
  4142a0:	24e7fffc 	addiu	$a3,$a3,-4
  4142a4:	00f8082b 	sltu	$at,$a3,$t8
  4142a8:	24ac0030 	addiu	$t4,$a1,48
  4142ac:	a2ec0000 	sb	$t4,0($s7)
  4142b0:	1020fff0 	beqz	$at,414274 <_doprnt+0x7f8>
  4142b4:	26f70001 	addiu	$s7,$s7,1
  4142b8:	24cd0030 	addiu	$t5,$a2,48
  4142bc:	a2ed0000 	sb	$t5,0($s7)
  4142c0:	26f70001 	addiu	$s7,$s7,1
  4142c4:	10000081 	b	4144cc <_doprnt+0xa50>
  4142c8:	02e2b823 	subu	$s7,$s7,$v0
  4142cc:	8faa0288 	lw	$t2,648($sp)
  4142d0:	8fab028c 	lw	$t3,652($sp)
  4142d4:	1d400020 	bgtz	$t2,414358 <_doprnt+0x8dc>
  4142d8:	8fae0288 	lw	$t6,648($sp)
  4142dc:	05400003 	bltz	$t2,4142ec <_doprnt+0x870>
  4142e0:	00000000 	nop
  4142e4:	1000001c 	b	414358 <_doprnt+0x8dc>
  4142e8:	8fae0288 	lw	$t6,648($sp)
  4142ec:	27998ad8 	addiu	$t9,$gp,-29992
  4142f0:	240e0001 	li	$t6,1
  4142f4:	3c018000 	lui	$at,0x8000
  4142f8:	afb902ac 	sw	$t9,684($sp)
  4142fc:	15410002 	bne	$t2,$at,414308 <_doprnt+0x88c>
  414300:	afae029c 	sw	$t6,668($sp)
  414304:	11600007 	beqz	$t3,414324 <_doprnt+0x8a8>
  414308:	2d610001 	sltiu	$at,$t3,1
  41430c:	01406027 	nor	$t4,$t2,$zero
  414310:	01816021 	addu	$t4,$t4,$at
  414314:	000b6823 	negu	$t5,$t3
  414318:	afad028c 	sw	$t5,652($sp)
  41431c:	10000008 	b	414340 <_doprnt+0x8c4>
  414320:	afac0288 	sw	$t4,648($sp)
  414324:	27b702c5 	addiu	$s7,$sp,709
  414328:	27a40288 	addiu	$a0,$sp,648
  41432c:	0c104e1c 	jal	413870 <__uscas_rldinit+0x138>
  414330:	afa8044c 	sw	$t0,1100($sp)
  414334:	8fa8044c 	lw	$t0,1100($sp)
  414338:	a2e20000 	sb	$v0,0($s7)
  41433c:	2409fffc 	li	$t1,-4
  414340:	8fb80288 	lw	$t8,648($sp)
  414344:	8fb9028c 	lw	$t9,652($sp)
  414348:	afb80130 	sw	$t8,304($sp)
  41434c:	10000012 	b	414398 <_doprnt+0x91c>
  414350:	afb90134 	sw	$t9,308($sp)
  414354:	8fae0288 	lw	$t6,648($sp)
  414358:	8faf028c 	lw	$t7,652($sp)
  41435c:	322a0002 	andi	$t2,$s1,0x2
  414360:	afae0130 	sw	$t6,304($sp)
  414364:	11400006 	beqz	$t2,414380 <_doprnt+0x904>
  414368:	afaf0134 	sw	$t7,308($sp)
  41436c:	278b8adc 	addiu	$t3,$gp,-29988
  414370:	240c0001 	li	$t4,1
  414374:	afab02ac 	sw	$t3,684($sp)
  414378:	10000007 	b	414398 <_doprnt+0x91c>
  41437c:	afac029c 	sw	$t4,668($sp)
  414380:	322d0008 	andi	$t5,$s1,0x8
  414384:	11a00004 	beqz	$t5,414398 <_doprnt+0x91c>
  414388:	27988ae0 	addiu	$t8,$gp,-29984
  41438c:	24190001 	li	$t9,1
  414390:	afb802ac 	sw	$t8,684($sp)
  414394:	afb9029c 	sw	$t9,668($sp)
  414398:	8fae0288 	lw	$t6,648($sp)
  41439c:	8faf028c 	lw	$t7,652($sp)
  4143a0:	1dc00011 	bgtz	$t6,4143e8 <_doprnt+0x96c>
  4143a4:	8fa40130 	lw	$a0,304($sp)
  4143a8:	05c00003 	bltz	$t6,4143b8 <_doprnt+0x93c>
  4143ac:	2de1000a 	sltiu	$at,$t7,10
  4143b0:	1020000d 	beqz	$at,4143e8 <_doprnt+0x96c>
  4143b4:	8fa40130 	lw	$a0,304($sp)
  4143b8:	15c00006 	bnez	$t6,4143d4 <_doprnt+0x958>
  4143bc:	8fab0134 	lw	$t3,308($sp)
  4143c0:	15e00004 	bnez	$t7,4143d4 <_doprnt+0x958>
  4143c4:	8fab0134 	lw	$t3,308($sp)
  4143c8:	16800040 	bnez	$s4,4144cc <_doprnt+0xa50>
  4143cc:	00000000 	nop
  4143d0:	8fab0134 	lw	$t3,308($sp)
  4143d4:	26f7ffff 	addiu	$s7,$s7,-1
  4143d8:	256d0030 	addiu	$t5,$t3,48
  4143dc:	1000003b 	b	4144cc <_doprnt+0xa50>
  4143e0:	a2ed0000 	sb	$t5,0($s7)
  4143e4:	8fa40130 	lw	$a0,304($sp)
  4143e8:	8fa50134 	lw	$a1,308($sp)
  4143ec:	0c105926 	jal	416498 <_getarg+0x414>
  4143f0:	afa8044c 	sw	$t0,1100($sp)
  4143f4:	8fa8044c 	lw	$t0,1100($sp)
  4143f8:	2444fffe 	addiu	$a0,$v0,-2
  4143fc:	2409fffc 	li	$t1,-4
  414400:	0480002d 	bltz	$a0,4144b8 <_doprnt+0xa3c>
  414404:	02e2b823 	subu	$s7,$s7,$v0
  414408:	3c0e0042 	lui	$t6,0x42
  41440c:	25cecba0 	addiu	$t6,$t6,-13408
  414410:	0004c8c0 	sll	$t9,$a0,0x3
  414414:	032e2821 	addu	$a1,$t9,$t6
  414418:	8caa0000 	lw	$t2,0($a1)
  41441c:	8fac0130 	lw	$t4,304($sp)
  414420:	8cab0004 	lw	$t3,4($a1)
  414424:	8fad0134 	lw	$t5,308($sp)
  414428:	018a082a 	slt	$at,$t4,$t2
  41442c:	00002025 	move	$a0,$zero
  414430:	afaa0128 	sw	$t2,296($sp)
  414434:	14200018 	bnez	$at,414498 <_doprnt+0xa1c>
  414438:	afab012c 	sw	$t3,300($sp)
  41443c:	014c082a 	slt	$at,$t2,$t4
  414440:	14200003 	bnez	$at,414450 <_doprnt+0x9d4>
  414444:	01ab082b 	sltu	$at,$t5,$t3
  414448:	14200013 	bnez	$at,414498 <_doprnt+0xa1c>
  41444c:	00000000 	nop
  414450:	8fae0130 	lw	$t6,304($sp)
  414454:	8faf0134 	lw	$t7,308($sp)
  414458:	8faa0128 	lw	$t2,296($sp)
  41445c:	8fab012c 	lw	$t3,300($sp)
  414460:	01ca6023 	subu	$t4,$t6,$t2
  414464:	01eb082b 	sltu	$at,$t7,$t3
  414468:	01816023 	subu	$t4,$t4,$at
  41446c:	014c082a 	slt	$at,$t2,$t4
  414470:	01eb6823 	subu	$t5,$t7,$t3
  414474:	24840001 	addiu	$a0,$a0,1
  414478:	afad0134 	sw	$t5,308($sp)
  41447c:	1420fff4 	bnez	$at,414450 <_doprnt+0x9d4>
  414480:	afac0130 	sw	$t4,304($sp)
  414484:	018a082a 	slt	$at,$t4,$t2
  414488:	14200003 	bnez	$at,414498 <_doprnt+0xa1c>
  41448c:	01ab082b 	sltu	$at,$t5,$t3
  414490:	1020fff0 	beqz	$at,414454 <_doprnt+0x9d8>
  414494:	8fae0130 	lw	$t6,304($sp)
  414498:	3c190042 	lui	$t9,0x42
  41449c:	2739cba0 	addiu	$t9,$t9,-13408
  4144a0:	24a5fff8 	addiu	$a1,$a1,-8
  4144a4:	00b9082b 	sltu	$at,$a1,$t9
  4144a8:	24980030 	addiu	$t8,$a0,48
  4144ac:	a2f80000 	sb	$t8,0($s7)
  4144b0:	1020ffd9 	beqz	$at,414418 <_doprnt+0x99c>
  4144b4:	26f70001 	addiu	$s7,$s7,1
  4144b8:	8faf0134 	lw	$t7,308($sp)
  4144bc:	26f70001 	addiu	$s7,$s7,1
  4144c0:	25ed0030 	addiu	$t5,$t7,48
  4144c4:	a2edffff 	sb	$t5,-1($s7)
  4144c8:	02e2b823 	subu	$s7,$s7,$v0
  4144cc:	12800483 	beqz	$s4,4156dc <_doprnt+0x1c60>
  4144d0:	27ab02c6 	addiu	$t3,$sp,710
  4144d4:	0177c023 	subu	$t8,$t3,$s7
  4144d8:	02d81023 	subu	$v0,$s6,$t8
  4144dc:	1840047f 	blez	$v0,4156dc <_doprnt+0x1c60>
  4144e0:	36390200 	ori	$t9,$s1,0x200
  4144e4:	afa2043c 	sw	$v0,1084($sp)
  4144e8:	afa20294 	sw	$v0,660($sp)
  4144ec:	1000047b 	b	4156dc <_doprnt+0x1c60>
  4144f0:	03208825 	move	$s1,$t9
  4144f4:	27a802c6 	addiu	$t0,$sp,710
  4144f8:	322f0800 	andi	$t7,$s1,0x800
  4144fc:	0100b825 	move	$s7,$t0
  414500:	11e0000c 	beqz	$t7,414534 <_doprnt+0xab8>
  414504:	32340040 	andi	$s4,$s1,0x40
  414508:	8fac0244 	lw	$t4,580($sp)
  41450c:	2401fff8 	li	$at,-8
  414510:	258d0007 	addiu	$t5,$t4,7
  414514:	01a15024 	and	$t2,$t5,$at
  414518:	254b0008 	addiu	$t3,$t2,8
  41451c:	afab0244 	sw	$t3,580($sp)
  414520:	8d590004 	lw	$t9,4($t2)
  414524:	8d580000 	lw	$t8,0($t2)
  414528:	afb9028c 	sw	$t9,652($sp)
  41452c:	10000017 	b	41458c <_doprnt+0xb10>
  414530:	afb80288 	sw	$t8,648($sp)
  414534:	322e0001 	andi	$t6,$s1,0x1
  414538:	11c0000c 	beqz	$t6,41456c <_doprnt+0xaf0>
  41453c:	8fae0244 	lw	$t6,580($sp)
  414540:	8faf0244 	lw	$t7,580($sp)
  414544:	24180000 	li	$t8,0
  414548:	25ec0003 	addiu	$t4,$t7,3
  41454c:	01896824 	and	$t5,$t4,$t1
  414550:	25ab0004 	addiu	$t3,$t5,4
  414554:	afab0244 	sw	$t3,580($sp)
  414558:	8daa0000 	lw	$t2,0($t5)
  41455c:	afb80288 	sw	$t8,648($sp)
  414560:	1000000a 	b	41458c <_doprnt+0xb10>
  414564:	afaa028c 	sw	$t2,652($sp)
  414568:	8fae0244 	lw	$t6,580($sp)
  41456c:	240a0000 	li	$t2,0
  414570:	25cf0003 	addiu	$t7,$t6,3
  414574:	01e96024 	and	$t4,$t7,$t1
  414578:	258b0004 	addiu	$t3,$t4,4
  41457c:	afab0244 	sw	$t3,580($sp)
  414580:	8d8d0000 	lw	$t5,0($t4)
  414584:	afaa0288 	sw	$t2,648($sp)
  414588:	afad028c 	sw	$t5,652($sp)
  41458c:	32380400 	andi	$t8,$s1,0x400
  414590:	13000007 	beqz	$t8,4145b0 <_doprnt+0xb34>
  414594:	322d0020 	andi	$t5,$s1,0x20
  414598:	8faf028c 	lw	$t7,652($sp)
  41459c:	240a0000 	li	$t2,0
  4145a0:	31ecffff 	andi	$t4,$t7,0xffff
  4145a4:	afac028c 	sw	$t4,652($sp)
  4145a8:	afaa0288 	sw	$t2,648($sp)
  4145ac:	322d0020 	andi	$t5,$s1,0x20
  4145b0:	11a00007 	beqz	$t5,4145d0 <_doprnt+0xb54>
  4145b4:	8fae0288 	lw	$t6,648($sp)
  4145b8:	12800004 	beqz	$s4,4145cc <_doprnt+0xb50>
  4145bc:	2401ffdf 	li	$at,-33
  4145c0:	0221c024 	and	$t8,$s1,$at
  4145c4:	03008825 	move	$s1,$t8
  4145c8:	33140040 	andi	$s4,$t8,0x40
  4145cc:	8fae0288 	lw	$t6,648($sp)
  4145d0:	8faf028c 	lw	$t7,652($sp)
  4145d4:	000e6000 	sll	$t4,$t6,0x0
  4145d8:	05800003 	bltz	$t4,4145e8 <_doprnt+0xb6c>
  4145dc:	31ed0000 	andi	$t5,$t7,0x0
  4145e0:	11a00009 	beqz	$t5,414608 <_doprnt+0xb8c>
  4145e4:	8faa0288 	lw	$t2,648($sp)
  4145e8:	27b702c5 	addiu	$s7,$sp,709
  4145ec:	27a40288 	addiu	$a0,$sp,648
  4145f0:	0c104e1c 	jal	413870 <__uscas_rldinit+0x138>
  4145f4:	afa8044c 	sw	$t0,1100($sp)
  4145f8:	8fa8044c 	lw	$t0,1100($sp)
  4145fc:	a2e20000 	sb	$v0,0($s7)
  414600:	2409fffc 	li	$t1,-4
  414604:	8faa0288 	lw	$t2,648($sp)
  414608:	8fab028c 	lw	$t3,652($sp)
  41460c:	afaa0130 	sw	$t2,304($sp)
  414610:	1000ff61 	b	414398 <_doprnt+0x91c>
  414614:	afab0134 	sw	$t3,308($sp)
  414618:	27a802c6 	addiu	$t0,$sp,710
  41461c:	24050007 	li	$a1,7
  414620:	24060002 	li	$a2,2
  414624:	0100b825 	move	$s7,$t0
  414628:	10000006 	b	414644 <_doprnt+0xbc8>
  41462c:	32340040 	andi	$s4,$s1,0x40
  414630:	27a802c6 	addiu	$t0,$sp,710
  414634:	2405000f 	li	$a1,15
  414638:	24060003 	li	$a2,3
  41463c:	0100b825 	move	$s7,$t0
  414640:	32340040 	andi	$s4,$s1,0x40
  414644:	322e0800 	andi	$t6,$s1,0x800
  414648:	11c0000d 	beqz	$t6,414680 <_doprnt+0xc04>
  41464c:	322b0001 	andi	$t3,$s1,0x1
  414650:	8faf0244 	lw	$t7,580($sp)
  414654:	2401fff8 	li	$at,-8
  414658:	25ec0007 	addiu	$t4,$t7,7
  41465c:	01816824 	and	$t5,$t4,$at
  414660:	25aa0008 	addiu	$t2,$t5,8
  414664:	afaa0244 	sw	$t2,580($sp)
  414668:	8db90004 	lw	$t9,4($t5)
  41466c:	8db80000 	lw	$t8,0($t5)
  414670:	afb9028c 	sw	$t9,652($sp)
  414674:	10000019 	b	4146dc <_doprnt+0xc60>
  414678:	afb80288 	sw	$t8,648($sp)
  41467c:	322b0001 	andi	$t3,$s1,0x1
  414680:	1160000e 	beqz	$t3,4146bc <_doprnt+0xc40>
  414684:	8fab0244 	lw	$t3,580($sp)
  414688:	8fae0244 	lw	$t6,580($sp)
  41468c:	00000000 	nop
  414690:	25cf0003 	addiu	$t7,$t6,3
  414694:	01e96024 	and	$t4,$t7,$t1
  414698:	258a0004 	addiu	$t2,$t4,4
  41469c:	afaa0244 	sw	$t2,580($sp)
  4146a0:	8d8d0000 	lw	$t5,0($t4)
  4146a4:	00000000 	nop
  4146a8:	000dc7c3 	sra	$t8,$t5,0x1f
  4146ac:	afb80288 	sw	$t8,648($sp)
  4146b0:	1000000a 	b	4146dc <_doprnt+0xc60>
  4146b4:	afad028c 	sw	$t5,652($sp)
  4146b8:	8fab0244 	lw	$t3,580($sp)
  4146bc:	24180000 	li	$t8,0
  4146c0:	256e0003 	addiu	$t6,$t3,3
  4146c4:	01c97824 	and	$t7,$t6,$t1
  4146c8:	25ea0004 	addiu	$t2,$t7,4
  4146cc:	afaa0244 	sw	$t2,580($sp)
  4146d0:	8dec0000 	lw	$t4,0($t7)
  4146d4:	afb80288 	sw	$t8,648($sp)
  4146d8:	afac028c 	sw	$t4,652($sp)
  4146dc:	322d0400 	andi	$t5,$s1,0x400
  4146e0:	11a00007 	beqz	$t5,414700 <_doprnt+0xc84>
  4146e4:	32380020 	andi	$t8,$s1,0x20
  4146e8:	8faf028c 	lw	$t7,652($sp)
  4146ec:	240c0000 	li	$t4,0
  4146f0:	31eaffff 	andi	$t2,$t7,0xffff
  4146f4:	afaa028c 	sw	$t2,652($sp)
  4146f8:	afac0288 	sw	$t4,648($sp)
  4146fc:	32380020 	andi	$t8,$s1,0x20
  414700:	13000007 	beqz	$t8,414720 <_doprnt+0xca4>
  414704:	24010058 	li	$at,88
  414708:	12800004 	beqz	$s4,41471c <_doprnt+0xca0>
  41470c:	2401ffdf 	li	$at,-33
  414710:	0221c824 	and	$t9,$s1,$at
  414714:	03208825 	move	$s1,$t9
  414718:	33340040 	andi	$s4,$t9,0x40
  41471c:	24010058 	li	$at,88
  414720:	16010004 	bne	$s0,$at,414734 <_doprnt+0xcb8>
  414724:	32220001 	andi	$v0,$s1,0x1
  414728:	3c120042 	lui	$s2,0x42
  41472c:	10000003 	b	41473c <_doprnt+0xcc0>
  414730:	2652cc84 	addiu	$s2,$s2,-13180
  414734:	3c120042 	lui	$s2,0x42
  414738:	2652cc98 	addiu	$s2,$s2,-13160
  41473c:	8fae0288 	lw	$t6,648($sp)
  414740:	8faf028c 	lw	$t7,652($sp)
  414744:	afae0110 	sw	$t6,272($sp)
  414748:	10400004 	beqz	$v0,41475c <_doprnt+0xce0>
  41474c:	afaf0114 	sw	$t7,276($sp)
  414750:	240a0000 	li	$t2,0
  414754:	afaa0110 	sw	$t2,272($sp)
  414758:	afaf0114 	sw	$t7,276($sp)
  41475c:	8fac0110 	lw	$t4,272($sp)
  414760:	8fad0114 	lw	$t5,276($sp)
  414764:	1580000d 	bnez	$t4,41479c <_doprnt+0xd20>
  414768:	000557c3 	sra	$t2,$a1,0x1f
  41476c:	15a0000b 	bnez	$t5,41479c <_doprnt+0xd20>
  414770:	000557c3 	sra	$t2,$a1,0x1f
  414774:	1680002a 	bnez	$s4,414820 <_doprnt+0xda4>
  414778:	24180001 	li	$t8,1
  41477c:	24190001 	li	$t9,1
  414780:	362e0200 	ori	$t6,$s1,0x200
  414784:	afb90294 	sw	$t9,660($sp)
  414788:	afb8043c 	sw	$t8,1084($sp)
  41478c:	01c08825 	move	$s1,$t6
  414790:	10000023 	b	414820 <_doprnt+0xda4>
  414794:	31d40040 	andi	$s4,$t6,0x40
  414798:	000557c3 	sra	$t2,$a1,0x1f
  41479c:	000667c3 	sra	$t4,$a2,0x1f
  4147a0:	afac0060 	sw	$t4,96($sp)
  4147a4:	afaa0068 	sw	$t2,104($sp)
  4147a8:	afa5006c 	sw	$a1,108($sp)
  4147ac:	afa60064 	sw	$a2,100($sp)
  4147b0:	8fb9006c 	lw	$t9,108($sp)
  4147b4:	8faf0114 	lw	$t7,276($sp)
  4147b8:	26f7ffff 	addiu	$s7,$s7,-1
  4147bc:	032f5824 	and	$t3,$t9,$t7
  4147c0:	01726821 	addu	$t5,$t3,$s2
  4147c4:	91b80000 	lbu	$t8,0($t5)
  4147c8:	24060000 	li	$a2,0
  4147cc:	a2f80000 	sb	$t8,0($s7)
  4147d0:	8fa50114 	lw	$a1,276($sp)
  4147d4:	8fa40110 	lw	$a0,272($sp)
  4147d8:	afa8044c 	sw	$t0,1100($sp)
  4147dc:	0c1063f6 	jal	418fd8 <__ll_rshift>
  4147e0:	24070001 	li	$a3,1
  4147e4:	3c017fff 	lui	$at,0x7fff
  4147e8:	3421ffff 	ori	$at,$at,0xffff
  4147ec:	00412024 	and	$a0,$v0,$at
  4147f0:	2401ffff 	li	$at,-1
  4147f4:	8fa60060 	lw	$a2,96($sp)
  4147f8:	8fa70064 	lw	$a3,100($sp)
  4147fc:	0c1063f6 	jal	418fd8 <__ll_rshift>
  414800:	00612824 	and	$a1,$v1,$at
  414804:	8fa8044c 	lw	$t0,1100($sp)
  414808:	2409fffc 	li	$t1,-4
  41480c:	afa20110 	sw	$v0,272($sp)
  414810:	1440ffe7 	bnez	$v0,4147b0 <_doprnt+0xd34>
  414814:	afa30114 	sw	$v1,276($sp)
  414818:	1460ffe6 	bnez	$v1,4147b4 <_doprnt+0xd38>
  41481c:	8fb9006c 	lw	$t9,108($sp)
  414820:	12800008 	beqz	$s4,414844 <_doprnt+0xdc8>
  414824:	27b902c6 	addiu	$t9,$sp,710
  414828:	03377023 	subu	$t6,$t9,$s7
  41482c:	02ce1023 	subu	$v0,$s6,$t6
  414830:	18400004 	blez	$v0,414844 <_doprnt+0xdc8>
  414834:	362f0200 	ori	$t7,$s1,0x200
  414838:	afa2043c 	sw	$v0,1084($sp)
  41483c:	afa20294 	sw	$v0,660($sp)
  414840:	01e08825 	move	$s1,$t7
  414844:	322a0010 	andi	$t2,$s1,0x10
  414848:	114003a5 	beqz	$t2,4156e0 <_doprnt+0x1c64>
  41484c:	8fb9025c 	lw	$t9,604($sp)
  414850:	8fac0288 	lw	$t4,648($sp)
  414854:	8fad028c 	lw	$t5,652($sp)
  414858:	15800003 	bnez	$t4,414868 <_doprnt+0xdec>
  41485c:	24010058 	li	$at,88
  414860:	11a0039e 	beqz	$t5,4156dc <_doprnt+0x1c60>
  414864:	24010058 	li	$at,88
  414868:	12010015 	beq	$s0,$at,4148c0 <_doprnt+0xe44>
  41486c:	2401006f 	li	$at,111
  414870:	12010005 	beq	$s0,$at,414888 <_doprnt+0xe0c>
  414874:	24010078 	li	$at,120
  414878:	1201000c 	beq	$s0,$at,4148ac <_doprnt+0xe30>
  41487c:	00000000 	nop
  414880:	10000397 	b	4156e0 <_doprnt+0x1c64>
  414884:	8fb9025c 	lw	$t9,604($sp)
  414888:	322b0200 	andi	$t3,$s1,0x200
  41488c:	15600393 	bnez	$t3,4156dc <_doprnt+0x1c60>
  414890:	24180001 	li	$t8,1
  414894:	24190001 	li	$t9,1
  414898:	362e0200 	ori	$t6,$s1,0x200
  41489c:	afb90294 	sw	$t9,660($sp)
  4148a0:	afb8043c 	sw	$t8,1084($sp)
  4148a4:	1000038d 	b	4156dc <_doprnt+0x1c60>
  4148a8:	01c08825 	move	$s1,$t6
  4148ac:	278f8ae4 	addiu	$t7,$gp,-29980
  4148b0:	240a0002 	li	$t2,2
  4148b4:	afaf02ac 	sw	$t7,684($sp)
  4148b8:	10000388 	b	4156dc <_doprnt+0x1c60>
  4148bc:	afaa029c 	sw	$t2,668($sp)
  4148c0:	278c8ae8 	addiu	$t4,$gp,-29976
  4148c4:	240d0002 	li	$t5,2
  4148c8:	afac02ac 	sw	$t4,684($sp)
  4148cc:	10000383 	b	4156dc <_doprnt+0x1c60>
  4148d0:	afad029c 	sw	$t5,668($sp)
  4148d4:	322b0040 	andi	$t3,$s1,0x40
  4148d8:	15600003 	bnez	$t3,4148e8 <_doprnt+0xe6c>
  4148dc:	8fb80244 	lw	$t8,580($sp)
  4148e0:	24160006 	li	$s6,6
  4148e4:	8fb80244 	lw	$t8,580($sp)
  4148e8:	00000000 	nop
  4148ec:	33190001 	andi	$t9,$t8,0x1
  4148f0:	13200008 	beqz	$t9,414914 <_doprnt+0xe98>
  4148f4:	8faa0244 	lw	$t2,580($sp)
  4148f8:	8fae0244 	lw	$t6,580($sp)
  4148fc:	00000000 	nop
  414900:	25cf0007 	addiu	$t7,$t6,7
  414904:	afaf0244 	sw	$t7,580($sp)
  414908:	10000013 	b	414958 <_doprnt+0xedc>
  41490c:	25e6ffea 	addiu	$a2,$t7,-22
  414910:	8faa0244 	lw	$t2,580($sp)
  414914:	00000000 	nop
  414918:	314c0002 	andi	$t4,$t2,0x2
  41491c:	11800008 	beqz	$t4,414940 <_doprnt+0xec4>
  414920:	8fb80244 	lw	$t8,580($sp)
  414924:	8fad0244 	lw	$t5,580($sp)
  414928:	00000000 	nop
  41492c:	25ab000a 	addiu	$t3,$t5,10
  414930:	afab0244 	sw	$t3,580($sp)
  414934:	10000007 	b	414954 <_doprnt+0xed8>
  414938:	2562ffd8 	addiu	$v0,$t3,-40
  41493c:	8fb80244 	lw	$t8,580($sp)
  414940:	2401fff8 	li	$at,-8
  414944:	27190007 	addiu	$t9,$t8,7
  414948:	03217024 	and	$t6,$t9,$at
  41494c:	25c20008 	addiu	$v0,$t6,8
  414950:	afa20244 	sw	$v0,580($sp)
  414954:	00403025 	move	$a2,$v0
  414958:	c4c5fff8 	lwc1	$f5,-8($a2)
  41495c:	c4c4fffc 	lwc1	$f4,-4($a2)
  414960:	e7a50278 	swc1	$f5,632($sp)
  414964:	8fa20278 	lw	$v0,632($sp)
  414968:	240107ff 	li	$at,2047
  41496c:	00025040 	sll	$t2,$v0,0x1
  414970:	000a6542 	srl	$t4,$t2,0x15
  414974:	15810022 	bne	$t4,$at,414a00 <_doprnt+0xf84>
  414978:	e7a4027c 	swc1	$f4,636($sp)
  41497c:	240d0001 	li	$t5,1
  414980:	00025b00 	sll	$t3,$v0,0xc
  414984:	15600011 	bnez	$t3,4149cc <_doprnt+0xf50>
  414988:	afad025c 	sw	$t5,604($sp)
  41498c:	8fb8027c 	lw	$t8,636($sp)
  414990:	00000000 	nop
  414994:	1700000d 	bnez	$t8,4149cc <_doprnt+0xf50>
  414998:	0002cfc2 	srl	$t9,$v0,0x1f
  41499c:	24010001 	li	$at,1
  4149a0:	17210002 	bne	$t9,$at,4149ac <_doprnt+0xf30>
  4149a4:	240e0001 	li	$t6,1
  4149a8:	afae0250 	sw	$t6,592($sp)
  4149ac:	24010045 	li	$at,69
  4149b0:	14610003 	bne	$v1,$at,4149c0 <_doprnt+0xf44>
  4149b4:	27978ac4 	addiu	$s7,$gp,-30012
  4149b8:	10000348 	b	4156dc <_doprnt+0x1c60>
  4149bc:	26e80003 	addiu	$t0,$s7,3
  4149c0:	27978ac0 	addiu	$s7,$gp,-30016
  4149c4:	10000345 	b	4156dc <_doprnt+0x1c60>
  4149c8:	26e80003 	addiu	$t0,$s7,3
  4149cc:	00027fc2 	srl	$t7,$v0,0x1f
  4149d0:	24010001 	li	$at,1
  4149d4:	15e10002 	bne	$t7,$at,4149e0 <_doprnt+0xf64>
  4149d8:	240a0001 	li	$t2,1
  4149dc:	afaa0250 	sw	$t2,592($sp)
  4149e0:	24010045 	li	$at,69
  4149e4:	14610003 	bne	$v1,$at,4149f4 <_doprnt+0xf78>
  4149e8:	27978ab8 	addiu	$s7,$gp,-30024
  4149ec:	1000033b 	b	4156dc <_doprnt+0x1c60>
  4149f0:	26e80003 	addiu	$t0,$s7,3
  4149f4:	27978ab0 	addiu	$s7,$gp,-30032
  4149f8:	10000338 	b	4156dc <_doprnt+0x1c60>
  4149fc:	26e80003 	addiu	$t0,$s7,3
  414a00:	26c20001 	addiu	$v0,$s6,1
  414a04:	28410011 	slti	$at,$v0,17
  414a08:	10200003 	beqz	$at,414a18 <_doprnt+0xf9c>
  414a0c:	02c0a025 	move	$s4,$s6
  414a10:	10000002 	b	414a1c <_doprnt+0xfa0>
  414a14:	00403025 	move	$a2,$v0
  414a18:	24060011 	li	$a2,17
  414a1c:	c7ad0278 	lwc1	$f13,632($sp)
  414a20:	c7ac027c 	lwc1	$f12,636($sp)
  414a24:	27ac0270 	addiu	$t4,$sp,624
  414a28:	27ad016c 	addiu	$t5,$sp,364
  414a2c:	afad0014 	sw	$t5,20($sp)
  414a30:	afac0010 	sw	$t4,16($sp)
  414a34:	0c106110 	jal	418440 <_ecvt_r>
  414a38:	27a70274 	addiu	$a3,$sp,628
  414a3c:	2409fffc 	li	$t1,-4
  414a40:	0040b825 	move	$s7,$v0
  414a44:	8fab0270 	lw	$t3,624($sp)
  414a48:	00000000 	nop
  414a4c:	11600006 	beqz	$t3,414a68 <_doprnt+0xfec>
  414a50:	00000000 	nop
  414a54:	27988aec 	addiu	$t8,$gp,-29972
  414a58:	24190001 	li	$t9,1
  414a5c:	afb802ac 	sw	$t8,684($sp)
  414a60:	10000010 	b	414aa4 <_doprnt+0x1028>
  414a64:	afb9029c 	sw	$t9,668($sp)
  414a68:	322e0002 	andi	$t6,$s1,0x2
  414a6c:	11c00006 	beqz	$t6,414a88 <_doprnt+0x100c>
  414a70:	00000000 	nop
  414a74:	278f8af0 	addiu	$t7,$gp,-29968
  414a78:	240a0001 	li	$t2,1
  414a7c:	afaf02ac 	sw	$t7,684($sp)
  414a80:	10000008 	b	414aa4 <_doprnt+0x1028>
  414a84:	afaa029c 	sw	$t2,668($sp)
  414a88:	322c0008 	andi	$t4,$s1,0x8
  414a8c:	11800005 	beqz	$t4,414aa4 <_doprnt+0x1028>
  414a90:	00000000 	nop
  414a94:	278d8af4 	addiu	$t5,$gp,-29964
  414a98:	240b0001 	li	$t3,1
  414a9c:	afad02ac 	sw	$t5,684($sp)
  414aa0:	afab029c 	sw	$t3,668($sp)
  414aa4:	92e20000 	lbu	$v0,0($s7)
  414aa8:	00000000 	nop
  414aac:	10400004 	beqz	$v0,414ac0 <_doprnt+0x1044>
  414ab0:	00000000 	nop
  414ab4:	a3a202b0 	sb	$v0,688($sp)
  414ab8:	10000003 	b	414ac8 <_doprnt+0x104c>
  414abc:	26f70001 	addiu	$s7,$s7,1
  414ac0:	24180030 	li	$t8,48
  414ac4:	a3b802b0 	sb	$t8,688($sp)
  414ac8:	16c00004 	bnez	$s6,414adc <_doprnt+0x1060>
  414acc:	27a802b1 	addiu	$t0,$sp,689
  414ad0:	32390010 	andi	$t9,$s1,0x10
  414ad4:	13200004 	beqz	$t9,414ae8 <_doprnt+0x106c>
  414ad8:	00000000 	nop
  414adc:	938e8b30 	lbu	$t6,-29904($gp)
  414ae0:	25080001 	addiu	$t0,$t0,1
  414ae4:	a10effff 	sb	$t6,-1($t0)
  414ae8:	1ac0000e 	blez	$s6,414b24 <_doprnt+0x10a8>
  414aec:	00000000 	nop
  414af0:	92e20000 	lbu	$v0,0($s7)
  414af4:	00000000 	nop
  414af8:	1040000a 	beqz	$v0,414b24 <_doprnt+0x10a8>
  414afc:	00000000 	nop
  414b00:	2694ffff 	addiu	$s4,$s4,-1
  414b04:	a1020000 	sb	$v0,0($t0)
  414b08:	25080001 	addiu	$t0,$t0,1
  414b0c:	1a800005 	blez	$s4,414b24 <_doprnt+0x10a8>
  414b10:	26f70001 	addiu	$s7,$s7,1
  414b14:	92e20000 	lbu	$v0,0($s7)
  414b18:	00000000 	nop
  414b1c:	1440fff8 	bnez	$v0,414b00 <_doprnt+0x1084>
  414b20:	00000000 	nop
  414b24:	1a800005 	blez	$s4,414b3c <_doprnt+0x10c0>
  414b28:	00000000 	nop
  414b2c:	362f0100 	ori	$t7,$s1,0x100
  414b30:	afb40438 	sw	$s4,1080($sp)
  414b34:	afb40294 	sw	$s4,660($sp)
  414b38:	01e08825 	move	$s1,$t7
  414b3c:	c7a70278 	lwc1	$f7,632($sp)
  414b40:	c7a6027c 	lwc1	$f6,636($sp)
  414b44:	27aa02a5 	addiu	$t2,$sp,677
  414b48:	46343032 	c.eq.d	$f6,$f20
  414b4c:	27b702b0 	addiu	$s7,$sp,688
  414b50:	afaa02a8 	sw	$t2,680($sp)
  414b54:	45010023 	bc1t	414be4 <_doprnt+0x1168>
  414b58:	a3a002a5 	sb	$zero,677($sp)
  414b5c:	8fa30274 	lw	$v1,628($sp)
  414b60:	00000000 	nop
  414b64:	2463ffff 	addiu	$v1,$v1,-1
  414b68:	04610002 	bgez	$v1,414b74 <_doprnt+0x10f8>
  414b6c:	00601025 	move	$v0,$v1
  414b70:	00031023 	negu	$v0,$v1
  414b74:	2841000a 	slti	$at,$v0,10
  414b78:	14200016 	bnez	$at,414bd4 <_doprnt+0x1158>
  414b7c:	8fa302a8 	lw	$v1,680($sp)
  414b80:	8fa402a8 	lw	$a0,680($sp)
  414b84:	2403000a 	li	$v1,10
  414b88:	0043001a 	div	$zero,$v0,$v1
  414b8c:	2484ffff 	addiu	$a0,$a0,-1
  414b90:	14600002 	bnez	$v1,414b9c <_doprnt+0x1120>
  414b94:	00000000 	nop
  414b98:	0007000d 	break	0x7
  414b9c:	2401ffff 	li	$at,-1
  414ba0:	14610004 	bne	$v1,$at,414bb4 <_doprnt+0x1138>
  414ba4:	3c018000 	lui	$at,0x8000
  414ba8:	14410002 	bne	$v0,$at,414bb4 <_doprnt+0x1138>
  414bac:	00000000 	nop
  414bb0:	0006000d 	break	0x6
  414bb4:	00001012 	mflo	$v0
  414bb8:	00006010 	mfhi	$t4
  414bbc:	2841000a 	slti	$at,$v0,10
  414bc0:	258d0030 	addiu	$t5,$t4,48
  414bc4:	1020fff0 	beqz	$at,414b88 <_doprnt+0x110c>
  414bc8:	a08d0000 	sb	$t5,0($a0)
  414bcc:	afa402a8 	sw	$a0,680($sp)
  414bd0:	8fa302a8 	lw	$v1,680($sp)
  414bd4:	244b0030 	addiu	$t3,$v0,48
  414bd8:	a06bffff 	sb	$t3,-1($v1)
  414bdc:	2463ffff 	addiu	$v1,$v1,-1
  414be0:	afa302a8 	sw	$v1,680($sp)
  414be4:	8fb902a8 	lw	$t9,680($sp)
  414be8:	27b802a3 	addiu	$t8,$sp,675
  414bec:	0319082b 	sltu	$at,$t8,$t9
  414bf0:	10200008 	beqz	$at,414c14 <_doprnt+0x1198>
  414bf4:	27a402a3 	addiu	$a0,$sp,675
  414bf8:	24030030 	li	$v1,48
  414bfc:	03201025 	move	$v0,$t9
  414c00:	2442ffff 	addiu	$v0,$v0,-1
  414c04:	0082082b 	sltu	$at,$a0,$v0
  414c08:	1420fffd 	bnez	$at,414c00 <_doprnt+0x1184>
  414c0c:	a0430000 	sb	$v1,0($v0)
  414c10:	afa202a8 	sw	$v0,680($sp)
  414c14:	8fae02a8 	lw	$t6,680($sp)
  414c18:	8faa0274 	lw	$t2,628($sp)
  414c1c:	25cfffff 	addiu	$t7,$t6,-1
  414c20:	1d400008 	bgtz	$t2,414c44 <_doprnt+0x11c8>
  414c24:	afaf02a8 	sw	$t7,680($sp)
  414c28:	c7a90278 	lwc1	$f9,632($sp)
  414c2c:	c7a8027c 	lwc1	$f8,636($sp)
  414c30:	00000000 	nop
  414c34:	46344032 	c.eq.d	$f8,$f20
  414c38:	00000000 	nop
  414c3c:	45000006 	bc1f	414c58 <_doprnt+0x11dc>
  414c40:	8fb802a8 	lw	$t8,680($sp)
  414c44:	8fad02a8 	lw	$t5,680($sp)
  414c48:	240c002b 	li	$t4,43
  414c4c:	10000004 	b	414c60 <_doprnt+0x11e4>
  414c50:	a1ac0000 	sb	$t4,0($t5)
  414c54:	8fb802a8 	lw	$t8,680($sp)
  414c58:	240b002d 	li	$t3,45
  414c5c:	a30b0000 	sb	$t3,0($t8)
  414c60:	3c0f0042 	lui	$t7,0x42
  414c64:	01f07821 	addu	$t7,$t7,$s0
  414c68:	91efd751 	lbu	$t7,-10415($t7)
  414c6c:	8fb902a8 	lw	$t9,680($sp)
  414c70:	31ea0001 	andi	$t2,$t7,0x1
  414c74:	272effff 	addiu	$t6,$t9,-1
  414c78:	11400004 	beqz	$t2,414c8c <_doprnt+0x1210>
  414c7c:	afae02a8 	sw	$t6,680($sp)
  414c80:	240c0045 	li	$t4,69
  414c84:	10000004 	b	414c98 <_doprnt+0x121c>
  414c88:	a1cc0000 	sb	$t4,0($t6)
  414c8c:	8fab02a8 	lw	$t3,680($sp)
  414c90:	240d0065 	li	$t5,101
  414c94:	a16d0000 	sb	$t5,0($t3)
  414c98:	8fb802a8 	lw	$t8,680($sp)
  414c9c:	27b902a0 	addiu	$t9,$sp,672
  414ca0:	8faf0294 	lw	$t7,660($sp)
  414ca4:	03381023 	subu	$v0,$t9,$t8
  414ca8:	24420005 	addiu	$v0,$v0,5
  414cac:	362c0080 	ori	$t4,$s1,0x80
  414cb0:	01e25021 	addu	$t2,$t7,$v0
  414cb4:	afaa0294 	sw	$t2,660($sp)
  414cb8:	afa20298 	sw	$v0,664($sp)
  414cbc:	10000287 	b	4156dc <_doprnt+0x1c60>
  414cc0:	01808825 	move	$s1,$t4
  414cc4:	32340040 	andi	$s4,$s1,0x40
  414cc8:	16800003 	bnez	$s4,414cd8 <_doprnt+0x125c>
  414ccc:	8fae0244 	lw	$t6,580($sp)
  414cd0:	24160006 	li	$s6,6
  414cd4:	8fae0244 	lw	$t6,580($sp)
  414cd8:	00000000 	nop
  414cdc:	31cd0001 	andi	$t5,$t6,0x1
  414ce0:	11a00008 	beqz	$t5,414d04 <_doprnt+0x1288>
  414ce4:	8fb80244 	lw	$t8,580($sp)
  414ce8:	8fab0244 	lw	$t3,580($sp)
  414cec:	00000000 	nop
  414cf0:	25790007 	addiu	$t9,$t3,7
  414cf4:	afb90244 	sw	$t9,580($sp)
  414cf8:	10000013 	b	414d48 <_doprnt+0x12cc>
  414cfc:	2726ffea 	addiu	$a2,$t9,-22
  414d00:	8fb80244 	lw	$t8,580($sp)
  414d04:	00000000 	nop
  414d08:	330f0002 	andi	$t7,$t8,0x2
  414d0c:	11e00008 	beqz	$t7,414d30 <_doprnt+0x12b4>
  414d10:	8fae0244 	lw	$t6,580($sp)
  414d14:	8faa0244 	lw	$t2,580($sp)
  414d18:	00000000 	nop
  414d1c:	254c000a 	addiu	$t4,$t2,10
  414d20:	afac0244 	sw	$t4,580($sp)
  414d24:	10000007 	b	414d44 <_doprnt+0x12c8>
  414d28:	2582ffd8 	addiu	$v0,$t4,-40
  414d2c:	8fae0244 	lw	$t6,580($sp)
  414d30:	2401fff8 	li	$at,-8
  414d34:	25cd0007 	addiu	$t5,$t6,7
  414d38:	01a15824 	and	$t3,$t5,$at
  414d3c:	25620008 	addiu	$v0,$t3,8
  414d40:	afa20244 	sw	$v0,580($sp)
  414d44:	00403025 	move	$a2,$v0
  414d48:	c4cbfff8 	lwc1	$f11,-8($a2)
  414d4c:	c4cafffc 	lwc1	$f10,-4($a2)
  414d50:	e7ab0278 	swc1	$f11,632($sp)
  414d54:	8fa20278 	lw	$v0,632($sp)
  414d58:	240107ff 	li	$at,2047
  414d5c:	0002c040 	sll	$t8,$v0,0x1
  414d60:	00187d42 	srl	$t7,$t8,0x15
  414d64:	15e1002a 	bne	$t7,$at,414e10 <_doprnt+0x1394>
  414d68:	e7aa027c 	swc1	$f10,636($sp)
  414d6c:	3c01000f 	lui	$at,0xf
  414d70:	3421ffff 	ori	$at,$at,0xffff
  414d74:	00412024 	and	$a0,$v0,$at
  414d78:	240a0001 	li	$t2,1
  414d7c:	1480000c 	bnez	$a0,414db0 <_doprnt+0x1334>
  414d80:	afaa025c 	sw	$t2,604($sp)
  414d84:	8fac027c 	lw	$t4,636($sp)
  414d88:	00000000 	nop
  414d8c:	15800008 	bnez	$t4,414db0 <_doprnt+0x1334>
  414d90:	000277c2 	srl	$t6,$v0,0x1f
  414d94:	24010001 	li	$at,1
  414d98:	27978ac0 	addiu	$s7,$gp,-30016
  414d9c:	15c1024f 	bne	$t6,$at,4156dc <_doprnt+0x1c60>
  414da0:	27888ac3 	addiu	$t0,$gp,-30013
  414da4:	240d0001 	li	$t5,1
  414da8:	1000024c 	b	4156dc <_doprnt+0x1c60>
  414dac:	afad0250 	sw	$t5,592($sp)
  414db0:	27a802c6 	addiu	$t0,$sp,710
  414db4:	3c120042 	lui	$s2,0x42
  414db8:	8fa3027c 	lw	$v1,636($sp)
  414dbc:	24190005 	li	$t9,5
  414dc0:	27988ab0 	addiu	$t8,$gp,-30032
  414dc4:	00027fc2 	srl	$t7,$v0,0x1f
  414dc8:	24010001 	li	$at,1
  414dcc:	afb80254 	sw	$t8,596($sp)
  414dd0:	afb90258 	sw	$t9,600($sp)
  414dd4:	2652cc98 	addiu	$s2,$s2,-13160
  414dd8:	0100b825 	move	$s7,$t0
  414ddc:	2405000f 	li	$a1,15
  414de0:	15e10003 	bne	$t7,$at,414df0 <_doprnt+0x1374>
  414de4:	24060003 	li	$a2,3
  414de8:	240a0001 	li	$t2,1
  414dec:	afaa0250 	sw	$t2,592($sp)
  414df0:	00046300 	sll	$t4,$a0,0xc
  414df4:	00037502 	srl	$t6,$v1,0x14
  414df8:	018e6825 	or	$t5,$t4,$t6
  414dfc:	24180000 	li	$t8,0
  414e00:	afb80288 	sw	$t8,648($sp)
  414e04:	afad028c 	sw	$t5,652($sp)
  414e08:	1000fe4c 	b	41473c <_doprnt+0xcc0>
  414e0c:	32220001 	andi	$v0,$s1,0x1
  414e10:	2ac1003c 	slti	$at,$s6,60
  414e14:	10200004 	beqz	$at,414e28 <_doprnt+0x13ac>
  414e18:	2406003c 	li	$a2,60
  414e1c:	10000002 	b	414e28 <_doprnt+0x13ac>
  414e20:	02c03025 	move	$a2,$s6
  414e24:	2406003c 	li	$a2,60
  414e28:	c7ad0278 	lwc1	$f13,632($sp)
  414e2c:	c7ac027c 	lwc1	$f12,636($sp)
  414e30:	27ab0270 	addiu	$t3,$sp,624
  414e34:	27af016c 	addiu	$t7,$sp,364
  414e38:	afaf0014 	sw	$t7,20($sp)
  414e3c:	afab0010 	sw	$t3,16($sp)
  414e40:	0c10616c 	jal	4185b0 <_fcvt_r>
  414e44:	27a70274 	addiu	$a3,$sp,628
  414e48:	2409fffc 	li	$t1,-4
  414e4c:	0040b825 	move	$s7,$v0
  414e50:	323e0010 	andi	$s8,$s1,0x10
  414e54:	8faa0270 	lw	$t2,624($sp)
  414e58:	00000000 	nop
  414e5c:	1140000f 	beqz	$t2,414e9c <_doprnt+0x1420>
  414e60:	322b0002 	andi	$t3,$s1,0x2
  414e64:	8fae0274 	lw	$t6,628($sp)
  414e68:	00166023 	negu	$t4,$s6
  414e6c:	018e082a 	slt	$at,$t4,$t6
  414e70:	1020000a 	beqz	$at,414e9c <_doprnt+0x1420>
  414e74:	322b0002 	andi	$t3,$s1,0x2
  414e78:	92ed0000 	lbu	$t5,0($s7)
  414e7c:	24010030 	li	$at,48
  414e80:	11a10005 	beq	$t5,$at,414e98 <_doprnt+0x141c>
  414e84:	27988af8 	addiu	$t8,$gp,-29960
  414e88:	24190001 	li	$t9,1
  414e8c:	afb802ac 	sw	$t8,684($sp)
  414e90:	1000000e 	b	414ecc <_doprnt+0x1450>
  414e94:	afb9029c 	sw	$t9,668($sp)
  414e98:	322b0002 	andi	$t3,$s1,0x2
  414e9c:	11600005 	beqz	$t3,414eb4 <_doprnt+0x1438>
  414ea0:	278f8afc 	addiu	$t7,$gp,-29956
  414ea4:	240a0001 	li	$t2,1
  414ea8:	afaf02ac 	sw	$t7,684($sp)
  414eac:	10000007 	b	414ecc <_doprnt+0x1450>
  414eb0:	afaa029c 	sw	$t2,668($sp)
  414eb4:	322c0008 	andi	$t4,$s1,0x8
  414eb8:	11800004 	beqz	$t4,414ecc <_doprnt+0x1450>
  414ebc:	278e8b00 	addiu	$t6,$gp,-29952
  414ec0:	240d0001 	li	$t5,1
  414ec4:	afae02ac 	sw	$t6,684($sp)
  414ec8:	afad029c 	sw	$t5,668($sp)
  414ecc:	8fa30274 	lw	$v1,628($sp)
  414ed0:	27a802b0 	addiu	$t0,$sp,688
  414ed4:	0000a025 	move	$s4,$zero
  414ed8:	18600007 	blez	$v1,414ef8 <_doprnt+0x147c>
  414edc:	24180030 	li	$t8,48
  414ee0:	92e20000 	lbu	$v0,0($s7)
  414ee4:	00000000 	nop
  414ee8:	10400002 	beqz	$v0,414ef4 <_doprnt+0x1478>
  414eec:	2a810011 	slti	$at,$s4,17
  414ef0:	14200003 	bnez	$at,414f00 <_doprnt+0x1484>
  414ef4:	24180030 	li	$t8,48
  414ef8:	10000004 	b	414f0c <_doprnt+0x1490>
  414efc:	a1180000 	sb	$t8,0($t0)
  414f00:	26940001 	addiu	$s4,$s4,1
  414f04:	a1020000 	sb	$v0,0($t0)
  414f08:	26f70001 	addiu	$s7,$s7,1
  414f0c:	2463ffff 	addiu	$v1,$v1,-1
  414f10:	1c60fff1 	bgtz	$v1,414ed8 <_doprnt+0x145c>
  414f14:	25080001 	addiu	$t0,$t0,1
  414f18:	17c00003 	bnez	$s8,414f28 <_doprnt+0x14ac>
  414f1c:	00000000 	nop
  414f20:	1ac00005 	blez	$s6,414f38 <_doprnt+0x14bc>
  414f24:	2ac1003c 	slti	$at,$s6,60
  414f28:	93998b30 	lbu	$t9,-29904($gp)
  414f2c:	25080001 	addiu	$t0,$t0,1
  414f30:	a119ffff 	sb	$t9,-1($t0)
  414f34:	2ac1003c 	slti	$at,$s6,60
  414f38:	10200004 	beqz	$at,414f4c <_doprnt+0x14d0>
  414f3c:	2403003c 	li	$v1,60
  414f40:	10000002 	b	414f4c <_doprnt+0x14d0>
  414f44:	02c01825 	move	$v1,$s6
  414f48:	2403003c 	li	$v1,60
  414f4c:	0076082a 	slt	$at,$v1,$s6
  414f50:	10200005 	beqz	$at,414f68 <_doprnt+0x14ec>
  414f54:	02c31023 	subu	$v0,$s6,$v1
  414f58:	362b0100 	ori	$t3,$s1,0x100
  414f5c:	01608825 	move	$s1,$t3
  414f60:	afa20438 	sw	$v0,1080($sp)
  414f64:	afa20294 	sw	$v0,660($sp)
  414f68:	2463ffff 	addiu	$v1,$v1,-1
  414f6c:	04600014 	bltz	$v1,414fc0 <_doprnt+0x1544>
  414f70:	00000000 	nop
  414f74:	8faf0274 	lw	$t7,628($sp)
  414f78:	00000000 	nop
  414f7c:	25ea0001 	addiu	$t2,$t7,1
  414f80:	19400006 	blez	$t2,414f9c <_doprnt+0x1520>
  414f84:	afaa0274 	sw	$t2,628($sp)
  414f88:	92e20000 	lbu	$v0,0($s7)
  414f8c:	00000000 	nop
  414f90:	10400002 	beqz	$v0,414f9c <_doprnt+0x1520>
  414f94:	2a810011 	slti	$at,$s4,17
  414f98:	14200003 	bnez	$at,414fa8 <_doprnt+0x152c>
  414f9c:	240c0030 	li	$t4,48
  414fa0:	10000004 	b	414fb4 <_doprnt+0x1538>
  414fa4:	a10c0000 	sb	$t4,0($t0)
  414fa8:	26940001 	addiu	$s4,$s4,1
  414fac:	a1020000 	sb	$v0,0($t0)
  414fb0:	26f70001 	addiu	$s7,$s7,1
  414fb4:	2463ffff 	addiu	$v1,$v1,-1
  414fb8:	0461ffee 	bgez	$v1,414f74 <_doprnt+0x14f8>
  414fbc:	25080001 	addiu	$t0,$t0,1
  414fc0:	100001c6 	b	4156dc <_doprnt+0x1c60>
  414fc4:	27b702b0 	addiu	$s7,$sp,688
  414fc8:	32340040 	andi	$s4,$s1,0x40
  414fcc:	16800003 	bnez	$s4,414fdc <_doprnt+0x1560>
  414fd0:	00000000 	nop
  414fd4:	10000004 	b	414fe8 <_doprnt+0x156c>
  414fd8:	24160006 	li	$s6,6
  414fdc:	16c00003 	bnez	$s6,414fec <_doprnt+0x1570>
  414fe0:	8fae0244 	lw	$t6,580($sp)
  414fe4:	24160001 	li	$s6,1
  414fe8:	8fae0244 	lw	$t6,580($sp)
  414fec:	00000000 	nop
  414ff0:	31cd0001 	andi	$t5,$t6,0x1
  414ff4:	11a00008 	beqz	$t5,415018 <_doprnt+0x159c>
  414ff8:	8fab0244 	lw	$t3,580($sp)
  414ffc:	8fb80244 	lw	$t8,580($sp)
  415000:	00000000 	nop
  415004:	27190007 	addiu	$t9,$t8,7
  415008:	afb90244 	sw	$t9,580($sp)
  41500c:	10000013 	b	41505c <_doprnt+0x15e0>
  415010:	2726ffea 	addiu	$a2,$t9,-22
  415014:	8fab0244 	lw	$t3,580($sp)
  415018:	00000000 	nop
  41501c:	316f0002 	andi	$t7,$t3,0x2
  415020:	11e00008 	beqz	$t7,415044 <_doprnt+0x15c8>
  415024:	8fae0244 	lw	$t6,580($sp)
  415028:	8faa0244 	lw	$t2,580($sp)
  41502c:	00000000 	nop
  415030:	254c000a 	addiu	$t4,$t2,10
  415034:	afac0244 	sw	$t4,580($sp)
  415038:	10000007 	b	415058 <_doprnt+0x15dc>
  41503c:	2582ffd8 	addiu	$v0,$t4,-40
  415040:	8fae0244 	lw	$t6,580($sp)
  415044:	2401fff8 	li	$at,-8
  415048:	25cd0007 	addiu	$t5,$t6,7
  41504c:	01a1c024 	and	$t8,$t5,$at
  415050:	27020008 	addiu	$v0,$t8,8
  415054:	afa20244 	sw	$v0,580($sp)
  415058:	00403025 	move	$a2,$v0
  41505c:	c4d1fff8 	lwc1	$f17,-8($a2)
  415060:	c4d0fffc 	lwc1	$f16,-4($a2)
  415064:	e7b10278 	swc1	$f17,632($sp)
  415068:	8fa20278 	lw	$v0,632($sp)
  41506c:	240107ff 	li	$at,2047
  415070:	00025840 	sll	$t3,$v0,0x1
  415074:	000b7d42 	srl	$t7,$t3,0x15
  415078:	15e10037 	bne	$t7,$at,415158 <_doprnt+0x16dc>
  41507c:	e7b0027c 	swc1	$f16,636($sp)
  415080:	3c01000f 	lui	$at,0xf
  415084:	3421ffff 	ori	$at,$at,0xffff
  415088:	00412024 	and	$a0,$v0,$at
  41508c:	240a0001 	li	$t2,1
  415090:	14800011 	bnez	$a0,4150d8 <_doprnt+0x165c>
  415094:	afaa025c 	sw	$t2,604($sp)
  415098:	8fac027c 	lw	$t4,636($sp)
  41509c:	00000000 	nop
  4150a0:	1580000d 	bnez	$t4,4150d8 <_doprnt+0x165c>
  4150a4:	000277c2 	srl	$t6,$v0,0x1f
  4150a8:	24010001 	li	$at,1
  4150ac:	15c10002 	bne	$t6,$at,4150b8 <_doprnt+0x163c>
  4150b0:	240d0001 	li	$t5,1
  4150b4:	afad0250 	sw	$t5,592($sp)
  4150b8:	24010047 	li	$at,71
  4150bc:	14610003 	bne	$v1,$at,4150cc <_doprnt+0x1650>
  4150c0:	27978ac4 	addiu	$s7,$gp,-30012
  4150c4:	10000185 	b	4156dc <_doprnt+0x1c60>
  4150c8:	26e80003 	addiu	$t0,$s7,3
  4150cc:	27978ac0 	addiu	$s7,$gp,-30016
  4150d0:	10000182 	b	4156dc <_doprnt+0x1c60>
  4150d4:	26e80003 	addiu	$t0,$s7,3
  4150d8:	27a802c6 	addiu	$t0,$sp,710
  4150dc:	8fa3027c 	lw	$v1,636($sp)
  4150e0:	24190005 	li	$t9,5
  4150e4:	00025fc2 	srl	$t3,$v0,0x1f
  4150e8:	24010001 	li	$at,1
  4150ec:	afb90258 	sw	$t9,600($sp)
  4150f0:	0100b825 	move	$s7,$t0
  4150f4:	2405000f 	li	$a1,15
  4150f8:	15610003 	bne	$t3,$at,415108 <_doprnt+0x168c>
  4150fc:	24060003 	li	$a2,3
  415100:	240f0001 	li	$t7,1
  415104:	afaf0250 	sw	$t7,592($sp)
  415108:	00045300 	sll	$t2,$a0,0xc
  41510c:	00036502 	srl	$t4,$v1,0x14
  415110:	014c7025 	or	$t6,$t2,$t4
  415114:	24180000 	li	$t8,0
  415118:	24010047 	li	$at,71
  41511c:	afb80288 	sw	$t8,648($sp)
  415120:	16010007 	bne	$s0,$at,415140 <_doprnt+0x16c4>
  415124:	afae028c 	sw	$t6,652($sp)
  415128:	278d8ab8 	addiu	$t5,$gp,-30024
  41512c:	3c120042 	lui	$s2,0x42
  415130:	afad0254 	sw	$t5,596($sp)
  415134:	2652cc84 	addiu	$s2,$s2,-13180
  415138:	1000fd80 	b	41473c <_doprnt+0xcc0>
  41513c:	32220001 	andi	$v0,$s1,0x1
  415140:	278b8ab0 	addiu	$t3,$gp,-30032
  415144:	3c120042 	lui	$s2,0x42
  415148:	afab0254 	sw	$t3,596($sp)
  41514c:	2652cc98 	addiu	$s2,$s2,-13160
  415150:	1000fd7a 	b	41473c <_doprnt+0xcc0>
  415154:	32220001 	andi	$v0,$s1,0x1
  415158:	2ac10011 	slti	$at,$s6,17
  41515c:	10200004 	beqz	$at,415170 <_doprnt+0x16f4>
  415160:	24060011 	li	$a2,17
  415164:	10000002 	b	415170 <_doprnt+0x16f4>
  415168:	02c03025 	move	$a2,$s6
  41516c:	24060011 	li	$a2,17
  415170:	c7ad0278 	lwc1	$f13,632($sp)
  415174:	c7ac027c 	lwc1	$f12,636($sp)
  415178:	27af0270 	addiu	$t7,$sp,624
  41517c:	27aa016c 	addiu	$t2,$sp,364
  415180:	afaa0014 	sw	$t2,20($sp)
  415184:	afaf0010 	sw	$t7,16($sp)
  415188:	0c106110 	jal	418440 <_ecvt_r>
  41518c:	27a70274 	addiu	$a3,$sp,628
  415190:	c7b30278 	lwc1	$f19,632($sp)
  415194:	c7b2027c 	lwc1	$f18,636($sp)
  415198:	2409fffc 	li	$t1,-4
  41519c:	46349032 	c.eq.d	$f18,$f20
  4151a0:	0040b825 	move	$s7,$v0
  4151a4:	45000004 	bc1f	4151b8 <_doprnt+0x173c>
  4151a8:	323e0010 	andi	$s8,$s1,0x10
  4151ac:	240c0001 	li	$t4,1
  4151b0:	afac0274 	sw	$t4,628($sp)
  4151b4:	323e0010 	andi	$s8,$s1,0x10
  4151b8:	17c00014 	bnez	$s8,41520c <_doprnt+0x1790>
  4151bc:	02c09025 	move	$s2,$s6
  4151c0:	0c103238 	jal	40c8e0 <strlen>
  4151c4:	02e02025 	move	$a0,$s7
  4151c8:	0056082a 	slt	$at,$v0,$s6
  4151cc:	10200002 	beqz	$at,4151d8 <_doprnt+0x175c>
  4151d0:	2409fffc 	li	$t1,-4
  4151d4:	00409025 	move	$s2,$v0
  4151d8:	1a40000c 	blez	$s2,41520c <_doprnt+0x1790>
  4151dc:	02571021 	addu	$v0,$s2,$s7
  4151e0:	904effff 	lbu	$t6,-1($v0)
  4151e4:	24010030 	li	$at,48
  4151e8:	15c10009 	bne	$t6,$at,415210 <_doprnt+0x1794>
  4151ec:	8fb90274 	lw	$t9,628($sp)
  4151f0:	2652ffff 	addiu	$s2,$s2,-1
  4151f4:	1a400005 	blez	$s2,41520c <_doprnt+0x1790>
  4151f8:	2442ffff 	addiu	$v0,$v0,-1
  4151fc:	9058ffff 	lbu	$t8,-1($v0)
  415200:	24010030 	li	$at,48
  415204:	1301fffa 	beq	$t8,$at,4151f0 <_doprnt+0x1774>
  415208:	00000000 	nop
  41520c:	8fb90274 	lw	$t9,628($sp)
  415210:	00000000 	nop
  415214:	2b21fffd 	slti	$at,$t9,-3
  415218:	14200002 	bnez	$at,415224 <_doprnt+0x17a8>
  41521c:	02d9082a 	slt	$at,$s6,$t9
  415220:	10200003 	beqz	$at,415230 <_doprnt+0x17b4>
  415224:	2656ffff 	addiu	$s6,$s2,-1
  415228:	1000fe06 	b	414a44 <_doprnt+0xfc8>
  41522c:	02c0a025 	move	$s4,$s6
  415230:	8fad0274 	lw	$t5,628($sp)
  415234:	1000ff07 	b	414e54 <_doprnt+0x13d8>
  415238:	024db023 	subu	$s6,$s2,$t5
  41523c:	a3b002b0 	sb	$s0,688($sp)
  415240:	27b702b0 	addiu	$s7,$sp,688
  415244:	10000125 	b	4156dc <_doprnt+0x1c60>
  415248:	27a802b1 	addiu	$t0,$sp,689
  41524c:	8fab0244 	lw	$t3,580($sp)
  415250:	27b702b0 	addiu	$s7,$sp,688
  415254:	256f0003 	addiu	$t7,$t3,3
  415258:	01e95024 	and	$t2,$t7,$t1
  41525c:	254c0004 	addiu	$t4,$t2,4
  415260:	afac0244 	sw	$t4,580($sp)
  415264:	8d4e0000 	lw	$t6,0($t2)
  415268:	27a802b1 	addiu	$t0,$sp,689
  41526c:	1000011b 	b	4156dc <_doprnt+0x1c60>
  415270:	a3ae02b0 	sb	$t6,688($sp)
  415274:	8fb80244 	lw	$t8,580($sp)
  415278:	27b702b0 	addiu	$s7,$sp,688
  41527c:	27190003 	addiu	$t9,$t8,3
  415280:	03296824 	and	$t5,$t9,$t1
  415284:	25ab0004 	addiu	$t3,$t5,4
  415288:	afab0244 	sw	$t3,580($sp)
  41528c:	8da50000 	lw	$a1,0($t5)
  415290:	0c105dbc 	jal	4176f0 <wctomb>
  415294:	27a402b0 	addiu	$a0,$sp,688
  415298:	2409fffc 	li	$t1,-4
  41529c:	04410002 	bgez	$v0,4152a8 <_doprnt+0x182c>
  4152a0:	0040a025 	move	$s4,$v0
  4152a4:	0000a025 	move	$s4,$zero
  4152a8:	27af02b0 	addiu	$t7,$sp,688
  4152ac:	1000010b 	b	4156dc <_doprnt+0x1c60>
  4152b0:	028f4021 	addu	$t0,$s4,$t7
  4152b4:	8fac0244 	lw	$t4,580($sp)
  4152b8:	00000000 	nop
  4152bc:	258a0003 	addiu	$t2,$t4,3
  4152c0:	01497024 	and	$t6,$t2,$t1
  4152c4:	25d80004 	addiu	$t8,$t6,4
  4152c8:	afb80244 	sw	$t8,580($sp)
  4152cc:	8dd70000 	lw	$s7,0($t6)
  4152d0:	00000000 	nop
  4152d4:	16e00004 	bnez	$s7,4152e8 <_doprnt+0x186c>
  4152d8:	2401ffbf 	li	$at,-65
  4152dc:	0221c824 	and	$t9,$s1,$at
  4152e0:	27978b04 	addiu	$s7,$gp,-29948
  4152e4:	03208825 	move	$s1,$t9
  4152e8:	322b0040 	andi	$t3,$s1,0x40
  4152ec:	15600006 	bnez	$t3,415308 <_doprnt+0x188c>
  4152f0:	00000000 	nop
  4152f4:	0c103238 	jal	40c8e0 <strlen>
  4152f8:	02e02025 	move	$a0,$s7
  4152fc:	2409fffc 	li	$t1,-4
  415300:	100000f6 	b	4156dc <_doprnt+0x1c60>
  415304:	00574021 	addu	$t0,$v0,$s7
  415308:	92e60000 	lbu	$a2,0($s7)
  41530c:	26e20001 	addiu	$v0,$s7,1
  415310:	0006682b 	sltu	$t5,$zero,$a2
  415314:	11a0000c 	beqz	$t5,415348 <_doprnt+0x18cc>
  415318:	00000000 	nop
  41531c:	26d6ffff 	addiu	$s6,$s6,-1
  415320:	06c00009 	bltz	$s6,415348 <_doprnt+0x18cc>
  415324:	00000000 	nop
  415328:	90460000 	lbu	$a2,0($v0)
  41532c:	24420001 	addiu	$v0,$v0,1
  415330:	0006782b 	sltu	$t7,$zero,$a2
  415334:	11e00004 	beqz	$t7,415348 <_doprnt+0x18cc>
  415338:	00000000 	nop
  41533c:	26d6ffff 	addiu	$s6,$s6,-1
  415340:	06c1fff9 	bgez	$s6,415328 <_doprnt+0x18ac>
  415344:	00000000 	nop
  415348:	100000e4 	b	4156dc <_doprnt+0x1c60>
  41534c:	2448ffff 	addiu	$t0,$v0,-1
  415350:	8fac0244 	lw	$t4,580($sp)
  415354:	00000000 	nop
  415358:	258a0003 	addiu	$t2,$t4,3
  41535c:	0149c024 	and	$t8,$t2,$t1
  415360:	270e0004 	addiu	$t6,$t8,4
  415364:	afae0244 	sw	$t6,580($sp)
  415368:	8f140000 	lw	$s4,0($t8)
  41536c:	00000000 	nop
  415370:	16800002 	bnez	$s4,41537c <_doprnt+0x1900>
  415374:	00000000 	nop
  415378:	27948ac8 	addiu	$s4,$gp,-30008
  41537c:	12a00049 	beqz	$s5,4154a4 <_doprnt+0x1a28>
  415380:	32390004 	andi	$t9,$s1,0x4
  415384:	17200047 	bnez	$t9,4154a4 <_doprnt+0x1a28>
  415388:	00000000 	nop
  41538c:	8e8b0000 	lw	$t3,0($s4)
  415390:	00008025 	move	$s0,$zero
  415394:	11600013 	beqz	$t3,4153e4 <_doprnt+0x1968>
  415398:	02809025 	move	$s2,$s4
  41539c:	8e450000 	lw	$a1,0($s2)
  4153a0:	00000000 	nop
  4153a4:	0c105dbc 	jal	4176f0 <wctomb>
  4153a8:	27a402b0 	addiu	$a0,$sp,688
  4153ac:	18400009 	blez	$v0,4153d4 <_doprnt+0x1958>
  4153b0:	2409fffc 	li	$t1,-4
  4153b4:	322d0040 	andi	$t5,$s1,0x40
  4153b8:	11a00006 	beqz	$t5,4153d4 <_doprnt+0x1958>
  4153bc:	02028021 	addu	$s0,$s0,$v0
  4153c0:	02d0082a 	slt	$at,$s6,$s0
  4153c4:	10200003 	beqz	$at,4153d4 <_doprnt+0x1958>
  4153c8:	00000000 	nop
  4153cc:	10000005 	b	4153e4 <_doprnt+0x1968>
  4153d0:	02028023 	subu	$s0,$s0,$v0
  4153d4:	8e450004 	lw	$a1,4($s2)
  4153d8:	26520004 	addiu	$s2,$s2,4
  4153dc:	14a0fff1 	bnez	$a1,4153a4 <_doprnt+0x1928>
  4153e0:	00000000 	nop
  4153e4:	0215082a 	slt	$at,$s0,$s5
  4153e8:	1020002e 	beqz	$at,4154a4 <_doprnt+0x1a28>
  4153ec:	00000000 	nop
  4153f0:	8faf0454 	lw	$t7,1108($sp)
  4153f4:	02b09023 	subu	$s2,$s5,$s0
  4153f8:	2a410015 	slti	$at,$s2,21
  4153fc:	01f26021 	addu	$t4,$t7,$s2
  415400:	1420000f 	bnez	$at,415440 <_doprnt+0x19c4>
  415404:	afac0454 	sw	$t4,1108($sp)
  415408:	3c040042 	lui	$a0,0x42
  41540c:	8fa60468 	lw	$a2,1128($sp)
  415410:	2484cc54 	addiu	$a0,$a0,-13228
  415414:	24050014 	li	$a1,20
  415418:	0c104e61 	jal	413984 <__uscas_rldinit+0x24c>
  41541c:	27a7045c 	addiu	$a3,$sp,1116
  415420:	14400004 	bnez	$v0,415434 <_doprnt+0x19b8>
  415424:	2652ffec 	addiu	$s2,$s2,-20
  415428:	10000200 	b	415c2c <_doprnt+0x21b0>
  41542c:	2402ffff 	li	$v0,-1
  415430:	2652ffec 	addiu	$s2,$s2,-20
  415434:	2a410015 	slti	$at,$s2,21
  415438:	1020fff3 	beqz	$at,415408 <_doprnt+0x198c>
  41543c:	00000000 	nop
  415440:	8faa045c 	lw	$t2,1116($sp)
  415444:	8fae0458 	lw	$t6,1112($sp)
  415448:	01528021 	addu	$s0,$t2,$s2
  41544c:	01d0082b 	sltu	$at,$t6,$s0
  415450:	1020000c 	beqz	$at,415484 <_doprnt+0x1a08>
  415454:	3c040042 	lui	$a0,0x42
  415458:	8fa60468 	lw	$a2,1128($sp)
  41545c:	2484cc54 	addiu	$a0,$a0,-13228
  415460:	02402825 	move	$a1,$s2
  415464:	0c104e61 	jal	413984 <__uscas_rldinit+0x24c>
  415468:	27a7045c 	addiu	$a3,$sp,1116
  41546c:	14400003 	bnez	$v0,41547c <_doprnt+0x1a00>
  415470:	2409fffc 	li	$t1,-4
  415474:	100001ed 	b	415c2c <_doprnt+0x21b0>
  415478:	2402ffff 	li	$v0,-1
  41547c:	10000009 	b	4154a4 <_doprnt+0x1a28>
  415480:	0000a825 	move	$s5,$zero
  415484:	8fa4045c 	lw	$a0,1116($sp)
  415488:	3c050042 	lui	$a1,0x42
  41548c:	24a5cc54 	addiu	$a1,$a1,-13228
  415490:	02403025 	move	$a2,$s2
  415494:	0c103118 	jal	40c460 <memcpy>
  415498:	0000a825 	move	$s5,$zero
  41549c:	2409fffc 	li	$t1,-4
  4154a0:	afb0045c 	sw	$s0,1116($sp)
  4154a4:	8e820000 	lw	$v0,0($s4)
  4154a8:	32380040 	andi	$t8,$s1,0x40
  4154ac:	02809025 	move	$s2,$s4
  4154b0:	17000003 	bnez	$t8,4154c0 <_doprnt+0x1a44>
  4154b4:	0000b825 	move	$s7,$zero
  4154b8:	3c167fff 	lui	$s6,0x7fff
  4154bc:	36d6ffff 	ori	$s6,$s6,0xffff
  4154c0:	10400027 	beqz	$v0,415560 <_doprnt+0x1ae4>
  4154c4:	8fad0454 	lw	$t5,1108($sp)
  4154c8:	8e450000 	lw	$a1,0($s2)
  4154cc:	00000000 	nop
  4154d0:	27a402b0 	addiu	$a0,$sp,688
  4154d4:	0c105dbc 	jal	4176f0 <wctomb>
  4154d8:	26520004 	addiu	$s2,$s2,4
  4154dc:	2409fffc 	li	$t1,-4
  4154e0:	1840001a 	blez	$v0,41554c <_doprnt+0x1ad0>
  4154e4:	0040a025 	move	$s4,$v0
  4154e8:	02c2b023 	subu	$s6,$s6,$v0
  4154ec:	06c0001c 	bltz	$s6,415560 <_doprnt+0x1ae4>
  4154f0:	8fad0454 	lw	$t5,1108($sp)
  4154f4:	8fb9045c 	lw	$t9,1116($sp)
  4154f8:	8fab0458 	lw	$t3,1112($sp)
  4154fc:	03228021 	addu	$s0,$t9,$v0
  415500:	0170082b 	sltu	$at,$t3,$s0
  415504:	1020000b 	beqz	$at,415534 <_doprnt+0x1ab8>
  415508:	8fa4045c 	lw	$a0,1116($sp)
  41550c:	8fa60468 	lw	$a2,1128($sp)
  415510:	27a402b0 	addiu	$a0,$sp,688
  415514:	00402825 	move	$a1,$v0
  415518:	0c104e61 	jal	413984 <__uscas_rldinit+0x24c>
  41551c:	27a7045c 	addiu	$a3,$sp,1116
  415520:	14400009 	bnez	$v0,415548 <_doprnt+0x1acc>
  415524:	2409fffc 	li	$t1,-4
  415528:	100001c0 	b	415c2c <_doprnt+0x21b0>
  41552c:	2402ffff 	li	$v0,-1
  415530:	8fa4045c 	lw	$a0,1116($sp)
  415534:	27a502b0 	addiu	$a1,$sp,688
  415538:	0c103118 	jal	40c460 <memcpy>
  41553c:	02803025 	move	$a2,$s4
  415540:	2409fffc 	li	$t1,-4
  415544:	afb0045c 	sw	$s0,1116($sp)
  415548:	02f4b821 	addu	$s7,$s7,$s4
  41554c:	8e450000 	lw	$a1,0($s2)
  415550:	00000000 	nop
  415554:	14a0ffdf 	bnez	$a1,4154d4 <_doprnt+0x1a58>
  415558:	27a402b0 	addiu	$a0,$sp,688
  41555c:	8fad0454 	lw	$t5,1108($sp)
  415560:	02f5082a 	slt	$at,$s7,$s5
  415564:	01b77821 	addu	$t7,$t5,$s7
  415568:	1020f993 	beqz	$at,413bb8 <_doprnt+0x13c>
  41556c:	afaf0454 	sw	$t7,1108($sp)
  415570:	02b78023 	subu	$s0,$s5,$s7
  415574:	01f06021 	addu	$t4,$t7,$s0
  415578:	2a010015 	slti	$at,$s0,21
  41557c:	1420000f 	bnez	$at,4155bc <_doprnt+0x1b40>
  415580:	afac0454 	sw	$t4,1108($sp)
  415584:	3c040042 	lui	$a0,0x42
  415588:	8fa60468 	lw	$a2,1128($sp)
  41558c:	2484cc54 	addiu	$a0,$a0,-13228
  415590:	24050014 	li	$a1,20
  415594:	0c104e61 	jal	413984 <__uscas_rldinit+0x24c>
  415598:	27a7045c 	addiu	$a3,$sp,1116
  41559c:	14400004 	bnez	$v0,4155b0 <_doprnt+0x1b34>
  4155a0:	2610ffec 	addiu	$s0,$s0,-20
  4155a4:	100001a1 	b	415c2c <_doprnt+0x21b0>
  4155a8:	2402ffff 	li	$v0,-1
  4155ac:	2610ffec 	addiu	$s0,$s0,-20
  4155b0:	2a010015 	slti	$at,$s0,21
  4155b4:	1020fff3 	beqz	$at,415584 <_doprnt+0x1b08>
  4155b8:	00000000 	nop
  4155bc:	8faa045c 	lw	$t2,1116($sp)
  4155c0:	8fae0458 	lw	$t6,1112($sp)
  4155c4:	01508821 	addu	$s1,$t2,$s0
  4155c8:	01d1082b 	sltu	$at,$t6,$s1
  4155cc:	1020000a 	beqz	$at,4155f8 <_doprnt+0x1b7c>
  4155d0:	3c040042 	lui	$a0,0x42
  4155d4:	8fa60468 	lw	$a2,1128($sp)
  4155d8:	2484cc54 	addiu	$a0,$a0,-13228
  4155dc:	02002825 	move	$a1,$s0
  4155e0:	0c104e61 	jal	413984 <__uscas_rldinit+0x24c>
  4155e4:	27a7045c 	addiu	$a3,$sp,1116
  4155e8:	1440f973 	bnez	$v0,413bb8 <_doprnt+0x13c>
  4155ec:	2409fffc 	li	$t1,-4
  4155f0:	1000018e 	b	415c2c <_doprnt+0x21b0>
  4155f4:	2402ffff 	li	$v0,-1
  4155f8:	8fa4045c 	lw	$a0,1116($sp)
  4155fc:	3c050042 	lui	$a1,0x42
  415600:	24a5cc54 	addiu	$a1,$a1,-13228
  415604:	0c103118 	jal	40c460 <memcpy>
  415608:	02003025 	move	$a2,$s0
  41560c:	2409fffc 	li	$t1,-4
  415610:	1000f969 	b	413bb8 <_doprnt+0x13c>
  415614:	afb1045c 	sw	$s1,1116($sp)
  415618:	32380800 	andi	$t8,$s1,0x800
  41561c:	1300000d 	beqz	$t8,415654 <_doprnt+0x1bd8>
  415620:	322e0001 	andi	$t6,$s1,0x1
  415624:	8fb90244 	lw	$t9,580($sp)
  415628:	8fac0454 	lw	$t4,1108($sp)
  41562c:	272b0003 	addiu	$t3,$t9,3
  415630:	01696824 	and	$t5,$t3,$t1
  415634:	25af0004 	addiu	$t7,$t5,4
  415638:	afaf0244 	sw	$t7,580($sp)
  41563c:	8da20000 	lw	$v0,0($t5)
  415640:	000c57c3 	sra	$t2,$t4,0x1f
  415644:	ac4a0000 	sw	$t2,0($v0)
  415648:	1000f95b 	b	413bb8 <_doprnt+0x13c>
  41564c:	ac4c0004 	sw	$t4,4($v0)
  415650:	322e0001 	andi	$t6,$s1,0x1
  415654:	11c0000b 	beqz	$t6,415684 <_doprnt+0x1c08>
  415658:	322a0400 	andi	$t2,$s1,0x400
  41565c:	8fb80244 	lw	$t8,580($sp)
  415660:	8fac0454 	lw	$t4,1108($sp)
  415664:	27190003 	addiu	$t9,$t8,3
  415668:	03297824 	and	$t7,$t9,$t1
  41566c:	25ed0004 	addiu	$t5,$t7,4
  415670:	afad0244 	sw	$t5,580($sp)
  415674:	8de20000 	lw	$v0,0($t7)
  415678:	1000f94f 	b	413bb8 <_doprnt+0x13c>
  41567c:	ac4c0000 	sw	$t4,0($v0)
  415680:	322a0400 	andi	$t2,$s1,0x400
  415684:	1140000b 	beqz	$t2,4156b4 <_doprnt+0x1c38>
  415688:	8faf0244 	lw	$t7,580($sp)
  41568c:	8fab0244 	lw	$t3,580($sp)
  415690:	8fad0454 	lw	$t5,1108($sp)
  415694:	256e0003 	addiu	$t6,$t3,3
  415698:	01c9c024 	and	$t8,$t6,$t1
  41569c:	27190004 	addiu	$t9,$t8,4
  4156a0:	afb90244 	sw	$t9,580($sp)
  4156a4:	8f020000 	lw	$v0,0($t8)
  4156a8:	1000f943 	b	413bb8 <_doprnt+0x13c>
  4156ac:	a44d0000 	sh	$t5,0($v0)
  4156b0:	8faf0244 	lw	$t7,580($sp)
  4156b4:	8fae0454 	lw	$t6,1108($sp)
  4156b8:	25ec0003 	addiu	$t4,$t7,3
  4156bc:	01895024 	and	$t2,$t4,$t1
  4156c0:	254b0004 	addiu	$t3,$t2,4
  4156c4:	afab0244 	sw	$t3,580($sp)
  4156c8:	8d420000 	lw	$v0,0($t2)
  4156cc:	1000f93a 	b	413bb8 <_doprnt+0x13c>
  4156d0:	ac4e0000 	sw	$t6,0($v0)
  4156d4:	1000f938 	b	413bb8 <_doprnt+0x13c>
  4156d8:	2673ffff 	addiu	$s3,$s3,-1
  4156dc:	8fb9025c 	lw	$t9,604($sp)
  4156e0:	00000000 	nop
  4156e4:	13200018 	beqz	$t9,415748 <_doprnt+0x1ccc>
  4156e8:	8fad029c 	lw	$t5,668($sp)
  4156ec:	8fb80250 	lw	$t8,592($sp)
  4156f0:	afa0025c 	sw	$zero,604($sp)
  4156f4:	13000006 	beqz	$t8,415710 <_doprnt+0x1c94>
  4156f8:	278d8b0c 	addiu	$t5,$gp,-29940
  4156fc:	240f0001 	li	$t7,1
  415700:	afad02ac 	sw	$t5,684($sp)
  415704:	afaf029c 	sw	$t7,668($sp)
  415708:	1000000e 	b	415744 <_doprnt+0x1cc8>
  41570c:	afa00250 	sw	$zero,592($sp)
  415710:	322c0002 	andi	$t4,$s1,0x2
  415714:	11800005 	beqz	$t4,41572c <_doprnt+0x1cb0>
  415718:	278b8b10 	addiu	$t3,$gp,-29936
  41571c:	240a0001 	li	$t2,1
  415720:	afab02ac 	sw	$t3,684($sp)
  415724:	10000007 	b	415744 <_doprnt+0x1cc8>
  415728:	afaa029c 	sw	$t2,668($sp)
  41572c:	322e0008 	andi	$t6,$s1,0x8
  415730:	11c00004 	beqz	$t6,415744 <_doprnt+0x1cc8>
  415734:	27998b14 	addiu	$t9,$gp,-29932
  415738:	24180001 	li	$t8,1
  41573c:	afb902ac 	sw	$t9,684($sp)
  415740:	afb8029c 	sw	$t8,668($sp)
  415744:	8fad029c 	lw	$t5,668($sp)
  415748:	8fac0294 	lw	$t4,660($sp)
  41574c:	0117f023 	subu	$s8,$t0,$s7
  415750:	8faa0258 	lw	$t2,600($sp)
  415754:	03cd7821 	addu	$t7,$s8,$t5
  415758:	01ec5821 	addu	$t3,$t7,$t4
  41575c:	016a1821 	addu	$v1,$t3,$t2
  415760:	0075082a 	slt	$at,$v1,$s5
  415764:	14200006 	bnez	$at,415780 <_doprnt+0x1d04>
  415768:	0060a025 	move	$s4,$v1
  41576c:	8fae0454 	lw	$t6,1108($sp)
  415770:	00000000 	nop
  415774:	01c3c821 	addu	$t9,$t6,$v1
  415778:	1000003e 	b	415874 <_doprnt+0x1df8>
  41577c:	afb90454 	sw	$t9,1108($sp)
  415780:	8fb80454 	lw	$t8,1108($sp)
  415784:	322f0020 	andi	$t7,$s1,0x20
  415788:	03156821 	addu	$t5,$t8,$s5
  41578c:	11e00010 	beqz	$t7,4157d0 <_doprnt+0x1d54>
  415790:	afad0454 	sw	$t5,1108($sp)
  415794:	322c0200 	andi	$t4,$s1,0x200
  415798:	15800006 	bnez	$t4,4157b4 <_doprnt+0x1d38>
  41579c:	362b0200 	ori	$t3,$s1,0x200
  4157a0:	02a35023 	subu	$t2,$s5,$v1
  4157a4:	01608825 	move	$s1,$t3
  4157a8:	afaa043c 	sw	$t2,1084($sp)
  4157ac:	10000031 	b	415874 <_doprnt+0x1df8>
  4157b0:	02a0a025 	move	$s4,$s5
  4157b4:	8fae043c 	lw	$t6,1084($sp)
  4157b8:	00000000 	nop
  4157bc:	01d5c821 	addu	$t9,$t6,$s5
  4157c0:	0323c023 	subu	$t8,$t9,$v1
  4157c4:	afb8043c 	sw	$t8,1084($sp)
  4157c8:	1000002a 	b	415874 <_doprnt+0x1df8>
  4157cc:	02a0a025 	move	$s4,$s5
  4157d0:	322d0004 	andi	$t5,$s1,0x4
  4157d4:	15a00027 	bnez	$t5,415874 <_doprnt+0x1df8>
  4157d8:	02a38023 	subu	$s0,$s5,$v1
  4157dc:	2a010015 	slti	$at,$s0,21
  4157e0:	1420000e 	bnez	$at,41581c <_doprnt+0x1da0>
  4157e4:	3c040042 	lui	$a0,0x42
  4157e8:	8fa60468 	lw	$a2,1128($sp)
  4157ec:	2484cc54 	addiu	$a0,$a0,-13228
  4157f0:	24050014 	li	$a1,20
  4157f4:	0c104e61 	jal	413984 <__uscas_rldinit+0x24c>
  4157f8:	27a7045c 	addiu	$a3,$sp,1116
  4157fc:	14400004 	bnez	$v0,415810 <_doprnt+0x1d94>
  415800:	2610ffec 	addiu	$s0,$s0,-20
  415804:	10000109 	b	415c2c <_doprnt+0x21b0>
  415808:	2402ffff 	li	$v0,-1
  41580c:	2610ffec 	addiu	$s0,$s0,-20
  415810:	2a010015 	slti	$at,$s0,21
  415814:	1020fff3 	beqz	$at,4157e4 <_doprnt+0x1d68>
  415818:	00000000 	nop
  41581c:	8faf045c 	lw	$t7,1116($sp)
  415820:	8fac0458 	lw	$t4,1112($sp)
  415824:	01f09021 	addu	$s2,$t7,$s0
  415828:	0192082b 	sltu	$at,$t4,$s2
  41582c:	1020000a 	beqz	$at,415858 <_doprnt+0x1ddc>
  415830:	3c040042 	lui	$a0,0x42
  415834:	8fa60468 	lw	$a2,1128($sp)
  415838:	2484cc54 	addiu	$a0,$a0,-13228
  41583c:	02002825 	move	$a1,$s0
  415840:	0c104e61 	jal	413984 <__uscas_rldinit+0x24c>
  415844:	27a7045c 	addiu	$a3,$sp,1116
  415848:	1440000a 	bnez	$v0,415874 <_doprnt+0x1df8>
  41584c:	2409fffc 	li	$t1,-4
  415850:	100000f6 	b	415c2c <_doprnt+0x21b0>
  415854:	2402ffff 	li	$v0,-1
  415858:	8fa4045c 	lw	$a0,1116($sp)
  41585c:	3c050042 	lui	$a1,0x42
  415860:	24a5cc54 	addiu	$a1,$a1,-13228
  415864:	0c103118 	jal	40c460 <memcpy>
  415868:	02003025 	move	$a2,$s0
  41586c:	2409fffc 	li	$t1,-4
  415870:	afb2045c 	sw	$s2,1116($sp)
  415874:	8fab029c 	lw	$t3,668($sp)
  415878:	00000000 	nop
  41587c:	11600018 	beqz	$t3,4158e0 <_doprnt+0x1e64>
  415880:	8fb80258 	lw	$t8,600($sp)
  415884:	8faa045c 	lw	$t2,1116($sp)
  415888:	8fb90458 	lw	$t9,1112($sp)
  41588c:	014b8021 	addu	$s0,$t2,$t3
  415890:	0330082b 	sltu	$at,$t9,$s0
  415894:	1020000b 	beqz	$at,4158c4 <_doprnt+0x1e48>
  415898:	8fa4045c 	lw	$a0,1116($sp)
  41589c:	8fa402ac 	lw	$a0,684($sp)
  4158a0:	8fa60468 	lw	$a2,1128($sp)
  4158a4:	01602825 	move	$a1,$t3
  4158a8:	0c104e61 	jal	413984 <__uscas_rldinit+0x24c>
  4158ac:	27a7045c 	addiu	$a3,$sp,1116
  4158b0:	1440000a 	bnez	$v0,4158dc <_doprnt+0x1e60>
  4158b4:	2409fffc 	li	$t1,-4
  4158b8:	100000dc 	b	415c2c <_doprnt+0x21b0>
  4158bc:	2402ffff 	li	$v0,-1
  4158c0:	8fa4045c 	lw	$a0,1116($sp)
  4158c4:	8fa502ac 	lw	$a1,684($sp)
  4158c8:	8fa6029c 	lw	$a2,668($sp)
  4158cc:	0c103118 	jal	40c460 <memcpy>
  4158d0:	00000000 	nop
  4158d4:	2409fffc 	li	$t1,-4
  4158d8:	afb0045c 	sw	$s0,1116($sp)
  4158dc:	8fb80258 	lw	$t8,600($sp)
  4158e0:	00000000 	nop
  4158e4:	1300001a 	beqz	$t8,415950 <_doprnt+0x1ed4>
  4158e8:	322f0200 	andi	$t7,$s1,0x200
  4158ec:	8fa2045c 	lw	$v0,1116($sp)
  4158f0:	8fad0458 	lw	$t5,1112($sp)
  4158f4:	24500005 	addiu	$s0,$v0,5
  4158f8:	01b0082b 	sltu	$at,$t5,$s0
  4158fc:	1020000d 	beqz	$at,415934 <_doprnt+0x1eb8>
  415900:	8fa4045c 	lw	$a0,1116($sp)
  415904:	8fa40254 	lw	$a0,596($sp)
  415908:	8fa60468 	lw	$a2,1128($sp)
  41590c:	24050005 	li	$a1,5
  415910:	0c104e61 	jal	413984 <__uscas_rldinit+0x24c>
  415914:	27a7045c 	addiu	$a3,$sp,1116
  415918:	14400003 	bnez	$v0,415928 <_doprnt+0x1eac>
  41591c:	2409fffc 	li	$t1,-4
  415920:	100000c2 	b	415c2c <_doprnt+0x21b0>
  415924:	2402ffff 	li	$v0,-1
  415928:	10000008 	b	41594c <_doprnt+0x1ed0>
  41592c:	afa00258 	sw	$zero,600($sp)
  415930:	8fa4045c 	lw	$a0,1116($sp)
  415934:	8fa50254 	lw	$a1,596($sp)
  415938:	24060005 	li	$a2,5
  41593c:	0c103118 	jal	40c460 <memcpy>
  415940:	afa00258 	sw	$zero,600($sp)
  415944:	2409fffc 	li	$t1,-4
  415948:	afb0045c 	sw	$s0,1116($sp)
  41594c:	322f0200 	andi	$t7,$s1,0x200
  415950:	11e00029 	beqz	$t7,4159f8 <_doprnt+0x1f7c>
  415954:	00000000 	nop
  415958:	8fb0043c 	lw	$s0,1084($sp)
  41595c:	00000000 	nop
  415960:	2a010015 	slti	$at,$s0,21
  415964:	1420000e 	bnez	$at,4159a0 <_doprnt+0x1f24>
  415968:	3c040042 	lui	$a0,0x42
  41596c:	8fa60468 	lw	$a2,1128($sp)
  415970:	2484cc6c 	addiu	$a0,$a0,-13204
  415974:	24050014 	li	$a1,20
  415978:	0c104e61 	jal	413984 <__uscas_rldinit+0x24c>
  41597c:	27a7045c 	addiu	$a3,$sp,1116
  415980:	14400004 	bnez	$v0,415994 <_doprnt+0x1f18>
  415984:	2610ffec 	addiu	$s0,$s0,-20
  415988:	100000a8 	b	415c2c <_doprnt+0x21b0>
  41598c:	2402ffff 	li	$v0,-1
  415990:	2610ffec 	addiu	$s0,$s0,-20
  415994:	2a010015 	slti	$at,$s0,21
  415998:	1020fff3 	beqz	$at,415968 <_doprnt+0x1eec>
  41599c:	00000000 	nop
  4159a0:	8faa045c 	lw	$t2,1116($sp)
  4159a4:	8fae0458 	lw	$t6,1112($sp)
  4159a8:	01509021 	addu	$s2,$t2,$s0
  4159ac:	01d2082b 	sltu	$at,$t6,$s2
  4159b0:	1020000a 	beqz	$at,4159dc <_doprnt+0x1f60>
  4159b4:	3c040042 	lui	$a0,0x42
  4159b8:	8fa60468 	lw	$a2,1128($sp)
  4159bc:	2484cc6c 	addiu	$a0,$a0,-13204
  4159c0:	02002825 	move	$a1,$s0
  4159c4:	0c104e61 	jal	413984 <__uscas_rldinit+0x24c>
  4159c8:	27a7045c 	addiu	$a3,$sp,1116
  4159cc:	1440000a 	bnez	$v0,4159f8 <_doprnt+0x1f7c>
  4159d0:	2409fffc 	li	$t1,-4
  4159d4:	10000095 	b	415c2c <_doprnt+0x21b0>
  4159d8:	2402ffff 	li	$v0,-1
  4159dc:	8fa4045c 	lw	$a0,1116($sp)
  4159e0:	3c050042 	lui	$a1,0x42
  4159e4:	24a5cc6c 	addiu	$a1,$a1,-13204
  4159e8:	0c103118 	jal	40c460 <memcpy>
  4159ec:	02003025 	move	$a2,$s0
  4159f0:	2409fffc 	li	$t1,-4
  4159f4:	afb2045c 	sw	$s2,1116($sp)
  4159f8:	1bc00017 	blez	$s8,415a58 <_doprnt+0x1fdc>
  4159fc:	32380184 	andi	$t8,$s1,0x184
  415a00:	8fb9045c 	lw	$t9,1116($sp)
  415a04:	8fab0458 	lw	$t3,1112($sp)
  415a08:	033e8021 	addu	$s0,$t9,$s8
  415a0c:	0170082b 	sltu	$at,$t3,$s0
  415a10:	1020000b 	beqz	$at,415a40 <_doprnt+0x1fc4>
  415a14:	8fa4045c 	lw	$a0,1116($sp)
  415a18:	8fa60468 	lw	$a2,1128($sp)
  415a1c:	02e02025 	move	$a0,$s7
  415a20:	03c02825 	move	$a1,$s8
  415a24:	0c104e61 	jal	413984 <__uscas_rldinit+0x24c>
  415a28:	27a7045c 	addiu	$a3,$sp,1116
  415a2c:	14400009 	bnez	$v0,415a54 <_doprnt+0x1fd8>
  415a30:	2409fffc 	li	$t1,-4
  415a34:	1000007d 	b	415c2c <_doprnt+0x21b0>
  415a38:	2402ffff 	li	$v0,-1
  415a3c:	8fa4045c 	lw	$a0,1116($sp)
  415a40:	02e02825 	move	$a1,$s7
  415a44:	0c103118 	jal	40c460 <memcpy>
  415a48:	03c03025 	move	$a2,$s8
  415a4c:	2409fffc 	li	$t1,-4
  415a50:	afb0045c 	sw	$s0,1116($sp)
  415a54:	32380184 	andi	$t8,$s1,0x184
  415a58:	1300f857 	beqz	$t8,413bb8 <_doprnt+0x13c>
  415a5c:	00000000 	nop
  415a60:	322d0100 	andi	$t5,$s1,0x100
  415a64:	11a0002a 	beqz	$t5,415b10 <_doprnt+0x2094>
  415a68:	322e0080 	andi	$t6,$s1,0x80
  415a6c:	8fb00438 	lw	$s0,1080($sp)
  415a70:	00000000 	nop
  415a74:	2a010015 	slti	$at,$s0,21
  415a78:	1420000e 	bnez	$at,415ab4 <_doprnt+0x2038>
  415a7c:	3c040042 	lui	$a0,0x42
  415a80:	8fa60468 	lw	$a2,1128($sp)
  415a84:	2484cc6c 	addiu	$a0,$a0,-13204
  415a88:	24050014 	li	$a1,20
  415a8c:	0c104e61 	jal	413984 <__uscas_rldinit+0x24c>
  415a90:	27a7045c 	addiu	$a3,$sp,1116
  415a94:	14400004 	bnez	$v0,415aa8 <_doprnt+0x202c>
  415a98:	2610ffec 	addiu	$s0,$s0,-20
  415a9c:	10000063 	b	415c2c <_doprnt+0x21b0>
  415aa0:	2402ffff 	li	$v0,-1
  415aa4:	2610ffec 	addiu	$s0,$s0,-20
  415aa8:	2a010015 	slti	$at,$s0,21
  415aac:	1020fff3 	beqz	$at,415a7c <_doprnt+0x2000>
  415ab0:	00000000 	nop
  415ab4:	8fac045c 	lw	$t4,1116($sp)
  415ab8:	8faa0458 	lw	$t2,1112($sp)
  415abc:	01909021 	addu	$s2,$t4,$s0
  415ac0:	0152082b 	sltu	$at,$t2,$s2
  415ac4:	1020000a 	beqz	$at,415af0 <_doprnt+0x2074>
  415ac8:	3c040042 	lui	$a0,0x42
  415acc:	8fa60468 	lw	$a2,1128($sp)
  415ad0:	2484cc6c 	addiu	$a0,$a0,-13204
  415ad4:	02002825 	move	$a1,$s0
  415ad8:	0c104e61 	jal	413984 <__uscas_rldinit+0x24c>
  415adc:	27a7045c 	addiu	$a3,$sp,1116
  415ae0:	1440000a 	bnez	$v0,415b0c <_doprnt+0x2090>
  415ae4:	2409fffc 	li	$t1,-4
  415ae8:	10000050 	b	415c2c <_doprnt+0x21b0>
  415aec:	2402ffff 	li	$v0,-1
  415af0:	8fa4045c 	lw	$a0,1116($sp)
  415af4:	3c050042 	lui	$a1,0x42
  415af8:	24a5cc6c 	addiu	$a1,$a1,-13204
  415afc:	0c103118 	jal	40c460 <memcpy>
  415b00:	02003025 	move	$a2,$s0
  415b04:	2409fffc 	li	$t1,-4
  415b08:	afb2045c 	sw	$s2,1116($sp)
  415b0c:	322e0080 	andi	$t6,$s1,0x80
  415b10:	11c00019 	beqz	$t6,415b78 <_doprnt+0x20fc>
  415b14:	322d0004 	andi	$t5,$s1,0x4
  415b18:	8fb9045c 	lw	$t9,1116($sp)
  415b1c:	8fab0298 	lw	$t3,664($sp)
  415b20:	8fb80458 	lw	$t8,1112($sp)
  415b24:	032b8021 	addu	$s0,$t9,$t3
  415b28:	0310082b 	sltu	$at,$t8,$s0
  415b2c:	1020000b 	beqz	$at,415b5c <_doprnt+0x20e0>
  415b30:	8fa4045c 	lw	$a0,1116($sp)
  415b34:	8fa402a8 	lw	$a0,680($sp)
  415b38:	8fa50298 	lw	$a1,664($sp)
  415b3c:	8fa60468 	lw	$a2,1128($sp)
  415b40:	0c104e61 	jal	413984 <__uscas_rldinit+0x24c>
  415b44:	27a7045c 	addiu	$a3,$sp,1116
  415b48:	1440000a 	bnez	$v0,415b74 <_doprnt+0x20f8>
  415b4c:	2409fffc 	li	$t1,-4
  415b50:	10000036 	b	415c2c <_doprnt+0x21b0>
  415b54:	2402ffff 	li	$v0,-1
  415b58:	8fa4045c 	lw	$a0,1116($sp)
  415b5c:	8fa502a8 	lw	$a1,680($sp)
  415b60:	8fa60298 	lw	$a2,664($sp)
  415b64:	0c103118 	jal	40c460 <memcpy>
  415b68:	00000000 	nop
  415b6c:	2409fffc 	li	$t1,-4
  415b70:	afb0045c 	sw	$s0,1116($sp)
  415b74:	322d0004 	andi	$t5,$s1,0x4
  415b78:	11a0f80f 	beqz	$t5,413bb8 <_doprnt+0x13c>
  415b7c:	00000000 	nop
  415b80:	0295082a 	slt	$at,$s4,$s5
  415b84:	1020f80c 	beqz	$at,413bb8 <_doprnt+0x13c>
  415b88:	00000000 	nop
  415b8c:	02b48023 	subu	$s0,$s5,$s4
  415b90:	2a010015 	slti	$at,$s0,21
  415b94:	1420000e 	bnez	$at,415bd0 <_doprnt+0x2154>
  415b98:	3c040042 	lui	$a0,0x42
  415b9c:	8fa60468 	lw	$a2,1128($sp)
  415ba0:	2484cc54 	addiu	$a0,$a0,-13228
  415ba4:	24050014 	li	$a1,20
  415ba8:	0c104e61 	jal	413984 <__uscas_rldinit+0x24c>
  415bac:	27a7045c 	addiu	$a3,$sp,1116
  415bb0:	14400004 	bnez	$v0,415bc4 <_doprnt+0x2148>
  415bb4:	2610ffec 	addiu	$s0,$s0,-20
  415bb8:	1000001c 	b	415c2c <_doprnt+0x21b0>
  415bbc:	2402ffff 	li	$v0,-1
  415bc0:	2610ffec 	addiu	$s0,$s0,-20
  415bc4:	2a010015 	slti	$at,$s0,21
  415bc8:	1020fff3 	beqz	$at,415b98 <_doprnt+0x211c>
  415bcc:	00000000 	nop
  415bd0:	8faf045c 	lw	$t7,1116($sp)
  415bd4:	8fac0458 	lw	$t4,1112($sp)
  415bd8:	01f08821 	addu	$s1,$t7,$s0
  415bdc:	0191082b 	sltu	$at,$t4,$s1
  415be0:	1020000a 	beqz	$at,415c0c <_doprnt+0x2190>
  415be4:	3c040042 	lui	$a0,0x42
  415be8:	8fa60468 	lw	$a2,1128($sp)
  415bec:	2484cc54 	addiu	$a0,$a0,-13228
  415bf0:	02002825 	move	$a1,$s0
  415bf4:	0c104e61 	jal	413984 <__uscas_rldinit+0x24c>
  415bf8:	27a7045c 	addiu	$a3,$sp,1116
  415bfc:	1440f7ee 	bnez	$v0,413bb8 <_doprnt+0x13c>
  415c00:	2409fffc 	li	$t1,-4
  415c04:	10000009 	b	415c2c <_doprnt+0x21b0>
  415c08:	2402ffff 	li	$v0,-1
  415c0c:	8fa4045c 	lw	$a0,1116($sp)
  415c10:	3c050042 	lui	$a1,0x42
  415c14:	24a5cc54 	addiu	$a1,$a1,-13228
  415c18:	0c103118 	jal	40c460 <memcpy>
  415c1c:	02003025 	move	$a2,$s0
  415c20:	2409fffc 	li	$t1,-4
  415c24:	1000f7e4 	b	413bb8 <_doprnt+0x13c>
  415c28:	afb1045c 	sw	$s1,1116($sp)
  415c2c:	8fbf004c 	lw	$ra,76($sp)
  415c30:	c7b50020 	lwc1	$f21,32($sp)
  415c34:	c7b40024 	lwc1	$f20,36($sp)
  415c38:	8fb00028 	lw	$s0,40($sp)
  415c3c:	8fb1002c 	lw	$s1,44($sp)
  415c40:	8fb20030 	lw	$s2,48($sp)
  415c44:	8fb30034 	lw	$s3,52($sp)
  415c48:	8fb40038 	lw	$s4,56($sp)
  415c4c:	8fb5003c 	lw	$s5,60($sp)
  415c50:	8fb60040 	lw	$s6,64($sp)
  415c54:	8fb70044 	lw	$s7,68($sp)
  415c58:	8fbe0048 	lw	$s8,72($sp)
  415c5c:	03e00008 	jr	$ra
  415c60:	27bd0460 	addiu	$sp,$sp,1120

00415c64 <_mkarglst>:
  415c64:	27bdff18 	addiu	$sp,$sp,-232
  415c68:	afb5002c 	sw	$s5,44($sp)
  415c6c:	afb20020 	sw	$s2,32($sp)
  415c70:	00809025 	move	$s2,$a0
  415c74:	27b50070 	addiu	$s5,$sp,112
  415c78:	afbf003c 	sw	$ra,60($sp)
  415c7c:	afa500ec 	sw	$a1,236($sp)
  415c80:	afa600f0 	sw	$a2,240($sp)
  415c84:	afbe0038 	sw	$s8,56($sp)
  415c88:	afb70034 	sw	$s7,52($sp)
  415c8c:	afb60030 	sw	$s6,48($sp)
  415c90:	afb40028 	sw	$s4,40($sp)
  415c94:	afb30024 	sw	$s3,36($sp)
  415c98:	afb1001c 	sw	$s1,28($sp)
  415c9c:	afb00018 	sw	$s0,24($sp)
  415ca0:	24060078 	li	$a2,120
  415ca4:	00002825 	move	$a1,$zero
  415ca8:	0c10194c 	jal	406530 <memset>
  415cac:	02a02025 	move	$a0,$s5
  415cb0:	2414ffff 	li	$s4,-1
  415cb4:	00009825 	move	$s3,$zero
  415cb8:	02402025 	move	$a0,$s2
  415cbc:	0c105d6c 	jal	4175b0 <strchr>
  415cc0:	24050025 	li	$a1,37
  415cc4:	10400082 	beqz	$v0,415ed0 <_mkarglst+0x26c>
  415cc8:	00409025 	move	$s2,$v0
  415ccc:	3c1e0042 	lui	$s8,0x42
  415cd0:	3c160042 	lui	$s6,0x42
  415cd4:	26d6ccac 	addiu	$s6,$s6,-13140
  415cd8:	27deccb8 	addiu	$s8,$s8,-13128
  415cdc:	24170024 	li	$s7,36
  415ce0:	26520001 	addiu	$s2,$s2,1
  415ce4:	02402025 	move	$a0,$s2
  415ce8:	0c105da0 	jal	417680 <strspn>
  415cec:	02c02825 	move	$a1,$s6
  415cf0:	00527021 	addu	$t6,$v0,$s2
  415cf4:	91cf0000 	lbu	$t7,0($t6)
  415cf8:	00408025 	move	$s0,$v0
  415cfc:	16ef0008 	bne	$s7,$t7,415d20 <_mkarglst+0xbc>
  415d00:	00000000 	nop
  415d04:	0c105fa4 	jal	417e90 <atoi>
  415d08:	02402025 	move	$a0,$s2
  415d0c:	2453ffff 	addiu	$s3,$v0,-1
  415d10:	0660006b 	bltz	$s3,415ec0 <_mkarglst+0x25c>
  415d14:	02402025 	move	$a0,$s2
  415d18:	02509021 	addu	$s2,$s2,$s0
  415d1c:	26520001 	addiu	$s2,$s2,1
  415d20:	00008825 	move	$s1,$zero
  415d24:	02402025 	move	$a0,$s2
  415d28:	0c105da0 	jal	417680 <strspn>
  415d2c:	03c02825 	move	$a1,$s8
  415d30:	02429021 	addu	$s2,$s2,$v0
  415d34:	92430000 	lbu	$v1,0($s2)
  415d38:	26520001 	addiu	$s2,$s2,1
  415d3c:	2478ffdb 	addiu	$t8,$v1,-37
  415d40:	2f01004f 	sltiu	$at,$t8,79
  415d44:	10200045 	beqz	$at,415e5c <_mkarglst+0x1f8>
  415d48:	0018c080 	sll	$t8,$t8,0x2
  415d4c:	3c010042 	lui	$at,0x42
  415d50:	00380821 	addu	$at,$at,$t8
  415d54:	8c38ce50 	lw	$t8,-12720($at)
  415d58:	00000000 	nop
  415d5c:	03000008 	jr	$t8
  415d60:	00000000 	nop
  415d64:	32390001 	andi	$t9,$s1,0x1
  415d68:	13200004 	beqz	$t9,415d7c <_mkarglst+0x118>
  415d6c:	362d0001 	ori	$t5,$s1,0x1
  415d70:	3a2b0001 	xori	$t3,$s1,0x1
  415d74:	1000ffeb 	b	415d24 <_mkarglst+0xc0>
  415d78:	35710004 	ori	$s1,$t3,0x4
  415d7c:	1000ffe9 	b	415d24 <_mkarglst+0xc0>
  415d80:	01a08825 	move	$s1,$t5
  415d84:	924e0000 	lbu	$t6,0($s2)
  415d88:	3c0f0042 	lui	$t7,0x42
  415d8c:	01ee7821 	addu	$t7,$t7,$t6
  415d90:	91efd751 	lbu	$t7,-10415($t7)
  415d94:	362e0002 	ori	$t6,$s1,0x2
  415d98:	31f80004 	andi	$t8,$t7,0x4
  415d9c:	13000018 	beqz	$t8,415e00 <_mkarglst+0x19c>
  415da0:	24020001 	li	$v0,1
  415da4:	0c105fa4 	jal	417e90 <atoi>
  415da8:	02402025 	move	$a0,$s2
  415dac:	2450ffff 	addiu	$s0,$v0,-1
  415db0:	02402025 	move	$a0,$s2
  415db4:	0c105da0 	jal	417680 <strspn>
  415db8:	02c02825 	move	$a1,$s6
  415dbc:	02429021 	addu	$s2,$s2,$v0
  415dc0:	92590000 	lbu	$t9,0($s2)
  415dc4:	2a01001e 	slti	$at,$s0,30
  415dc8:	16f90002 	bne	$s7,$t9,415dd4 <_mkarglst+0x170>
  415dcc:	00000000 	nop
  415dd0:	26520001 	addiu	$s2,$s2,1
  415dd4:	0600ffd4 	bltz	$s0,415d28 <_mkarglst+0xc4>
  415dd8:	02402025 	move	$a0,$s2
  415ddc:	1020ffd1 	beqz	$at,415d24 <_mkarglst+0xc0>
  415de0:	240b0001 	li	$t3,1
  415de4:	00106080 	sll	$t4,$s0,0x2
  415de8:	02ac6821 	addu	$t5,$s5,$t4
  415dec:	0290082a 	slt	$at,$s4,$s0
  415df0:	1020ffcc 	beqz	$at,415d24 <_mkarglst+0xc0>
  415df4:	adab0000 	sw	$t3,0($t5)
  415df8:	1000ffca 	b	415d24 <_mkarglst+0xc0>
  415dfc:	0200a025 	move	$s4,$s0
  415e00:	1000001f 	b	415e80 <_mkarglst+0x21c>
  415e04:	01c08825 	move	$s1,$t6
  415e08:	1000001d 	b	415e80 <_mkarglst+0x21c>
  415e0c:	24020004 	li	$v0,4
  415e10:	1000001b 	b	415e80 <_mkarglst+0x21c>
  415e14:	24020003 	li	$v0,3
  415e18:	10000019 	b	415e80 <_mkarglst+0x21c>
  415e1c:	24020006 	li	$v0,6
  415e20:	322f0004 	andi	$t7,$s1,0x4
  415e24:	11e00003 	beqz	$t7,415e34 <_mkarglst+0x1d0>
  415e28:	32380001 	andi	$t8,$s1,0x1
  415e2c:	10000014 	b	415e80 <_mkarglst+0x21c>
  415e30:	24020009 	li	$v0,9
  415e34:	13000003 	beqz	$t8,415e44 <_mkarglst+0x1e0>
  415e38:	00000000 	nop
  415e3c:	10000010 	b	415e80 <_mkarglst+0x21c>
  415e40:	24020007 	li	$v0,7
  415e44:	1000000e 	b	415e80 <_mkarglst+0x21c>
  415e48:	24020008 	li	$v0,8
  415e4c:	1000000c 	b	415e80 <_mkarglst+0x21c>
  415e50:	2402000b 	li	$v0,11
  415e54:	1000000a 	b	415e80 <_mkarglst+0x21c>
  415e58:	2402000c 	li	$v0,12
  415e5c:	32390004 	andi	$t9,$s1,0x4
  415e60:	13200003 	beqz	$t9,415e70 <_mkarglst+0x20c>
  415e64:	322c0001 	andi	$t4,$s1,0x1
  415e68:	10000005 	b	415e80 <_mkarglst+0x21c>
  415e6c:	2402000a 	li	$v0,10
  415e70:	11800003 	beqz	$t4,415e80 <_mkarglst+0x21c>
  415e74:	24020001 	li	$v0,1
  415e78:	10000001 	b	415e80 <_mkarglst+0x21c>
  415e7c:	24020002 	li	$v0,2
  415e80:	06600009 	bltz	$s3,415ea8 <_mkarglst+0x244>
  415e84:	322e0002 	andi	$t6,$s1,0x2
  415e88:	2a61001e 	slti	$at,$s3,30
  415e8c:	10200006 	beqz	$at,415ea8 <_mkarglst+0x244>
  415e90:	00135880 	sll	$t3,$s3,0x2
  415e94:	02ab6821 	addu	$t5,$s5,$t3
  415e98:	0293082a 	slt	$at,$s4,$s3
  415e9c:	10200002 	beqz	$at,415ea8 <_mkarglst+0x244>
  415ea0:	ada20000 	sw	$v0,0($t5)
  415ea4:	0260a025 	move	$s4,$s3
  415ea8:	11c00004 	beqz	$t6,415ebc <_mkarglst+0x258>
  415eac:	26730001 	addiu	$s3,$s3,1
  415eb0:	3a2f0002 	xori	$t7,$s1,0x2
  415eb4:	1000ff9b 	b	415d24 <_mkarglst+0xc0>
  415eb8:	01e08825 	move	$s1,$t7
  415ebc:	02402025 	move	$a0,$s2
  415ec0:	0c105d6c 	jal	4175b0 <strchr>
  415ec4:	24050025 	li	$a1,37
  415ec8:	1440ff85 	bnez	$v0,415ce0 <_mkarglst+0x7c>
  415ecc:	00409025 	move	$s2,$v0
  415ed0:	06800060 	bltz	$s4,416054 <_mkarglst+0x3f0>
  415ed4:	27a50070 	addiu	$a1,$sp,112
  415ed8:	0014c880 	sll	$t9,$s4,0x2
  415edc:	272c0004 	addiu	$t4,$t9,4
  415ee0:	8fa600f0 	lw	$a2,240($sp)
  415ee4:	01854021 	addu	$t0,$t4,$a1
  415ee8:	240a0001 	li	$t2,1
  415eec:	27a900ec 	addiu	$t1,$sp,236
  415ef0:	2407fff8 	li	$a3,-8
  415ef4:	2404fffc 	li	$a0,-4
  415ef8:	8d210000 	lw	$at,0($t1)
  415efc:	00000000 	nop
  415f00:	acc10000 	sw	$at,0($a2)
  415f04:	8ca30000 	lw	$v1,0($a1)
  415f08:	00000000 	nop
  415f0c:	14600004 	bnez	$v1,415f20 <_mkarglst+0x2bc>
  415f10:	246effff 	addiu	$t6,$v1,-1
  415f14:	acaa0000 	sw	$t2,0($a1)
  415f18:	01401825 	move	$v1,$t2
  415f1c:	246effff 	addiu	$t6,$v1,-1
  415f20:	8fa200ec 	lw	$v0,236($sp)
  415f24:	2dc1000c 	sltiu	$at,$t6,12
  415f28:	10200046 	beqz	$at,416044 <_mkarglst+0x3e0>
  415f2c:	000e7080 	sll	$t6,$t6,0x2
  415f30:	3c010042 	lui	$at,0x42
  415f34:	002e0821 	addu	$at,$at,$t6
  415f38:	8c2ecf8c 	lw	$t6,-12404($at)
  415f3c:	00000000 	nop
  415f40:	01c00008 	jr	$t6
  415f44:	00000000 	nop
  415f48:	244f0003 	addiu	$t7,$v0,3
  415f4c:	01e41024 	and	$v0,$t7,$a0
  415f50:	1000003c 	b	416044 <_mkarglst+0x3e0>
  415f54:	24420004 	addiu	$v0,$v0,4
  415f58:	24590003 	addiu	$t9,$v0,3
  415f5c:	03241024 	and	$v0,$t9,$a0
  415f60:	10000038 	b	416044 <_mkarglst+0x3e0>
  415f64:	24420004 	addiu	$v0,$v0,4
  415f68:	244c0003 	addiu	$t4,$v0,3
  415f6c:	01841024 	and	$v0,$t4,$a0
  415f70:	10000034 	b	416044 <_mkarglst+0x3e0>
  415f74:	24420004 	addiu	$v0,$v0,4
  415f78:	24580003 	addiu	$t8,$v0,3
  415f7c:	03041024 	and	$v0,$t8,$a0
  415f80:	10000030 	b	416044 <_mkarglst+0x3e0>
  415f84:	24420004 	addiu	$v0,$v0,4
  415f88:	244b0003 	addiu	$t3,$v0,3
  415f8c:	01641024 	and	$v0,$t3,$a0
  415f90:	1000002c 	b	416044 <_mkarglst+0x3e0>
  415f94:	24420004 	addiu	$v0,$v0,4
  415f98:	304d0001 	andi	$t5,$v0,0x1
  415f9c:	11a00003 	beqz	$t5,415fac <_mkarglst+0x348>
  415fa0:	304e0002 	andi	$t6,$v0,0x2
  415fa4:	10000027 	b	416044 <_mkarglst+0x3e0>
  415fa8:	24420007 	addiu	$v0,$v0,7
  415fac:	11c00003 	beqz	$t6,415fbc <_mkarglst+0x358>
  415fb0:	244f0007 	addiu	$t7,$v0,7
  415fb4:	10000023 	b	416044 <_mkarglst+0x3e0>
  415fb8:	2442000a 	addiu	$v0,$v0,10
  415fbc:	01e71024 	and	$v0,$t7,$a3
  415fc0:	10000020 	b	416044 <_mkarglst+0x3e0>
  415fc4:	24420008 	addiu	$v0,$v0,8
  415fc8:	30590001 	andi	$t9,$v0,0x1
  415fcc:	13200003 	beqz	$t9,415fdc <_mkarglst+0x378>
  415fd0:	304c0002 	andi	$t4,$v0,0x2
  415fd4:	1000001b 	b	416044 <_mkarglst+0x3e0>
  415fd8:	24420007 	addiu	$v0,$v0,7
  415fdc:	11800003 	beqz	$t4,415fec <_mkarglst+0x388>
  415fe0:	24580007 	addiu	$t8,$v0,7
  415fe4:	10000017 	b	416044 <_mkarglst+0x3e0>
  415fe8:	2442000a 	addiu	$v0,$v0,10
  415fec:	03071024 	and	$v0,$t8,$a3
  415ff0:	10000014 	b	416044 <_mkarglst+0x3e0>
  415ff4:	24420008 	addiu	$v0,$v0,8
  415ff8:	244b0003 	addiu	$t3,$v0,3
  415ffc:	01641024 	and	$v0,$t3,$a0
  416000:	10000010 	b	416044 <_mkarglst+0x3e0>
  416004:	24420004 	addiu	$v0,$v0,4
  416008:	244d0003 	addiu	$t5,$v0,3
  41600c:	01a41024 	and	$v0,$t5,$a0
  416010:	1000000c 	b	416044 <_mkarglst+0x3e0>
  416014:	24420004 	addiu	$v0,$v0,4
  416018:	244e0003 	addiu	$t6,$v0,3
  41601c:	01c41024 	and	$v0,$t6,$a0
  416020:	10000008 	b	416044 <_mkarglst+0x3e0>
  416024:	24420004 	addiu	$v0,$v0,4
  416028:	244f0007 	addiu	$t7,$v0,7
  41602c:	01e71024 	and	$v0,$t7,$a3
  416030:	10000004 	b	416044 <_mkarglst+0x3e0>
  416034:	24420008 	addiu	$v0,$v0,8
  416038:	24590003 	addiu	$t9,$v0,3
  41603c:	03241024 	and	$v0,$t9,$a0
  416040:	24420004 	addiu	$v0,$v0,4
  416044:	24a50004 	addiu	$a1,$a1,4
  416048:	24c60004 	addiu	$a2,$a2,4
  41604c:	1505ffaa 	bne	$t0,$a1,415ef8 <_mkarglst+0x294>
  416050:	afa200ec 	sw	$v0,236($sp)
  416054:	8fbf003c 	lw	$ra,60($sp)
  416058:	8fb00018 	lw	$s0,24($sp)
  41605c:	8fb1001c 	lw	$s1,28($sp)
  416060:	8fb20020 	lw	$s2,32($sp)
  416064:	8fb30024 	lw	$s3,36($sp)
  416068:	8fb40028 	lw	$s4,40($sp)
  41606c:	8fb5002c 	lw	$s5,44($sp)
  416070:	8fb60030 	lw	$s6,48($sp)
  416074:	8fb70034 	lw	$s7,52($sp)
  416078:	8fbe0038 	lw	$s8,56($sp)
  41607c:	03e00008 	jr	$ra
  416080:	27bd00e8 	addiu	$sp,$sp,232

00416084 <_getarg>:
  416084:	27bdffa8 	addiu	$sp,$sp,-88
  416088:	afb70034 	sw	$s7,52($sp)
  41608c:	afbe0038 	sw	$s8,56($sp)
  416090:	afb60030 	sw	$s6,48($sp)
  416094:	afb5002c 	sw	$s5,44($sp)
  416098:	afb40028 	sw	$s4,40($sp)
  41609c:	afb30024 	sw	$s3,36($sp)
  4160a0:	afb00018 	sw	$s0,24($sp)
  4160a4:	3c170042 	lui	$s7,0x42
  4160a8:	00a08025 	move	$s0,$a1
  4160ac:	afbf003c 	sw	$ra,60($sp)
  4160b0:	afb20020 	sw	$s2,32($sp)
  4160b4:	afb1001c 	sw	$s1,28($sp)
  4160b8:	afa60060 	sw	$a2,96($sp)
  4160bc:	afa40044 	sw	$a0,68($sp)
  4160c0:	2416001e 	li	$s6,30
  4160c4:	24150001 	li	$s5,1
  4160c8:	26f7cccc 	addiu	$s7,$s7,-13108
  4160cc:	2413fffc 	li	$s3,-4
  4160d0:	2414fff8 	li	$s4,-8
  4160d4:	241e0024 	li	$s8,36
  4160d8:	8fae0060 	lw	$t6,96($sp)
  4160dc:	8fa40044 	lw	$a0,68($sp)
  4160e0:	12ce00d1 	beq	$s6,$t6,416428 <_getarg+0x3a4>
  4160e4:	afa00040 	sw	$zero,64($sp)
  4160e8:	24050025 	li	$a1,37
  4160ec:	0c105d6c 	jal	4175b0 <strchr>
  4160f0:	afa00040 	sw	$zero,64($sp)
  4160f4:	104000cc 	beqz	$v0,416428 <_getarg+0x3a4>
  4160f8:	00409025 	move	$s2,$v0
  4160fc:	26520001 	addiu	$s2,$s2,1
  416100:	02402025 	move	$a0,$s2
  416104:	0c105da0 	jal	417680 <strspn>
  416108:	02e02825 	move	$a1,$s7
  41610c:	00527821 	addu	$t7,$v0,$s2
  416110:	91f80000 	lbu	$t8,0($t7)
  416114:	00408825 	move	$s1,$v0
  416118:	17d80007 	bne	$s8,$t8,416138 <_getarg+0xb4>
  41611c:	00000000 	nop
  416120:	0c105fa4 	jal	417e90 <atoi>
  416124:	02402025 	move	$a0,$s2
  416128:	184000b7 	blez	$v0,416408 <_getarg+0x384>
  41612c:	0040a825 	move	$s5,$v0
  416130:	02519021 	addu	$s2,$s2,$s1
  416134:	26520001 	addiu	$s2,$s2,1
  416138:	12d50003 	beq	$s6,$s5,416148 <_getarg+0xc4>
  41613c:	24190001 	li	$t9,1
  416140:	100000b1 	b	416408 <_getarg+0x384>
  416144:	26b50001 	addiu	$s5,$s5,1
  416148:	afb90040 	sw	$t9,64($sp)
  41614c:	00008825 	move	$s1,$zero
  416150:	3c050042 	lui	$a1,0x42
  416154:	24a5ccd8 	addiu	$a1,$a1,-13096
  416158:	0c105da0 	jal	417680 <strspn>
  41615c:	02402025 	move	$a0,$s2
  416160:	02429021 	addu	$s2,$s2,$v0
  416164:	92430000 	lbu	$v1,0($s2)
  416168:	26520001 	addiu	$s2,$s2,1
  41616c:	2468ffdb 	addiu	$t0,$v1,-37
  416170:	2d01004f 	sltiu	$at,$t0,79
  416174:	10200084 	beqz	$at,416388 <_getarg+0x304>
  416178:	00084080 	sll	$t0,$t0,0x2
  41617c:	3c010042 	lui	$at,0x42
  416180:	00280821 	addu	$at,$at,$t0
  416184:	8c28cfbc 	lw	$t0,-12356($at)
  416188:	00000000 	nop
  41618c:	01000008 	jr	$t0
  416190:	00000000 	nop
  416194:	32290001 	andi	$t1,$s1,0x1
  416198:	11200004 	beqz	$t1,4161ac <_getarg+0x128>
  41619c:	362c0001 	ori	$t4,$s1,0x1
  4161a0:	3a2a0001 	xori	$t2,$s1,0x1
  4161a4:	1000ffea 	b	416150 <_getarg+0xcc>
  4161a8:	35510004 	ori	$s1,$t2,0x4
  4161ac:	1000ffe8 	b	416150 <_getarg+0xcc>
  4161b0:	01808825 	move	$s1,$t4
  4161b4:	924d0000 	lbu	$t5,0($s2)
  4161b8:	3c0e0042 	lui	$t6,0x42
  4161bc:	01cd7021 	addu	$t6,$t6,$t5
  4161c0:	91ced751 	lbu	$t6,-10415($t6)
  4161c4:	02402025 	move	$a0,$s2
  4161c8:	31cf0004 	andi	$t7,$t6,0x4
  4161cc:	11e0000a 	beqz	$t7,4161f8 <_getarg+0x174>
  4161d0:	36390002 	ori	$t9,$s1,0x2
  4161d4:	0c105da0 	jal	417680 <strspn>
  4161d8:	02e02825 	move	$a1,$s7
  4161dc:	02429021 	addu	$s2,$s2,$v0
  4161e0:	92580000 	lbu	$t8,0($s2)
  4161e4:	00000000 	nop
  4161e8:	17d8ffd9 	bne	$s8,$t8,416150 <_getarg+0xcc>
  4161ec:	00000000 	nop
  4161f0:	1000ffd7 	b	416150 <_getarg+0xcc>
  4161f4:	26520001 	addiu	$s2,$s2,1
  4161f8:	8e080000 	lw	$t0,0($s0)
  4161fc:	03208825 	move	$s1,$t9
  416200:	25090003 	addiu	$t1,$t0,3
  416204:	01335024 	and	$t2,$t1,$s3
  416208:	254b0004 	addiu	$t3,$t2,4
  41620c:	10000077 	b	4163ec <_getarg+0x368>
  416210:	ae0b0000 	sw	$t3,0($s0)
  416214:	322c0001 	andi	$t4,$s1,0x1
  416218:	11800013 	beqz	$t4,416268 <_getarg+0x1e4>
  41621c:	00000000 	nop
  416220:	8e030000 	lw	$v1,0($s0)
  416224:	00000000 	nop
  416228:	306d0001 	andi	$t5,$v1,0x1
  41622c:	11a00004 	beqz	$t5,416240 <_getarg+0x1bc>
  416230:	00601025 	move	$v0,$v1
  416234:	244e0007 	addiu	$t6,$v0,7
  416238:	1000006c 	b	4163ec <_getarg+0x368>
  41623c:	ae0e0000 	sw	$t6,0($s0)
  416240:	304f0002 	andi	$t7,$v0,0x2
  416244:	11e00004 	beqz	$t7,416258 <_getarg+0x1d4>
  416248:	24790007 	addiu	$t9,$v1,7
  41624c:	2458000a 	addiu	$t8,$v0,10
  416250:	10000066 	b	4163ec <_getarg+0x368>
  416254:	ae180000 	sw	$t8,0($s0)
  416258:	03344024 	and	$t0,$t9,$s4
  41625c:	25090008 	addiu	$t1,$t0,8
  416260:	10000062 	b	4163ec <_getarg+0x368>
  416264:	ae090000 	sw	$t1,0($s0)
  416268:	8e030000 	lw	$v1,0($s0)
  41626c:	00000000 	nop
  416270:	306a0001 	andi	$t2,$v1,0x1
  416274:	11400004 	beqz	$t2,416288 <_getarg+0x204>
  416278:	00601025 	move	$v0,$v1
  41627c:	244b0007 	addiu	$t3,$v0,7
  416280:	1000005a 	b	4163ec <_getarg+0x368>
  416284:	ae0b0000 	sw	$t3,0($s0)
  416288:	304c0002 	andi	$t4,$v0,0x2
  41628c:	11800004 	beqz	$t4,4162a0 <_getarg+0x21c>
  416290:	246e0007 	addiu	$t6,$v1,7
  416294:	244d000a 	addiu	$t5,$v0,10
  416298:	10000054 	b	4163ec <_getarg+0x368>
  41629c:	ae0d0000 	sw	$t5,0($s0)
  4162a0:	01d47824 	and	$t7,$t6,$s4
  4162a4:	25f80008 	addiu	$t8,$t7,8
  4162a8:	10000050 	b	4163ec <_getarg+0x368>
  4162ac:	ae180000 	sw	$t8,0($s0)
  4162b0:	8e190000 	lw	$t9,0($s0)
  4162b4:	00000000 	nop
  4162b8:	27280003 	addiu	$t0,$t9,3
  4162bc:	01134824 	and	$t1,$t0,$s3
  4162c0:	252a0004 	addiu	$t2,$t1,4
  4162c4:	10000049 	b	4163ec <_getarg+0x368>
  4162c8:	ae0a0000 	sw	$t2,0($s0)
  4162cc:	8e0b0000 	lw	$t3,0($s0)
  4162d0:	00000000 	nop
  4162d4:	256c0003 	addiu	$t4,$t3,3
  4162d8:	01936824 	and	$t5,$t4,$s3
  4162dc:	25ae0004 	addiu	$t6,$t5,4
  4162e0:	10000042 	b	4163ec <_getarg+0x368>
  4162e4:	ae0e0000 	sw	$t6,0($s0)
  4162e8:	322f0004 	andi	$t7,$s1,0x4
  4162ec:	11e00008 	beqz	$t7,416310 <_getarg+0x28c>
  4162f0:	322a0001 	andi	$t2,$s1,0x1
  4162f4:	8e180000 	lw	$t8,0($s0)
  4162f8:	00000000 	nop
  4162fc:	27190003 	addiu	$t9,$t8,3
  416300:	03334024 	and	$t0,$t9,$s3
  416304:	25090004 	addiu	$t1,$t0,4
  416308:	10000038 	b	4163ec <_getarg+0x368>
  41630c:	ae090000 	sw	$t1,0($s0)
  416310:	11400008 	beqz	$t2,416334 <_getarg+0x2b0>
  416314:	00000000 	nop
  416318:	8e0b0000 	lw	$t3,0($s0)
  41631c:	00000000 	nop
  416320:	256c0003 	addiu	$t4,$t3,3
  416324:	01936824 	and	$t5,$t4,$s3
  416328:	25ae0004 	addiu	$t6,$t5,4
  41632c:	1000002f 	b	4163ec <_getarg+0x368>
  416330:	ae0e0000 	sw	$t6,0($s0)
  416334:	8e0f0000 	lw	$t7,0($s0)
  416338:	00000000 	nop
  41633c:	25f80003 	addiu	$t8,$t7,3
  416340:	0313c824 	and	$t9,$t8,$s3
  416344:	27280004 	addiu	$t0,$t9,4
  416348:	10000028 	b	4163ec <_getarg+0x368>
  41634c:	ae080000 	sw	$t0,0($s0)
  416350:	8e090000 	lw	$t1,0($s0)
  416354:	00000000 	nop
  416358:	252a0003 	addiu	$t2,$t1,3
  41635c:	01535824 	and	$t3,$t2,$s3
  416360:	256c0004 	addiu	$t4,$t3,4
  416364:	10000021 	b	4163ec <_getarg+0x368>
  416368:	ae0c0000 	sw	$t4,0($s0)
  41636c:	8e0d0000 	lw	$t5,0($s0)
  416370:	00000000 	nop
  416374:	25ae0003 	addiu	$t6,$t5,3
  416378:	01d37824 	and	$t7,$t6,$s3
  41637c:	25f80004 	addiu	$t8,$t7,4
  416380:	1000001a 	b	4163ec <_getarg+0x368>
  416384:	ae180000 	sw	$t8,0($s0)
  416388:	32390004 	andi	$t9,$s1,0x4
  41638c:	13200008 	beqz	$t9,4163b0 <_getarg+0x32c>
  416390:	322c0001 	andi	$t4,$s1,0x1
  416394:	8e080000 	lw	$t0,0($s0)
  416398:	00000000 	nop
  41639c:	25090007 	addiu	$t1,$t0,7
  4163a0:	01345024 	and	$t2,$t1,$s4
  4163a4:	254b0008 	addiu	$t3,$t2,8
  4163a8:	10000010 	b	4163ec <_getarg+0x368>
  4163ac:	ae0b0000 	sw	$t3,0($s0)
  4163b0:	11800008 	beqz	$t4,4163d4 <_getarg+0x350>
  4163b4:	00000000 	nop
  4163b8:	8e0d0000 	lw	$t5,0($s0)
  4163bc:	00000000 	nop
  4163c0:	25ae0003 	addiu	$t6,$t5,3
  4163c4:	01d37824 	and	$t7,$t6,$s3
  4163c8:	25f80004 	addiu	$t8,$t7,4
  4163cc:	10000007 	b	4163ec <_getarg+0x368>
  4163d0:	ae180000 	sw	$t8,0($s0)
  4163d4:	8e190000 	lw	$t9,0($s0)
  4163d8:	00000000 	nop
  4163dc:	27280003 	addiu	$t0,$t9,3
  4163e0:	01134824 	and	$t1,$t0,$s3
  4163e4:	252a0004 	addiu	$t2,$t1,4
  4163e8:	ae0a0000 	sw	$t2,0($s0)
  4163ec:	322b0002 	andi	$t3,$s1,0x2
  4163f0:	26d60001 	addiu	$s6,$s6,1
  4163f4:	11600004 	beqz	$t3,416408 <_getarg+0x384>
  4163f8:	26b50001 	addiu	$s5,$s5,1
  4163fc:	3a2c0002 	xori	$t4,$s1,0x2
  416400:	1000ff53 	b	416150 <_getarg+0xcc>
  416404:	01808825 	move	$s1,$t4
  416408:	8fad0060 	lw	$t5,96($sp)
  41640c:	02402025 	move	$a0,$s2
  416410:	12cd0006 	beq	$s6,$t5,41642c <_getarg+0x3a8>
  416414:	8fa20040 	lw	$v0,64($sp)
  416418:	0c105d6c 	jal	4175b0 <strchr>
  41641c:	24050025 	li	$a1,37
  416420:	1440ff36 	bnez	$v0,4160fc <_getarg+0x78>
  416424:	00409025 	move	$s2,$v0
  416428:	8fa20040 	lw	$v0,64($sp)
  41642c:	8fae0060 	lw	$t6,96($sp)
  416430:	1440000b 	bnez	$v0,416460 <_getarg+0x3dc>
  416434:	00000000 	nop
  416438:	12ce0009 	beq	$s6,$t6,416460 <_getarg+0x3dc>
  41643c:	00000000 	nop
  416440:	8e0f0000 	lw	$t7,0($s0)
  416444:	26d60001 	addiu	$s6,$s6,1
  416448:	25f80003 	addiu	$t8,$t7,3
  41644c:	0313c824 	and	$t9,$t8,$s3
  416450:	27280004 	addiu	$t0,$t9,4
  416454:	ae080000 	sw	$t0,0($s0)
  416458:	02c0a825 	move	$s5,$s6
  41645c:	24020001 	li	$v0,1
  416460:	1440ff1e 	bnez	$v0,4160dc <_getarg+0x58>
  416464:	8fae0060 	lw	$t6,96($sp)
  416468:	8fbf003c 	lw	$ra,60($sp)
  41646c:	8fb00018 	lw	$s0,24($sp)
  416470:	8fb1001c 	lw	$s1,28($sp)
  416474:	8fb20020 	lw	$s2,32($sp)
  416478:	8fb30024 	lw	$s3,36($sp)
  41647c:	8fb40028 	lw	$s4,40($sp)
  416480:	8fb5002c 	lw	$s5,44($sp)
  416484:	8fb60030 	lw	$s6,48($sp)
  416488:	8fb70034 	lw	$s7,52($sp)
  41648c:	8fbe0038 	lw	$s8,56($sp)
  416490:	03e00008 	jr	$ra
  416494:	27bd0058 	addiu	$sp,$sp,88
  416498:	3c070042 	lui	$a3,0x42
  41649c:	24e7cba0 	addiu	$a3,$a3,-13408
  4164a0:	8cf80088 	lw	$t8,136($a3)
  4164a4:	8cf9008c 	lw	$t9,140($a3)
  4164a8:	0098082a 	slt	$at,$a0,$t8
  4164ac:	afa40000 	sw	$a0,0($sp)
  4164b0:	afa50004 	sw	$a1,4($sp)
  4164b4:	00001825 	move	$v1,$zero
  4164b8:	14200008 	bnez	$at,4164dc <_getarg+0x458>
  4164bc:	24020011 	li	$v0,17
  4164c0:	0304082a 	slt	$at,$t8,$a0
  4164c4:	14200003 	bnez	$at,4164d4 <_getarg+0x450>
  4164c8:	00b9082b 	sltu	$at,$a1,$t9
  4164cc:	14200004 	bnez	$at,4164e0 <_getarg+0x45c>
  4164d0:	00432023 	subu	$a0,$v0,$v1
  4164d4:	03e00008 	jr	$ra
  4164d8:	24020013 	li	$v0,19
  4164dc:	00432023 	subu	$a0,$v0,$v1
  4164e0:	00044043 	sra	$t0,$a0,0x1
  4164e4:	01032821 	addu	$a1,$t0,$v1
  4164e8:	000548c0 	sll	$t1,$a1,0x3
  4164ec:	00e96021 	addu	$t4,$a3,$t1
  4164f0:	8d8e0000 	lw	$t6,0($t4)
  4164f4:	8faa0000 	lw	$t2,0($sp)
  4164f8:	8d8f0004 	lw	$t7,4($t4)
  4164fc:	8fab0004 	lw	$t3,4($sp)
  416500:	01ca082a 	slt	$at,$t6,$t2
  416504:	14200007 	bnez	$at,416524 <_getarg+0x4a0>
  416508:	014e082a 	slt	$at,$t2,$t6
  41650c:	14200003 	bnez	$at,41651c <_getarg+0x498>
  416510:	016f082b 	sltu	$at,$t3,$t7
  416514:	10200003 	beqz	$at,416524 <_getarg+0x4a0>
  416518:	00000000 	nop
  41651c:	10000002 	b	416528 <_getarg+0x4a4>
  416520:	00a01025 	move	$v0,$a1
  416524:	00a01825 	move	$v1,$a1
  416528:	00432023 	subu	$a0,$v0,$v1
  41652c:	28810002 	slti	$at,$a0,2
  416530:	1020ffec 	beqz	$at,4164e4 <_getarg+0x460>
  416534:	00044043 	sra	$t0,$a0,0x1
  416538:	24620002 	addiu	$v0,$v1,2
  41653c:	03e00008 	jr	$ra
  416540:	00000000 	nop
  416544:	3c080042 	lui	$t0,0x42
  416548:	2508cc30 	addiu	$t0,$t0,-13264
  41654c:	8d0e0020 	lw	$t6,32($t0)
  416550:	00001825 	move	$v1,$zero
  416554:	008e082a 	slt	$at,$a0,$t6
  416558:	14200003 	bnez	$at,416568 <_getarg+0x4e4>
  41655c:	24020008 	li	$v0,8
  416560:	03e00008 	jr	$ra
  416564:	2402000a 	li	$v0,10
  416568:	00432823 	subu	$a1,$v0,$v1
  41656c:	00057843 	sra	$t7,$a1,0x1
  416570:	01e33821 	addu	$a3,$t7,$v1
  416574:	0007c080 	sll	$t8,$a3,0x2
  416578:	0118c821 	addu	$t9,$t0,$t8
  41657c:	8f290000 	lw	$t1,0($t9)
  416580:	00e03025 	move	$a2,$a3
  416584:	0089082a 	slt	$at,$a0,$t1
  416588:	10200003 	beqz	$at,416598 <_getarg+0x514>
  41658c:	00000000 	nop
  416590:	10000002 	b	41659c <_getarg+0x518>
  416594:	00e01025 	move	$v0,$a3
  416598:	00c01825 	move	$v1,$a2
  41659c:	00432823 	subu	$a1,$v0,$v1
  4165a0:	28a10002 	slti	$at,$a1,2
  4165a4:	1020fff2 	beqz	$at,416570 <_getarg+0x4ec>
  4165a8:	00057843 	sra	$t7,$a1,0x1
  4165ac:	24620002 	addiu	$v0,$v1,2
  4165b0:	03e00008 	jr	$ra
	...

004165c0 <_vsprintf>:
  4165c0:	27bdffd0 	addiu	$sp,$sp,-48
  4165c4:	afa40020 	sw	$a0,32($sp)
  4165c8:	afa40024 	sw	$a0,36($sp)
  4165cc:	afa50034 	sw	$a1,52($sp)
  4165d0:	3c0e7fff 	lui	$t6,0x7fff
  4165d4:	00a02025 	move	$a0,$a1
  4165d8:	afbf0014 	sw	$ra,20($sp)
  4165dc:	afa60038 	sw	$a2,56($sp)
  4165e0:	35ceffff 	ori	$t6,$t6,0xffff
  4165e4:	240f0001 	li	$t7,1
  4165e8:	00c02825 	move	$a1,$a2
  4165ec:	afae001c 	sw	$t6,28($sp)
  4165f0:	a3af0028 	sb	$t7,40($sp)
  4165f4:	0c104e9f 	jal	413a7c <_doprnt>
  4165f8:	27a6001c 	addiu	$a2,$sp,28
  4165fc:	8fb80020 	lw	$t8,32($sp)
  416600:	00000000 	nop
  416604:	a3000000 	sb	$zero,0($t8)
  416608:	8fbf0014 	lw	$ra,20($sp)
  41660c:	27bd0030 	addiu	$sp,$sp,48
  416610:	03e00008 	jr	$ra
	...

00416620 <_geteuid>:
  416620:	24020400 	li	$v0,1024
  416624:	0000000c 	syscall
  416628:	14e00004 	bnez	$a3,41663c <_geteuid+0x1c>
  41662c:	00000000 	nop
  416630:	00601025 	move	$v0,$v1
  416634:	03e00008 	jr	$ra
  416638:	00000000 	nop
  41663c:	3c190040 	lui	$t9,0x40
  416640:	273965c0 	addiu	$t9,$t9,26048
  416644:	03200008 	jr	$t9
	...

00416650 <_sigprocmask>:
  416650:	2402048c 	li	$v0,1164
  416654:	0000000c 	syscall
  416658:	14e00003 	bnez	$a3,416668 <_sigprocmask+0x18>
  41665c:	00000000 	nop
  416660:	03e00008 	jr	$ra
  416664:	00000000 	nop
  416668:	3c190040 	lui	$t9,0x40
  41666c:	273965c0 	addiu	$t9,$t9,26048
  416670:	03200008 	jr	$t9
	...

00416680 <raise>:
  416680:	27bdffe8 	addiu	$sp,$sp,-24
  416684:	afbf0014 	sw	$ra,20($sp)
  416688:	0c10654c 	jal	419530 <_getpid>
  41668c:	afa40018 	sw	$a0,24($sp)
  416690:	8fa50018 	lw	$a1,24($sp)
  416694:	0c106558 	jal	419560 <_kill>
  416698:	00402025 	move	$a0,$v0
  41669c:	8fbf0014 	lw	$ra,20($sp)
  4166a0:	27bd0018 	addiu	$sp,$sp,24
  4166a4:	03e00008 	jr	$ra
	...
  4166b0:	27bdffe8 	addiu	$sp,$sp,-24
  4166b4:	afbf0014 	sw	$ra,20($sp)
  4166b8:	18800004 	blez	$a0,4166cc <raise+0x4c>
  4166bc:	00802825 	move	$a1,$a0
  4166c0:	2c810081 	sltiu	$at,$a0,129
  4166c4:	14200003 	bnez	$at,4166d4 <raise+0x54>
  4166c8:	00000000 	nop
  4166cc:	1000001e 	b	416748 <raise+0xc8>
  4166d0:	00001025 	move	$v0,$zero
  4166d4:	8f8e8b20 	lw	$t6,-29920($gp)
  4166d8:	3c040042 	lui	$a0,0x42
  4166dc:	15c00007 	bnez	$t6,4166fc <raise+0x7c>
  4166e0:	2484d730 	addiu	$a0,$a0,-10448
  4166e4:	0c106570 	jal	4195c0 <__sigfillset>
  4166e8:	afa50018 	sw	$a1,24($sp)
  4166ec:	8f8f8b20 	lw	$t7,-29920($gp)
  4166f0:	8fa50018 	lw	$a1,24($sp)
  4166f4:	25f80001 	addiu	$t8,$t7,1
  4166f8:	af988b20 	sw	$t8,-29920($gp)
  4166fc:	24a3ffff 	addiu	$v1,$a1,-1
  416700:	04610003 	bgez	$v1,416710 <raise+0x90>
  416704:	0003c943 	sra	$t9,$v1,0x5
  416708:	2461001f 	addiu	$at,$v1,31
  41670c:	0001c943 	sra	$t9,$at,0x5
  416710:	00194080 	sll	$t0,$t9,0x2
  416714:	3c090042 	lui	$t1,0x42
  416718:	01284821 	addu	$t1,$t1,$t0
  41671c:	8d29d730 	lw	$t1,-10448($t1)
  416720:	04610004 	bgez	$v1,416734 <raise+0xb4>
  416724:	306a001f 	andi	$t2,$v1,0x1f
  416728:	11400002 	beqz	$t2,416734 <raise+0xb4>
  41672c:	00000000 	nop
  416730:	254affe0 	addiu	$t2,$t2,-32
  416734:	240b0001 	li	$t3,1
  416738:	014b6004 	sllv	$t4,$t3,$t2
  41673c:	012c1024 	and	$v0,$t1,$t4
  416740:	0002682b 	sltu	$t5,$zero,$v0
  416744:	01a01025 	move	$v0,$t5
  416748:	8fbf0014 	lw	$ra,20($sp)
  41674c:	27bd0018 	addiu	$sp,$sp,24
  416750:	03e00008 	jr	$ra
  416754:	00000000 	nop

00416758 <_sigfillset>:
  416758:	8f8e8b20 	lw	$t6,-29920($gp)
  41675c:	27bdffe8 	addiu	$sp,$sp,-24
  416760:	afbf0014 	sw	$ra,20($sp)
  416764:	15c00008 	bnez	$t6,416788 <_sigfillset+0x30>
  416768:	afa40018 	sw	$a0,24($sp)
  41676c:	3c040042 	lui	$a0,0x42
  416770:	0c106570 	jal	4195c0 <__sigfillset>
  416774:	2484d730 	addiu	$a0,$a0,-10448
  416778:	8f8f8b20 	lw	$t7,-29920($gp)
  41677c:	00000000 	nop
  416780:	25f80001 	addiu	$t8,$t7,1
  416784:	af988b20 	sw	$t8,-29920($gp)
  416788:	3c080042 	lui	$t0,0x42
  41678c:	2508d730 	addiu	$t0,$t0,-10448
  416790:	8d010000 	lw	$at,0($t0)
  416794:	8fb90018 	lw	$t9,24($sp)
  416798:	00001025 	move	$v0,$zero
  41679c:	af210000 	sw	$at,0($t9)
  4167a0:	8d0b0004 	lw	$t3,4($t0)
  4167a4:	00000000 	nop
  4167a8:	af2b0004 	sw	$t3,4($t9)
  4167ac:	8d010008 	lw	$at,8($t0)
  4167b0:	00000000 	nop
  4167b4:	af210008 	sw	$at,8($t9)
  4167b8:	8d0b000c 	lw	$t3,12($t0)
  4167bc:	00000000 	nop
  4167c0:	af2b000c 	sw	$t3,12($t9)
  4167c4:	8fbf0014 	lw	$ra,20($sp)
  4167c8:	27bd0018 	addiu	$sp,$sp,24
  4167cc:	03e00008 	jr	$ra
  4167d0:	00000000 	nop

004167d4 <_sigemptyset>:
  4167d4:	ac800000 	sw	$zero,0($a0)
  4167d8:	ac800004 	sw	$zero,4($a0)
  4167dc:	ac800008 	sw	$zero,8($a0)
  4167e0:	ac80000c 	sw	$zero,12($a0)
  4167e4:	03e00008 	jr	$ra
  4167e8:	00001025 	move	$v0,$zero

004167ec <_sigaddset>:
  4167ec:	27bdffe8 	addiu	$sp,$sp,-24
  4167f0:	afbf0014 	sw	$ra,20($sp)
  4167f4:	afa40018 	sw	$a0,24($sp)
  4167f8:	afa5001c 	sw	$a1,28($sp)
  4167fc:	0c1059ac 	jal	4166b0 <raise+0x30>
  416800:	00a02025 	move	$a0,$a1
  416804:	14400005 	bnez	$v0,41681c <_sigaddset+0x30>
  416808:	24090001 	li	$t1,1
  41680c:	0c101ebd 	jal	407af4 <_setoserror>
  416810:	24040016 	li	$a0,22
  416814:	10000014 	b	416868 <_sigaddset+0x7c>
  416818:	2402ffff 	li	$v0,-1
  41681c:	8fa3001c 	lw	$v1,28($sp)
  416820:	8fae0018 	lw	$t6,24($sp)
  416824:	2463ffff 	addiu	$v1,$v1,-1
  416828:	04610003 	bgez	$v1,416838 <_sigaddset+0x4c>
  41682c:	00037943 	sra	$t7,$v1,0x5
  416830:	2461001f 	addiu	$at,$v1,31
  416834:	00017943 	sra	$t7,$at,0x5
  416838:	000fc080 	sll	$t8,$t7,0x2
  41683c:	01d82021 	addu	$a0,$t6,$t8
  416840:	8c990000 	lw	$t9,0($a0)
  416844:	04610004 	bgez	$v1,416858 <_sigaddset+0x6c>
  416848:	3068001f 	andi	$t0,$v1,0x1f
  41684c:	11000002 	beqz	$t0,416858 <_sigaddset+0x6c>
  416850:	00000000 	nop
  416854:	2508ffe0 	addiu	$t0,$t0,-32
  416858:	01095004 	sllv	$t2,$t1,$t0
  41685c:	032a5825 	or	$t3,$t9,$t2
  416860:	ac8b0000 	sw	$t3,0($a0)
  416864:	00001025 	move	$v0,$zero
  416868:	8fbf0014 	lw	$ra,20($sp)
  41686c:	27bd0018 	addiu	$sp,$sp,24
  416870:	03e00008 	jr	$ra
  416874:	00000000 	nop

00416878 <_sigdelset>:
  416878:	27bdffe8 	addiu	$sp,$sp,-24
  41687c:	afbf0014 	sw	$ra,20($sp)
  416880:	afa40018 	sw	$a0,24($sp)
  416884:	afa5001c 	sw	$a1,28($sp)
  416888:	0c1059ac 	jal	4166b0 <raise+0x30>
  41688c:	00a02025 	move	$a0,$a1
  416890:	14400005 	bnez	$v0,4168a8 <_sigdelset+0x30>
  416894:	24090001 	li	$t1,1
  416898:	0c101ebd 	jal	407af4 <_setoserror>
  41689c:	24040016 	li	$a0,22
  4168a0:	10000015 	b	4168f8 <_sigdelset+0x80>
  4168a4:	2402ffff 	li	$v0,-1
  4168a8:	8fa3001c 	lw	$v1,28($sp)
  4168ac:	8fae0018 	lw	$t6,24($sp)
  4168b0:	2463ffff 	addiu	$v1,$v1,-1
  4168b4:	04610003 	bgez	$v1,4168c4 <_sigdelset+0x4c>
  4168b8:	00037943 	sra	$t7,$v1,0x5
  4168bc:	2461001f 	addiu	$at,$v1,31
  4168c0:	00017943 	sra	$t7,$at,0x5
  4168c4:	000fc080 	sll	$t8,$t7,0x2
  4168c8:	01d82021 	addu	$a0,$t6,$t8
  4168cc:	8c990000 	lw	$t9,0($a0)
  4168d0:	04610004 	bgez	$v1,4168e4 <_sigdelset+0x6c>
  4168d4:	3068001f 	andi	$t0,$v1,0x1f
  4168d8:	11000002 	beqz	$t0,4168e4 <_sigdelset+0x6c>
  4168dc:	00000000 	nop
  4168e0:	2508ffe0 	addiu	$t0,$t0,-32
  4168e4:	01095004 	sllv	$t2,$t1,$t0
  4168e8:	01405827 	nor	$t3,$t2,$zero
  4168ec:	032b6024 	and	$t4,$t9,$t3
  4168f0:	ac8c0000 	sw	$t4,0($a0)
  4168f4:	00001025 	move	$v0,$zero
  4168f8:	8fbf0014 	lw	$ra,20($sp)
  4168fc:	27bd0018 	addiu	$sp,$sp,24
  416900:	03e00008 	jr	$ra
  416904:	00000000 	nop

00416908 <_sigismember>:
  416908:	27bdffe8 	addiu	$sp,$sp,-24
  41690c:	afbf0014 	sw	$ra,20($sp)
  416910:	afa40018 	sw	$a0,24($sp)
  416914:	afa5001c 	sw	$a1,28($sp)
  416918:	0c1059ac 	jal	4166b0 <raise+0x30>
  41691c:	00a02025 	move	$a0,$a1
  416920:	14400005 	bnez	$v0,416938 <_sigismember+0x30>
  416924:	240a0001 	li	$t2,1
  416928:	0c101ebd 	jal	407af4 <_setoserror>
  41692c:	24040016 	li	$a0,22
  416930:	10000014 	b	416984 <_sigismember+0x7c>
  416934:	2402ffff 	li	$v0,-1
  416938:	8fa3001c 	lw	$v1,28($sp)
  41693c:	8fae0018 	lw	$t6,24($sp)
  416940:	2463ffff 	addiu	$v1,$v1,-1
  416944:	04610003 	bgez	$v1,416954 <_sigismember+0x4c>
  416948:	00037943 	sra	$t7,$v1,0x5
  41694c:	2461001f 	addiu	$at,$v1,31
  416950:	00017943 	sra	$t7,$at,0x5
  416954:	000fc080 	sll	$t8,$t7,0x2
  416958:	01d8c821 	addu	$t9,$t6,$t8
  41695c:	8f280000 	lw	$t0,0($t9)
  416960:	04610004 	bgez	$v1,416974 <_sigismember+0x6c>
  416964:	3069001f 	andi	$t1,$v1,0x1f
  416968:	11200002 	beqz	$t1,416974 <_sigismember+0x6c>
  41696c:	00000000 	nop
  416970:	2529ffe0 	addiu	$t1,$t1,-32
  416974:	012a5804 	sllv	$t3,$t2,$t1
  416978:	010b1024 	and	$v0,$t0,$t3
  41697c:	0002602b 	sltu	$t4,$zero,$v0
  416980:	01801025 	move	$v0,$t4
  416984:	8fbf0014 	lw	$ra,20($sp)
  416988:	27bd0018 	addiu	$sp,$sp,24
  41698c:	03e00008 	jr	$ra
	...

004169a0 <signal>:
  4169a0:	27bdff98 	addiu	$sp,$sp,-104
  4169a4:	3c0e0042 	lui	$t6,0x42
  4169a8:	afbf0014 	sw	$ra,20($sp)
  4169ac:	afa5006c 	sw	$a1,108($sp)
  4169b0:	25ced740 	addiu	$t6,$t6,-10432
  4169b4:	8dc10000 	lw	$at,0($t6)
  4169b8:	27a60018 	addiu	$a2,$sp,24
  4169bc:	acc10000 	sw	$at,0($a2)
  4169c0:	8dd90004 	lw	$t9,4($t6)
  4169c4:	00803825 	move	$a3,$a0
  4169c8:	acd90004 	sw	$t9,4($a2)
  4169cc:	8dc10008 	lw	$at,8($t6)
  4169d0:	00000000 	nop
  4169d4:	acc10008 	sw	$at,8($a2)
  4169d8:	8dd9000c 	lw	$t9,12($t6)
  4169dc:	1880000a 	blez	$a0,416a08 <signal+0x68>
  4169e0:	acd9000c 	sw	$t9,12($a2)
  4169e4:	28810041 	slti	$at,$a0,65
  4169e8:	10200007 	beqz	$at,416a08 <signal+0x68>
  4169ec:	00c02025 	move	$a0,$a2
  4169f0:	00e02825 	move	$a1,$a3
  4169f4:	0c105a42 	jal	416908 <_sigismember>
  4169f8:	afa70068 	sw	$a3,104($sp)
  4169fc:	8fa70068 	lw	$a3,104($sp)
  416a00:	10400005 	beqz	$v0,416a18 <signal+0x78>
  416a04:	24080012 	li	$t0,18
  416a08:	0c101ebd 	jal	407af4 <_setoserror>
  416a0c:	24040016 	li	$a0,22
  416a10:	1000000e 	b	416a4c <signal+0xac>
  416a14:	2402ffff 	li	$v0,-1
  416a18:	8fa9006c 	lw	$t1,108($sp)
  416a1c:	afa80048 	sw	$t0,72($sp)
  416a20:	00e02025 	move	$a0,$a3
  416a24:	27a50048 	addiu	$a1,$sp,72
  416a28:	27a60028 	addiu	$a2,$sp,40
  416a2c:	0c105a98 	jal	416a60 <_ssig>
  416a30:	afa9004c 	sw	$t1,76($sp)
  416a34:	10400004 	beqz	$v0,416a48 <signal+0xa8>
  416a38:	8fa2002c 	lw	$v0,44($sp)
  416a3c:	10000003 	b	416a4c <signal+0xac>
  416a40:	2402ffff 	li	$v0,-1
  416a44:	8fa2002c 	lw	$v0,44($sp)
  416a48:	00000000 	nop
  416a4c:	8fbf0014 	lw	$ra,20($sp)
  416a50:	27bd0068 	addiu	$sp,$sp,104
  416a54:	03e00008 	jr	$ra
	...

00416a60 <_ssig>:
  416a60:	27bdffe8 	addiu	$sp,$sp,-24
  416a64:	afbf0014 	sw	$ra,20($sp)
  416a68:	afa40018 	sw	$a0,24($sp)
  416a6c:	afa60020 	sw	$a2,32($sp)
  416a70:	24a40008 	addiu	$a0,$a1,8
  416a74:	0c1059f5 	jal	4167d4 <_sigemptyset>
  416a78:	afa5001c 	sw	$a1,28($sp)
  416a7c:	8fa40018 	lw	$a0,24($sp)
  416a80:	8fa5001c 	lw	$a1,28($sp)
  416a84:	24010012 	li	$at,18
  416a88:	1481000c 	bne	$a0,$at,416abc <_ssig+0x5c>
  416a8c:	8fa60020 	lw	$a2,32($sp)
  416a90:	8cae0000 	lw	$t6,0($a1)
  416a94:	3c010002 	lui	$at,0x2
  416a98:	8cb80004 	lw	$t8,4($a1)
  416a9c:	01c17825 	or	$t7,$t6,$at
  416aa0:	24010001 	li	$at,1
  416aa4:	17010004 	bne	$t8,$at,416ab8 <_ssig+0x58>
  416aa8:	acaf0000 	sw	$t7,0($a1)
  416aac:	3c010001 	lui	$at,0x1
  416ab0:	01e14025 	or	$t0,$t7,$at
  416ab4:	aca80000 	sw	$t0,0($a1)
  416ab8:	8fa60020 	lw	$a2,32($sp)
  416abc:	0c106564 	jal	419590 <_sigaction>
  416ac0:	00000000 	nop
  416ac4:	8fbf0014 	lw	$ra,20($sp)
  416ac8:	27bd0018 	addiu	$sp,$sp,24
  416acc:	03e00008 	jr	$ra
	...

00416ae0 <fwrite>:
  416ae0:	27bdff98 	addiu	$sp,$sp,-104
  416ae4:	8f8f80d4 	lw	$t7,-32556($gp)
  416ae8:	afbe0038 	sw	$s8,56($sp)
  416aec:	afb40028 	sw	$s4,40($sp)
  416af0:	afb30024 	sw	$s3,36($sp)
  416af4:	00e0a025 	move	$s4,$a3
  416af8:	00a0f025 	move	$s8,$a1
  416afc:	afbf003c 	sw	$ra,60($sp)
  416b00:	afb70034 	sw	$s7,52($sp)
  416b04:	afb60030 	sw	$s6,48($sp)
  416b08:	afb5002c 	sw	$s5,44($sp)
  416b0c:	afb20020 	sw	$s2,32($sp)
  416b10:	afb1001c 	sw	$s1,28($sp)
  416b14:	afb00018 	sw	$s0,24($sp)
  416b18:	afa60070 	sw	$a2,112($sp)
  416b1c:	afa00058 	sw	$zero,88($sp)
  416b20:	afa00050 	sw	$zero,80($sp)
  416b24:	afa6004c 	sw	$a2,76($sp)
  416b28:	11e00006 	beqz	$t7,416b44 <fwrite+0x64>
  416b2c:	00809825 	move	$s3,$a0
  416b30:	0c102ac4 	jal	40ab10 <_flockfile>
  416b34:	00e02025 	move	$a0,$a3
  416b38:	24180001 	li	$t8,1
  416b3c:	10000002 	b	416b48 <fwrite+0x68>
  416b40:	afb80044 	sw	$t8,68($sp)
  416b44:	afa00044 	sw	$zero,68($sp)
  416b48:	13c0001f 	beqz	$s8,416bc8 <fwrite+0xe8>
  416b4c:	8fac0044 	lw	$t4,68($sp)
  416b50:	8fb90070 	lw	$t9,112($sp)
  416b54:	00000000 	nop
  416b58:	1320001b 	beqz	$t9,416bc8 <fwrite+0xe8>
  416b5c:	8fac0044 	lw	$t4,68($sp)
  416b60:	9282000c 	lbu	$v0,12($s4)
  416b64:	24010002 	li	$at,2
  416b68:	30480012 	andi	$t0,$v0,0x12
  416b6c:	1501000f 	bne	$t0,$at,416bac <fwrite+0xcc>
  416b70:	00000000 	nop
  416b74:	8e830008 	lw	$v1,8($s4)
  416b78:	00000000 	nop
  416b7c:	1060000b 	beqz	$v1,416bac <fwrite+0xcc>
  416b80:	00000000 	nop
  416b84:	8e890004 	lw	$t1,4($s4)
  416b88:	00002025 	move	$a0,$zero
  416b8c:	1469000b 	bne	$v1,$t1,416bbc <fwrite+0xdc>
  416b90:	00000000 	nop
  416b94:	8e8a0000 	lw	$t2,0($s4)
  416b98:	304b0044 	andi	$t3,$v0,0x44
  416b9c:	15400007 	bnez	$t2,416bbc <fwrite+0xdc>
  416ba0:	00000000 	nop
  416ba4:	15600005 	bnez	$t3,416bbc <fwrite+0xdc>
  416ba8:	00000000 	nop
  416bac:	0c105cb8 	jal	4172e0 <_wrtchk>
  416bb0:	02802025 	move	$a0,$s4
  416bb4:	10000001 	b	416bbc <fwrite+0xdc>
  416bb8:	00402025 	move	$a0,$v0
  416bbc:	10800009 	beqz	$a0,416be4 <fwrite+0x104>
  416bc0:	00000000 	nop
  416bc4:	8fac0044 	lw	$t4,68($sp)
  416bc8:	00000000 	nop
  416bcc:	11800003 	beqz	$t4,416bdc <fwrite+0xfc>
  416bd0:	00000000 	nop
  416bd4:	0c102aed 	jal	40abb4 <_funlockfile>
  416bd8:	02802025 	move	$a0,$s4
  416bdc:	100000c7 	b	416efc <fwrite+0x41c>
  416be0:	00001025 	move	$v0,$zero
  416be4:	9282000d 	lbu	$v0,13($s4)
  416be8:	3c170042 	lui	$s7,0x42
  416bec:	28410064 	slti	$at,$v0,100
  416bf0:	10200005 	beqz	$at,416c08 <fwrite+0x128>
  416bf4:	00026880 	sll	$t5,$v0,0x2
  416bf8:	02edb821 	addu	$s7,$s7,$t5
  416bfc:	8ef7dad0 	lw	$s7,-9520($s7)
  416c00:	10000005 	b	416c18 <fwrite+0x138>
  416c04:	8fae0070 	lw	$t6,112($sp)
  416c08:	0c10165b 	jal	40596c <_realbufend>
  416c0c:	02802025 	move	$a0,$s4
  416c10:	0040b825 	move	$s7,$v0
  416c14:	8fae0070 	lw	$t6,112($sp)
  416c18:	00000000 	nop
  416c1c:	01de0019 	multu	$t6,$s8
  416c20:	00001012 	mflo	$v0
	...
  416c2c:	8faf0070 	lw	$t7,112($sp)
  416c30:	8fb90070 	lw	$t9,112($sp)
  416c34:	004f082b 	sltu	$at,$v0,$t7
  416c38:	14200004 	bnez	$at,416c4c <fwrite+0x16c>
  416c3c:	0040a825 	move	$s5,$v0
  416c40:	005e082b 	sltu	$at,$v0,$s8
  416c44:	1020000e 	beqz	$at,416c80 <fwrite+0x1a0>
  416c48:	00000000 	nop
  416c4c:	17c00009 	bnez	$s8,416c74 <fwrite+0x194>
  416c50:	03c0a825 	move	$s5,$s8
  416c54:	8fb80044 	lw	$t8,68($sp)
  416c58:	00000000 	nop
  416c5c:	13000003 	beqz	$t8,416c6c <fwrite+0x18c>
  416c60:	00000000 	nop
  416c64:	0c102aed 	jal	40abb4 <_funlockfile>
  416c68:	02802025 	move	$a0,$s4
  416c6c:	100000a3 	b	416efc <fwrite+0x41c>
  416c70:	00001025 	move	$v0,$zero
  416c74:	2728ffff 	addiu	$t0,$t9,-1
  416c78:	10000002 	b	416c84 <fwrite+0x1a4>
  416c7c:	afa80070 	sw	$t0,112($sp)
  416c80:	afa00070 	sw	$zero,112($sp)
  416c84:	8e960004 	lw	$s6,4($s4)
  416c88:	00000000 	nop
  416c8c:	02d7082b 	sltu	$at,$s6,$s7
  416c90:	1420000f 	bnez	$at,416cd0 <fwrite+0x1f0>
  416c94:	00000000 	nop
  416c98:	0c1017ce 	jal	405f38 <_xflsbuf>
  416c9c:	02802025 	move	$a0,$s4
  416ca0:	2401ffff 	li	$at,-1
  416ca4:	1441000a 	bne	$v0,$at,416cd0 <fwrite+0x1f0>
  416ca8:	00000000 	nop
  416cac:	8fa90044 	lw	$t1,68($sp)
  416cb0:	00000000 	nop
  416cb4:	11200004 	beqz	$t1,416cc8 <fwrite+0x1e8>
  416cb8:	8fa20058 	lw	$v0,88($sp)
  416cbc:	0c102aed 	jal	40abb4 <_funlockfile>
  416cc0:	02802025 	move	$a0,$s4
  416cc4:	8fa20058 	lw	$v0,88($sp)
  416cc8:	1000008d 	b	416f00 <fwrite+0x420>
  416ccc:	8fbf003c 	lw	$ra,60($sp)
  416cd0:	8e8a0008 	lw	$t2,8($s4)
  416cd4:	02f69023 	subu	$s2,$s7,$s6
  416cd8:	0156082b 	sltu	$at,$t2,$s6
  416cdc:	1420003b 	bnez	$at,416dcc <fwrite+0x2ec>
  416ce0:	02c02025 	move	$a0,$s6
  416ce4:	9282000c 	lbu	$v0,12($s4)
  416ce8:	2ea11000 	sltiu	$at,$s5,4096
  416cec:	304b0004 	andi	$t3,$v0,0x4
  416cf0:	15600002 	bnez	$t3,416cfc <fwrite+0x21c>
  416cf4:	01601025 	move	$v0,$t3
  416cf8:	14200034 	bnez	$at,416dcc <fwrite+0x2ec>
  416cfc:	3c017fff 	lui	$at,0x7fff
  416d00:	3421f001 	ori	$at,$at,0xf001
  416d04:	02a1082b 	sltu	$at,$s5,$at
  416d08:	9284000d 	lbu	$a0,13($s4)
  416d0c:	14200004 	bnez	$at,416d20 <fwrite+0x240>
  416d10:	02602825 	move	$a1,$s3
  416d14:	3c127fff 	lui	$s2,0x7fff
  416d18:	10000006 	b	416d34 <fwrite+0x254>
  416d1c:	3652f000 	ori	$s2,$s2,0xf000
  416d20:	10400003 	beqz	$v0,416d30 <fwrite+0x250>
  416d24:	32ac0fff 	andi	$t4,$s5,0xfff
  416d28:	10000002 	b	416d34 <fwrite+0x254>
  416d2c:	02a09025 	move	$s2,$s5
  416d30:	02ac9023 	subu	$s2,$s5,$t4
  416d34:	02408825 	move	$s1,$s2
  416d38:	0c101990 	jal	406640 <_write>
  416d3c:	02403025 	move	$a2,$s2
  416d40:	1052003b 	beq	$v0,$s2,416e30 <fwrite+0x350>
  416d44:	00408025 	move	$s0,$v0
  416d48:	1c400016 	bgtz	$v0,416da4 <fwrite+0x2c4>
  416d4c:	00000000 	nop
  416d50:	928d000c 	lbu	$t5,12($s4)
  416d54:	02517823 	subu	$t7,$s2,$s1
  416d58:	35ae0020 	ori	$t6,$t5,0x20
  416d5c:	a28e000c 	sb	$t6,12($s4)
  416d60:	8fb80050 	lw	$t8,80($sp)
  416d64:	8fa90058 	lw	$t1,88($sp)
  416d68:	01f8c821 	addu	$t9,$t7,$t8
  416d6c:	033e001b 	divu	$zero,$t9,$s8
  416d70:	8fab0044 	lw	$t3,68($sp)
  416d74:	17c00002 	bnez	$s8,416d80 <fwrite+0x2a0>
  416d78:	00000000 	nop
  416d7c:	0007000d 	break	0x7
  416d80:	00004012 	mflo	$t0
  416d84:	01285021 	addu	$t2,$t1,$t0
  416d88:	11600003 	beqz	$t3,416d98 <fwrite+0x2b8>
  416d8c:	afaa0058 	sw	$t2,88($sp)
  416d90:	0c102aed 	jal	40abb4 <_funlockfile>
  416d94:	02802025 	move	$a0,$s4
  416d98:	8fa20058 	lw	$v0,88($sp)
  416d9c:	10000058 	b	416f00 <fwrite+0x420>
  416da0:	8fbf003c 	lw	$ra,60($sp)
  416da4:	02308823 	subu	$s1,$s1,$s0
  416da8:	02709821 	addu	$s3,$s3,$s0
  416dac:	9284000d 	lbu	$a0,13($s4)
  416db0:	02602825 	move	$a1,$s3
  416db4:	0c101990 	jal	406640 <_write>
  416db8:	02203025 	move	$a2,$s1
  416dbc:	1451ffe2 	bne	$v0,$s1,416d48 <fwrite+0x268>
  416dc0:	00408025 	move	$s0,$v0
  416dc4:	1000001b 	b	416e34 <fwrite+0x354>
  416dc8:	02b2a823 	subu	$s5,$s5,$s2
  416dcc:	02b2082b 	sltu	$at,$s5,$s2
  416dd0:	10200002 	beqz	$at,416ddc <fwrite+0x2fc>
  416dd4:	02602825 	move	$a1,$s3
  416dd8:	02a09025 	move	$s2,$s5
  416ddc:	0c103118 	jal	40c460 <memcpy>
  416de0:	02403025 	move	$a2,$s2
  416de4:	8e8c0000 	lw	$t4,0($s4)
  416de8:	8e8e0004 	lw	$t6,4($s4)
  416dec:	01921823 	subu	$v1,$t4,$s2
  416df0:	01d27821 	addu	$t7,$t6,$s2
  416df4:	ae830000 	sw	$v1,0($s4)
  416df8:	04610003 	bgez	$v1,416e08 <fwrite+0x328>
  416dfc:	ae8f0004 	sw	$t7,4($s4)
  416e00:	10000002 	b	416e0c <fwrite+0x32c>
  416e04:	00002025 	move	$a0,$zero
  416e08:	00602025 	move	$a0,$v1
  416e0c:	8e980004 	lw	$t8,4($s4)
  416e10:	00000000 	nop
  416e14:	02f8c823 	subu	$t9,$s7,$t8
  416e18:	0324082a 	slt	$at,$t9,$a0
  416e1c:	10200004 	beqz	$at,416e30 <fwrite+0x350>
  416e20:	00000000 	nop
  416e24:	02802025 	move	$a0,$s4
  416e28:	0c1017be 	jal	405ef8 <_bufsync>
  416e2c:	02e02825 	move	$a1,$s7
  416e30:	02b2a823 	subu	$s5,$s5,$s2
  416e34:	16a0001e 	bnez	$s5,416eb0 <fwrite+0x3d0>
  416e38:	8fad0050 	lw	$t5,80($sp)
  416e3c:	8fa90070 	lw	$t1,112($sp)
  416e40:	00000000 	nop
  416e44:	1520001a 	bnez	$t1,416eb0 <fwrite+0x3d0>
  416e48:	8fad0050 	lw	$t5,80($sp)
  416e4c:	9282000c 	lbu	$v0,12($s4)
  416e50:	00000000 	nop
  416e54:	30480004 	andi	$t0,$v0,0x4
  416e58:	15000009 	bnez	$t0,416e80 <fwrite+0x3a0>
  416e5c:	304a0040 	andi	$t2,$v0,0x40
  416e60:	11400009 	beqz	$t2,416e88 <fwrite+0x3a8>
  416e64:	02c02025 	move	$a0,$s6
  416e68:	8e8b0004 	lw	$t3,4($s4)
  416e6c:	2405000a 	li	$a1,10
  416e70:	0c105d38 	jal	4174e0 <memchr>
  416e74:	01763023 	subu	$a2,$t3,$s6
  416e78:	10400004 	beqz	$v0,416e8c <fwrite+0x3ac>
  416e7c:	8fac0044 	lw	$t4,68($sp)
  416e80:	0c1017ce 	jal	405f38 <_xflsbuf>
  416e84:	02802025 	move	$a0,$s4
  416e88:	8fac0044 	lw	$t4,68($sp)
  416e8c:	00000000 	nop
  416e90:	11800004 	beqz	$t4,416ea4 <fwrite+0x3c4>
  416e94:	8fa2004c 	lw	$v0,76($sp)
  416e98:	0c102aed 	jal	40abb4 <_funlockfile>
  416e9c:	02802025 	move	$a0,$s4
  416ea0:	8fa2004c 	lw	$v0,76($sp)
  416ea4:	10000016 	b	416f00 <fwrite+0x420>
  416ea8:	8fbf003c 	lw	$ra,60($sp)
  416eac:	8fad0050 	lw	$t5,80($sp)
  416eb0:	02729821 	addu	$s3,$s3,$s2
  416eb4:	024d9021 	addu	$s2,$s2,$t5
  416eb8:	025e001b 	divu	$zero,$s2,$s8
  416ebc:	8fae0058 	lw	$t6,88($sp)
  416ec0:	17c00002 	bnez	$s8,416ecc <fwrite+0x3ec>
  416ec4:	00000000 	nop
  416ec8:	0007000d 	break	0x7
  416ecc:	00007812 	mflo	$t7
  416ed0:	0000c810 	mfhi	$t9
  416ed4:	01cfc021 	addu	$t8,$t6,$t7
  416ed8:	afb80058 	sw	$t8,88($sp)
  416edc:	16a0ff69 	bnez	$s5,416c84 <fwrite+0x1a4>
  416ee0:	afb90050 	sw	$t9,80($sp)
  416ee4:	8fa90070 	lw	$t1,112($sp)
  416ee8:	00000000 	nop
  416eec:	013e0019 	multu	$t1,$s8
  416ef0:	00001012 	mflo	$v0
  416ef4:	1000ff4e 	b	416c30 <fwrite+0x150>
  416ef8:	8faf0070 	lw	$t7,112($sp)
  416efc:	8fbf003c 	lw	$ra,60($sp)
  416f00:	8fb00018 	lw	$s0,24($sp)
  416f04:	8fb1001c 	lw	$s1,28($sp)
  416f08:	8fb20020 	lw	$s2,32($sp)
  416f0c:	8fb30024 	lw	$s3,36($sp)
  416f10:	8fb40028 	lw	$s4,40($sp)
  416f14:	8fb5002c 	lw	$s5,44($sp)
  416f18:	8fb60030 	lw	$s6,48($sp)
  416f1c:	8fb70034 	lw	$s7,52($sp)
  416f20:	8fbe0038 	lw	$s8,56($sp)
  416f24:	03e00008 	jr	$ra
  416f28:	27bd0068 	addiu	$sp,$sp,104
  416f2c:	00000000 	nop

00416f30 <_mktemp>:
  416f30:	8f8e80d4 	lw	$t6,-32556($gp)
  416f34:	27bdffc8 	addiu	$sp,$sp,-56
  416f38:	afb10018 	sw	$s1,24($sp)
  416f3c:	00808825 	move	$s1,$a0
  416f40:	afbf001c 	sw	$ra,28($sp)
  416f44:	11c00008 	beqz	$t6,416f68 <_mktemp+0x38>
  416f48:	afb00014 	sw	$s0,20($sp)
  416f4c:	8f848b80 	lw	$a0,-29824($gp)
  416f50:	0c101ecc 	jal	407b30 <_uspsema>
  416f54:	00000000 	nop
  416f58:	384f0001 	xori	$t7,$v0,0x1
  416f5c:	2def0001 	sltiu	$t7,$t7,1
  416f60:	10000002 	b	416f6c <_mktemp+0x3c>
  416f64:	afaf0024 	sw	$t7,36($sp)
  416f68:	afa00024 	sw	$zero,36($sp)
  416f6c:	0c10654c 	jal	419530 <_getpid>
  416f70:	00000000 	nop
  416f74:	02202025 	move	$a0,$s1
  416f78:	0c103238 	jal	40c8e0 <strlen>
  416f7c:	afa20030 	sw	$v0,48($sp)
  416f80:	02228021 	addu	$s0,$s1,$v0
  416f84:	9218ffff 	lbu	$t8,-1($s0)
  416f88:	8fa50030 	lw	$a1,48($sp)
  416f8c:	24070058 	li	$a3,88
  416f90:	14f8001f 	bne	$a3,$t8,417010 <_mktemp+0xe0>
  416f94:	2610ffff 	addiu	$s0,$s0,-1
  416f98:	24030001 	li	$v1,1
  416f9c:	2c610007 	sltiu	$at,$v1,7
  416fa0:	1020001b 	beqz	$at,417010 <_mktemp+0xe0>
  416fa4:	2406002d 	li	$a2,45
  416fa8:	24040060 	li	$a0,96
  416fac:	30a2003f 	andi	$v0,$a1,0x3f
  416fb0:	2c410024 	sltiu	$at,$v0,36
  416fb4:	14200004 	bnez	$at,416fc8 <_mktemp+0x98>
  416fb8:	00055983 	sra	$t3,$a1,0x6
  416fbc:	2459003b 	addiu	$t9,$v0,59
  416fc0:	10000008 	b	416fe4 <_mktemp+0xb4>
  416fc4:	a2190000 	sb	$t9,0($s0)
  416fc8:	2c41000a 	sltiu	$at,$v0,10
  416fcc:	14200004 	bnez	$at,416fe0 <_mktemp+0xb0>
  416fd0:	24490030 	addiu	$t1,$v0,48
  416fd4:	24480037 	addiu	$t0,$v0,55
  416fd8:	10000002 	b	416fe4 <_mktemp+0xb4>
  416fdc:	a2080000 	sb	$t0,0($s0)
  416fe0:	a2090000 	sb	$t1,0($s0)
  416fe4:	920a0000 	lbu	$t2,0($s0)
  416fe8:	24630001 	addiu	$v1,$v1,1
  416fec:	148a0002 	bne	$a0,$t2,416ff8 <_mktemp+0xc8>
  416ff0:	2c610007 	sltiu	$at,$v1,7
  416ff4:	a2060000 	sb	$a2,0($s0)
  416ff8:	920cffff 	lbu	$t4,-1($s0)
  416ffc:	01602825 	move	$a1,$t3
  417000:	14ec0003 	bne	$a3,$t4,417010 <_mktemp+0xe0>
  417004:	2610ffff 	addiu	$s0,$s0,-1
  417008:	1420ffe9 	bnez	$at,416fb0 <_mktemp+0x80>
  41700c:	30a2003f 	andi	$v0,$a1,0x3f
  417010:	920d0001 	lbu	$t5,1($s0)
  417014:	26100001 	addiu	$s0,$s0,1
  417018:	11a00017 	beqz	$t5,417078 <_mktemp+0x148>
  41701c:	02202025 	move	$a0,$s1
  417020:	240e0061 	li	$t6,97
  417024:	a20e0000 	sb	$t6,0($s0)
  417028:	02202025 	move	$a0,$s1
  41702c:	0c103278 	jal	40c9e0 <_access>
  417030:	00002825 	move	$a1,$zero
  417034:	14400016 	bnez	$v0,417090 <_mktemp+0x160>
  417038:	8fa80024 	lw	$t0,36($sp)
  41703c:	920f0000 	lbu	$t7,0($s0)
  417040:	02202025 	move	$a0,$s1
  417044:	25f80001 	addiu	$t8,$t7,1
  417048:	331900ff 	andi	$t9,$t8,0xff
  41704c:	2b21007b 	slti	$at,$t9,123
  417050:	14200003 	bnez	$at,417060 <_mktemp+0x130>
  417054:	a2180000 	sb	$t8,0($s0)
  417058:	1000000c 	b	41708c <_mktemp+0x15c>
  41705c:	a2200000 	sb	$zero,0($s1)
  417060:	0c103278 	jal	40c9e0 <_access>
  417064:	00002825 	move	$a1,$zero
  417068:	1040fff4 	beqz	$v0,41703c <_mktemp+0x10c>
  41706c:	00000000 	nop
  417070:	10000007 	b	417090 <_mktemp+0x160>
  417074:	8fa80024 	lw	$t0,36($sp)
  417078:	0c103278 	jal	40c9e0 <_access>
  41707c:	00002825 	move	$a1,$zero
  417080:	14400003 	bnez	$v0,417090 <_mktemp+0x160>
  417084:	8fa80024 	lw	$t0,36($sp)
  417088:	a2200000 	sb	$zero,0($s1)
  41708c:	8fa80024 	lw	$t0,36($sp)
  417090:	8f848b80 	lw	$a0,-29824($gp)
  417094:	11000004 	beqz	$t0,4170a8 <_mktemp+0x178>
  417098:	8fbf001c 	lw	$ra,28($sp)
  41709c:	0c101ed4 	jal	407b50 <_usvsema>
  4170a0:	00000000 	nop
  4170a4:	8fbf001c 	lw	$ra,28($sp)
  4170a8:	02201025 	move	$v0,$s1
  4170ac:	8fb10018 	lw	$s1,24($sp)
  4170b0:	8fb00014 	lw	$s0,20($sp)
  4170b4:	03e00008 	jr	$ra
  4170b8:	27bd0038 	addiu	$sp,$sp,56
  4170bc:	00000000 	nop

004170c0 <_findbuf>:
  4170c0:	27bdff40 	addiu	$sp,$sp,-192
  4170c4:	afbf0014 	sw	$ra,20($sp)
  4170c8:	908e000d 	lbu	$t6,13($a0)
  4170cc:	00803025 	move	$a2,$a0
  4170d0:	afae00bc 	sw	$t6,188($sp)
  4170d4:	908f000c 	lbu	$t7,12($a0)
  4170d8:	24071000 	li	$a3,4096
  4170dc:	31f80004 	andi	$t8,$t7,0x4
  4170e0:	1300001c 	beqz	$t8,417154 <_findbuf+0x94>
  4170e4:	8fb800bc 	lw	$t8,188($sp)
  4170e8:	8f8888d4 	lw	$t0,-30508($gp)
  4170ec:	27898294 	addiu	$t1,$gp,-32108
  4170f0:	8fb900bc 	lw	$t9,188($sp)
  4170f4:	01095023 	subu	$t2,$t0,$t1
  4170f8:	000a5903 	sra	$t3,$t2,0x4
  4170fc:	032b082a 	slt	$at,$t9,$t3
  417100:	10200006 	beqz	$at,41711c <_findbuf+0x5c>
  417104:	24070004 	li	$a3,4
  417108:	3c0d0042 	lui	$t5,0x42
  41710c:	25ade5a0 	addiu	$t5,$t5,-6752
  417110:	001960c0 	sll	$t4,$t9,0x3
  417114:	1000003f 	b	417214 <_findbuf+0x154>
  417118:	018d1821 	addu	$v1,$t4,$t5
  41711c:	24040008 	li	$a0,8
  417120:	afa600c0 	sw	$a2,192($sp)
  417124:	0c101a6a 	jal	4069a8 <_malloc>
  417128:	afa700b4 	sw	$a3,180($sp)
  41712c:	8fa600c0 	lw	$a2,192($sp)
  417130:	8fa700b4 	lw	$a3,180($sp)
  417134:	10400037 	beqz	$v0,417214 <_findbuf+0x154>
  417138:	00401825 	move	$v1,$v0
  41713c:	90ce000c 	lbu	$t6,12($a2)
  417140:	00000000 	nop
  417144:	35cf0008 	ori	$t7,$t6,0x8
  417148:	10000032 	b	417214 <_findbuf+0x154>
  41714c:	a0cf000c 	sb	$t7,12($a2)
  417150:	8fb800bc 	lw	$t8,188($sp)
  417154:	8fa400bc 	lw	$a0,188($sp)
  417158:	2b010002 	slti	$at,$t8,2
  41715c:	10200008 	beqz	$at,417180 <_findbuf+0xc0>
  417160:	27a50028 	addiu	$a1,$sp,40
  417164:	17000004 	bnez	$t8,417178 <_findbuf+0xb8>
  417168:	3c030042 	lui	$v1,0x42
  41716c:	3c030042 	lui	$v1,0x42
  417170:	10000028 	b	417214 <_findbuf+0x154>
  417174:	2463f8e0 	addiu	$v1,$v1,-1824
  417178:	10000026 	b	417214 <_findbuf+0x154>
  41717c:	2463e8d0 	addiu	$v1,$v1,-5936
  417180:	afa600c0 	sw	$a2,192($sp)
  417184:	0c1032f8 	jal	40cbe0 <_fstat>
  417188:	afa700b4 	sw	$a3,180($sp)
  41718c:	8fa600c0 	lw	$a2,192($sp)
  417190:	8fa700b4 	lw	$a3,180($sp)
  417194:	14400014 	bnez	$v0,4171e8 <_findbuf+0x128>
  417198:	24e40008 	addiu	$a0,$a3,8
  41719c:	8fa20078 	lw	$v0,120($sp)
  4171a0:	00000000 	nop
  4171a4:	1c400003 	bgtz	$v0,4171b4 <_findbuf+0xf4>
  4171a8:	00403825 	move	$a3,$v0
  4171ac:	1000000d 	b	4171e4 <_findbuf+0x124>
  4171b0:	24071000 	li	$a3,4096
  4171b4:	28414001 	slti	$at,$v0,16385
  4171b8:	14200002 	bnez	$at,4171c4 <_findbuf+0x104>
  4171bc:	00000000 	nop
  4171c0:	24074000 	li	$a3,16384
  4171c4:	90c8000c 	lbu	$t0,12($a2)
  4171c8:	8faa0058 	lw	$t2,88($sp)
  4171cc:	31090001 	andi	$t1,$t0,0x1
  4171d0:	11200004 	beqz	$t1,4171e4 <_findbuf+0x124>
  4171d4:	0147082a 	slt	$at,$t2,$a3
  4171d8:	10200003 	beqz	$at,4171e8 <_findbuf+0x128>
  4171dc:	24e40008 	addiu	$a0,$a3,8
  4171e0:	24071000 	li	$a3,4096
  4171e4:	24e40008 	addiu	$a0,$a3,8
  4171e8:	afa600c0 	sw	$a2,192($sp)
  4171ec:	0c101a6a 	jal	4069a8 <_malloc>
  4171f0:	afa700b4 	sw	$a3,180($sp)
  4171f4:	8fa600c0 	lw	$a2,192($sp)
  4171f8:	8fa700b4 	lw	$a3,180($sp)
  4171fc:	1040ffba 	beqz	$v0,4170e8 <_findbuf+0x28>
  417200:	00401825 	move	$v1,$v0
  417204:	90cb000c 	lbu	$t3,12($a2)
  417208:	00000000 	nop
  41720c:	35790008 	ori	$t9,$t3,0x8
  417210:	a0d9000c 	sb	$t9,12($a2)
  417214:	14600003 	bnez	$v1,417224 <_findbuf+0x164>
  417218:	00000000 	nop
  41721c:	10000029 	b	4172c4 <_findbuf+0x204>
  417220:	00001025 	move	$v0,$zero
  417224:	90c2000d 	lbu	$v0,13($a2)
  417228:	acc30008 	sw	$v1,8($a2)
  41722c:	28410064 	slti	$at,$v0,100
  417230:	1020000b 	beqz	$at,417260 <_findbuf+0x1a0>
  417234:	acc30004 	sw	$v1,4($a2)
  417238:	3c0d0042 	lui	$t5,0x42
  41723c:	25addad0 	addiu	$t5,$t5,-9520
  417240:	00026080 	sll	$t4,$v0,0x2
  417244:	018d2021 	addu	$a0,$t4,$t5
  417248:	8c8e0000 	lw	$t6,0($a0)
  41724c:	00672821 	addu	$a1,$v1,$a3
  417250:	10ae000b 	beq	$a1,$t6,417280 <_findbuf+0x1c0>
  417254:	00000000 	nop
  417258:	10000009 	b	417280 <_findbuf+0x1c0>
  41725c:	ac850000 	sw	$a1,0($a0)
  417260:	00672821 	addu	$a1,$v1,$a3
  417264:	afa50020 	sw	$a1,32($sp)
  417268:	00c02025 	move	$a0,$a2
  41726c:	0c101620 	jal	405880 <_setbufend>
  417270:	afa600c0 	sw	$a2,192($sp)
  417274:	8fa50020 	lw	$a1,32($sp)
  417278:	8fa600c0 	lw	$a2,192($sp)
  41727c:	00000000 	nop
  417280:	90cf000c 	lbu	$t7,12($a2)
  417284:	8fa400bc 	lw	$a0,188($sp)
  417288:	31f80004 	andi	$t8,$t7,0x4
  41728c:	1700000d 	bnez	$t8,4172c4 <_findbuf+0x204>
  417290:	00a01025 	move	$v0,$a1
  417294:	afa50020 	sw	$a1,32($sp)
  417298:	0c105e88 	jal	417a20 <_isatty>
  41729c:	afa600c0 	sw	$a2,192($sp)
  4172a0:	8fa50020 	lw	$a1,32($sp)
  4172a4:	8fa600c0 	lw	$a2,192($sp)
  4172a8:	10400006 	beqz	$v0,4172c4 <_findbuf+0x204>
  4172ac:	00a01025 	move	$v0,$a1
  4172b0:	90c8000c 	lbu	$t0,12($a2)
  4172b4:	00000000 	nop
  4172b8:	35090040 	ori	$t1,$t0,0x40
  4172bc:	a0c9000c 	sb	$t1,12($a2)
  4172c0:	00a01025 	move	$v0,$a1
  4172c4:	8fbf0014 	lw	$ra,20($sp)
  4172c8:	27bd00c0 	addiu	$sp,$sp,192
  4172cc:	03e00008 	jr	$ra
	...

004172e0 <_wrtchk>:
  4172e0:	27bdffe0 	addiu	$sp,$sp,-32
  4172e4:	afbf0014 	sw	$ra,20($sp)
  4172e8:	9082000c 	lbu	$v0,12($a0)
  4172ec:	24010002 	li	$at,2
  4172f0:	304e0012 	andi	$t6,$v0,0x12
  4172f4:	00802825 	move	$a1,$a0
  4172f8:	11c1000f 	beq	$t6,$at,417338 <_wrtchk+0x58>
  4172fc:	00401825 	move	$v1,$v0
  417300:	304f0082 	andi	$t7,$v0,0x82
  417304:	11e00004 	beqz	$t7,417318 <_wrtchk+0x38>
  417308:	30780011 	andi	$t8,$v1,0x11
  41730c:	24010001 	li	$at,1
  417310:	17010007 	bne	$t8,$at,417330 <_wrtchk+0x50>
  417314:	3068ffee 	andi	$t0,$v1,0xffee
  417318:	34590020 	ori	$t9,$v0,0x20
  41731c:	a0b9000c 	sb	$t9,12($a1)
  417320:	0c101ebd 	jal	407af4 <_setoserror>
  417324:	24040009 	li	$a0,9
  417328:	1000002a 	b	4173d4 <_wrtchk+0xf4>
  41732c:	2402ffff 	li	$v0,-1
  417330:	35090002 	ori	$t1,$t0,0x2
  417334:	a0a9000c 	sb	$t1,12($a1)
  417338:	8caa0008 	lw	$t2,8($a1)
  41733c:	00a02025 	move	$a0,$a1
  417340:	1540000a 	bnez	$t2,41736c <_wrtchk+0x8c>
  417344:	00000000 	nop
  417348:	afa3001c 	sw	$v1,28($sp)
  41734c:	0c105c30 	jal	4170c0 <_findbuf>
  417350:	afa50020 	sw	$a1,32($sp)
  417354:	8fa3001c 	lw	$v1,28($sp)
  417358:	8fa50020 	lw	$a1,32($sp)
  41735c:	14400003 	bnez	$v0,41736c <_wrtchk+0x8c>
  417360:	00000000 	nop
  417364:	1000001b 	b	4173d4 <_wrtchk+0xf4>
  417368:	2402ffff 	li	$v0,-1
  41736c:	8ca40004 	lw	$a0,4($a1)
  417370:	8cab0008 	lw	$t3,8($a1)
  417374:	306c0044 	andi	$t4,$v1,0x44
  417378:	15640016 	bne	$t3,$a0,4173d4 <_wrtchk+0xf4>
  41737c:	00001025 	move	$v0,$zero
  417380:	15800014 	bnez	$t4,4173d4 <_wrtchk+0xf4>
  417384:	00001025 	move	$v0,$zero
  417388:	90a2000d 	lbu	$v0,13($a1)
  41738c:	3c030042 	lui	$v1,0x42
  417390:	28410064 	slti	$at,$v0,100
  417394:	10200005 	beqz	$at,4173ac <_wrtchk+0xcc>
  417398:	00026880 	sll	$t5,$v0,0x2
  41739c:	006d1821 	addu	$v1,$v1,$t5
  4173a0:	8c63dad0 	lw	$v1,-9520($v1)
  4173a4:	10000009 	b	4173cc <_wrtchk+0xec>
  4173a8:	00647023 	subu	$t6,$v1,$a0
  4173ac:	00a02025 	move	$a0,$a1
  4173b0:	0c10165b 	jal	40596c <_realbufend>
  4173b4:	afa50020 	sw	$a1,32($sp)
  4173b8:	8fa50020 	lw	$a1,32($sp)
  4173bc:	00401825 	move	$v1,$v0
  4173c0:	8ca40004 	lw	$a0,4($a1)
  4173c4:	00000000 	nop
  4173c8:	00647023 	subu	$t6,$v1,$a0
  4173cc:	acae0000 	sw	$t6,0($a1)
  4173d0:	00001025 	move	$v0,$zero
  4173d4:	8fbf0014 	lw	$ra,20($sp)
  4173d8:	27bd0020 	addiu	$sp,$sp,32
  4173dc:	03e00008 	jr	$ra
	...

004173f0 <strcmp>:
  4173f0:	90880000 	lbu	$t0,0($a0)
  4173f4:	90a90000 	lbu	$t1,0($a1)
  4173f8:	1100000a 	beqz	$t0,417424 <strcmp+0x34>
  4173fc:	20840002 	addi	$a0,$a0,2
  417400:	1509000a 	bne	$t0,$t1,41742c <strcmp+0x3c>
  417404:	908affff 	lbu	$t2,-1($a0)
  417408:	90a90001 	lbu	$t1,1($a1)
  41740c:	11400005 	beqz	$t2,417424 <strcmp+0x34>
  417410:	20a50002 	addi	$a1,$a1,2
  417414:	1149fff7 	beq	$t2,$t1,4173f4 <strcmp+0x4>
  417418:	90880000 	lbu	$t0,0($a0)
  41741c:	03e00008 	jr	$ra
  417420:	01491023 	subu	$v0,$t2,$t1
  417424:	03e00008 	jr	$ra
  417428:	00091023 	negu	$v0,$t1
  41742c:	03e00008 	jr	$ra
  417430:	01091023 	subu	$v0,$t0,$t1
	...

00417440 <_blkclr>:
  417440:	28a1000c 	slti	$at,$a1,12
  417444:	1420001d 	bnez	$at,4174bc <_blkclr+0x7c>
  417448:	00041823 	negu	$v1,$a0
  41744c:	30630003 	andi	$v1,$v1,0x3
  417450:	10600003 	beqz	$v1,417460 <_blkclr+0x20>
  417454:	00a32823 	subu	$a1,$a1,$v1
  417458:	a8800000 	swl	$zero,0($a0)
  41745c:	00832021 	addu	$a0,$a0,$v1
  417460:	2401ffe0 	li	$at,-32
  417464:	00a13824 	and	$a3,$a1,$at
  417468:	10e0000c 	beqz	$a3,41749c <_blkclr+0x5c>
  41746c:	00a72823 	subu	$a1,$a1,$a3
  417470:	00e43821 	addu	$a3,$a3,$a0
  417474:	24840020 	addiu	$a0,$a0,32
  417478:	ac80ffe0 	sw	$zero,-32($a0)
  41747c:	ac80ffe4 	sw	$zero,-28($a0)
  417480:	ac80ffe8 	sw	$zero,-24($a0)
  417484:	ac80ffec 	sw	$zero,-20($a0)
  417488:	ac80fff0 	sw	$zero,-16($a0)
  41748c:	ac80fff4 	sw	$zero,-12($a0)
  417490:	ac80fff8 	sw	$zero,-8($a0)
  417494:	1487fff7 	bne	$a0,$a3,417474 <_blkclr+0x34>
  417498:	ac80fffc 	sw	$zero,-4($a0)
  41749c:	2401fffc 	li	$at,-4
  4174a0:	00a13824 	and	$a3,$a1,$at
  4174a4:	10e00005 	beqz	$a3,4174bc <_blkclr+0x7c>
  4174a8:	00a72823 	subu	$a1,$a1,$a3
  4174ac:	00e43821 	addu	$a3,$a3,$a0
  4174b0:	24840004 	addiu	$a0,$a0,4
  4174b4:	1487fffe 	bne	$a0,$a3,4174b0 <_blkclr+0x70>
  4174b8:	ac80fffc 	sw	$zero,-4($a0)
  4174bc:	18a00005 	blez	$a1,4174d4 <_blkclr+0x94>
  4174c0:	00000000 	nop
  4174c4:	00a42821 	addu	$a1,$a1,$a0
  4174c8:	24840001 	addiu	$a0,$a0,1
  4174cc:	1485fffe 	bne	$a0,$a1,4174c8 <_blkclr+0x88>
  4174d0:	a080ffff 	sb	$zero,-1($a0)
  4174d4:	03e00008 	jr	$ra
	...

004174e0 <memchr>:
  4174e0:	00863821 	addu	$a3,$a0,$a2
  4174e4:	00801825 	move	$v1,$a0
  4174e8:	1087002c 	beq	$a0,$a3,41759c <memchr+0xbc>
  4174ec:	00e01025 	move	$v0,$a3
  4174f0:	00e44823 	subu	$t1,$a3,$a0
  4174f4:	312e0003 	andi	$t6,$t1,0x3
  4174f8:	11c0000c 	beqz	$t6,41752c <memchr+0x4c>
  4174fc:	01c43021 	addu	$a2,$t6,$a0
  417500:	30a800ff 	andi	$t0,$a1,0xff
  417504:	906f0000 	lbu	$t7,0($v1)
  417508:	00000000 	nop
  41750c:	150f0003 	bne	$t0,$t7,41751c <memchr+0x3c>
  417510:	00000000 	nop
  417514:	03e00008 	jr	$ra
  417518:	00601025 	move	$v0,$v1
  41751c:	24630001 	addiu	$v1,$v1,1
  417520:	14c3fff8 	bne	$a2,$v1,417504 <memchr+0x24>
  417524:	00000000 	nop
  417528:	1067001c 	beq	$v1,$a3,41759c <memchr+0xbc>
  41752c:	30a800ff 	andi	$t0,$a1,0xff
  417530:	90780000 	lbu	$t8,0($v1)
  417534:	00000000 	nop
  417538:	15180003 	bne	$t0,$t8,417548 <memchr+0x68>
  41753c:	00000000 	nop
  417540:	03e00008 	jr	$ra
  417544:	00601025 	move	$v0,$v1
  417548:	90790001 	lbu	$t9,1($v1)
  41754c:	00000000 	nop
  417550:	15190003 	bne	$t0,$t9,417560 <memchr+0x80>
  417554:	00000000 	nop
  417558:	03e00008 	jr	$ra
  41755c:	24620001 	addiu	$v0,$v1,1
  417560:	906a0002 	lbu	$t2,2($v1)
  417564:	00000000 	nop
  417568:	150a0003 	bne	$t0,$t2,417578 <memchr+0x98>
  41756c:	00000000 	nop
  417570:	03e00008 	jr	$ra
  417574:	24620002 	addiu	$v0,$v1,2
  417578:	906b0003 	lbu	$t3,3($v1)
  41757c:	00000000 	nop
  417580:	150b0003 	bne	$t0,$t3,417590 <memchr+0xb0>
  417584:	00000000 	nop
  417588:	03e00008 	jr	$ra
  41758c:	24620003 	addiu	$v0,$v1,3
  417590:	24630004 	addiu	$v1,$v1,4
  417594:	1462ffe6 	bne	$v1,$v0,417530 <memchr+0x50>
  417598:	00000000 	nop
  41759c:	00001025 	move	$v0,$zero
  4175a0:	03e00008 	jr	$ra
	...

004175b0 <strchr>:
  4175b0:	30a600ff 	andi	$a2,$a1,0xff
  4175b4:	90820000 	lbu	$v0,0($a0)
  4175b8:	00000000 	nop
  4175bc:	14c20003 	bne	$a2,$v0,4175cc <strchr+0x1c>
  4175c0:	00000000 	nop
  4175c4:	03e00008 	jr	$ra
  4175c8:	00801025 	move	$v0,$a0
  4175cc:	1440fff9 	bnez	$v0,4175b4 <strchr+0x4>
  4175d0:	24840001 	addiu	$a0,$a0,1
  4175d4:	00001025 	move	$v0,$zero
  4175d8:	03e00008 	jr	$ra
  4175dc:	00000000 	nop

004175e0 <strncpy>:
  4175e0:	24c60000 	addiu	$a2,$a2,0
  4175e4:	10c0000e 	beqz	$a2,417620 <strncpy+0x40>
  4175e8:	00801825 	move	$v1,$a0
  4175ec:	90a20000 	lbu	$v0,0($a1)
  4175f0:	24840001 	addiu	$a0,$a0,1
  4175f4:	24a50001 	addiu	$a1,$a1,1
  4175f8:	10400009 	beqz	$v0,417620 <strncpy+0x40>
  4175fc:	a082ffff 	sb	$v0,-1($a0)
  417600:	24c6ffff 	addiu	$a2,$a2,-1
  417604:	10c00006 	beqz	$a2,417620 <strncpy+0x40>
  417608:	00000000 	nop
  41760c:	90a20000 	lbu	$v0,0($a1)
  417610:	24840001 	addiu	$a0,$a0,1
  417614:	24a50001 	addiu	$a1,$a1,1
  417618:	1440fff9 	bnez	$v0,417600 <strncpy+0x20>
  41761c:	a082ffff 	sb	$v0,-1($a0)
  417620:	10c00012 	beqz	$a2,41766c <strncpy+0x8c>
  417624:	24c6ffff 	addiu	$a2,$a2,-1
  417628:	10c00010 	beqz	$a2,41766c <strncpy+0x8c>
  41762c:	30c50003 	andi	$a1,$a2,0x3
  417630:	00052823 	negu	$a1,$a1
  417634:	10a00006 	beqz	$a1,417650 <strncpy+0x70>
  417638:	00a61021 	addu	$v0,$a1,$a2
  41763c:	24c6ffff 	addiu	$a2,$a2,-1
  417640:	a0800000 	sb	$zero,0($a0)
  417644:	1446fffd 	bne	$v0,$a2,41763c <strncpy+0x5c>
  417648:	24840001 	addiu	$a0,$a0,1
  41764c:	10c00007 	beqz	$a2,41766c <strncpy+0x8c>
  417650:	24c6fffc 	addiu	$a2,$a2,-4
  417654:	a0800000 	sb	$zero,0($a0)
  417658:	a0800001 	sb	$zero,1($a0)
  41765c:	a0800002 	sb	$zero,2($a0)
  417660:	a0800003 	sb	$zero,3($a0)
  417664:	14c0fffa 	bnez	$a2,417650 <strncpy+0x70>
  417668:	24840004 	addiu	$a0,$a0,4
  41766c:	03e00008 	jr	$ra
  417670:	00601025 	move	$v0,$v1
	...

00417680 <strspn>:
  417680:	908e0000 	lbu	$t6,0($a0)
  417684:	00801825 	move	$v1,$a0
  417688:	11c00017 	beqz	$t6,4176e8 <strspn+0x68>
  41768c:	00000000 	nop
  417690:	90a60000 	lbu	$a2,0($a1)
  417694:	00000000 	nop
  417698:	10c0000b 	beqz	$a2,4176c8 <strspn+0x48>
  41769c:	00a01025 	move	$v0,$a1
  4176a0:	90680000 	lbu	$t0,0($v1)
  4176a4:	00000000 	nop
  4176a8:	10c80007 	beq	$a2,$t0,4176c8 <strspn+0x48>
  4176ac:	00000000 	nop
  4176b0:	90470001 	lbu	$a3,1($v0)
  4176b4:	24420001 	addiu	$v0,$v0,1
  4176b8:	10e00003 	beqz	$a3,4176c8 <strspn+0x48>
  4176bc:	00000000 	nop
  4176c0:	14e8fffb 	bne	$a3,$t0,4176b0 <strspn+0x30>
  4176c4:	00000000 	nop
  4176c8:	904f0000 	lbu	$t7,0($v0)
  4176cc:	00000000 	nop
  4176d0:	11e00005 	beqz	$t7,4176e8 <strspn+0x68>
  4176d4:	00000000 	nop
  4176d8:	90780001 	lbu	$t8,1($v1)
  4176dc:	24630001 	addiu	$v1,$v1,1
  4176e0:	1700ffed 	bnez	$t8,417698 <strspn+0x18>
  4176e4:	00000000 	nop
  4176e8:	03e00008 	jr	$ra
  4176ec:	00641023 	subu	$v0,$v1,$a0

004176f0 <wctomb>:
  4176f0:	14800003 	bnez	$a0,417700 <wctomb+0x10>
  4176f4:	3c033000 	lui	$v1,0x3000
  4176f8:	03e00008 	jr	$ra
  4176fc:	00001025 	move	$v0,$zero
  417700:	00a31024 	and	$v0,$a1,$v1
  417704:	3c011000 	lui	$at,0x1000
  417708:	1041001b 	beq	$v0,$at,417778 <wctomb+0x88>
  41770c:	3c012000 	lui	$at,0x2000
  417710:	10410023 	beq	$v0,$at,4177a0 <wctomb+0xb0>
  417714:	00000000 	nop
  417718:	1043000e 	beq	$v0,$v1,417754 <wctomb+0x64>
  41771c:	28a10100 	slti	$at,$a1,256
  417720:	10200008 	beqz	$at,417744 <wctomb+0x54>
  417724:	3c0e0042 	lui	$t6,0x42
  417728:	91ced958 	lbu	$t6,-9896($t6)
  41772c:	24020001 	li	$v0,1
  417730:	29c10002 	slti	$at,$t6,2
  417734:	14200005 	bnez	$at,41774c <wctomb+0x5c>
  417738:	28a100a0 	slti	$at,$a1,160
  41773c:	14200003 	bnez	$at,41774c <wctomb+0x5c>
  417740:	00000000 	nop
  417744:	03e00008 	jr	$ra
  417748:	2402ffff 	li	$v0,-1
  41774c:	03e00008 	jr	$ra
  417750:	a0850000 	sb	$a1,0($a0)
  417754:	3c020042 	lui	$v0,0x42
  417758:	9042d952 	lbu	$v0,-9902($v0)
  41775c:	00000000 	nop
  417760:	14400003 	bnez	$v0,417770 <wctomb+0x80>
  417764:	00401825 	move	$v1,$v0
  417768:	03e00008 	jr	$ra
  41776c:	2402ffff 	li	$v0,-1
  417770:	10000014 	b	4177c4 <wctomb+0xd4>
  417774:	24060001 	li	$a2,1
  417778:	3c020042 	lui	$v0,0x42
  41777c:	9042d953 	lbu	$v0,-9901($v0)
  417780:	240f008e 	li	$t7,142
  417784:	14400003 	bnez	$v0,417794 <wctomb+0xa4>
  417788:	24430001 	addiu	$v1,$v0,1
  41778c:	03e00008 	jr	$ra
  417790:	2402ffff 	li	$v0,-1
  417794:	a08f0000 	sb	$t7,0($a0)
  417798:	1000000a 	b	4177c4 <wctomb+0xd4>
  41779c:	00003025 	move	$a2,$zero
  4177a0:	3c020042 	lui	$v0,0x42
  4177a4:	9042d954 	lbu	$v0,-9900($v0)
  4177a8:	2418008f 	li	$t8,143
  4177ac:	14400003 	bnez	$v0,4177bc <wctomb+0xcc>
  4177b0:	24430001 	addiu	$v1,$v0,1
  4177b4:	03e00008 	jr	$ra
  4177b8:	2402ffff 	li	$v0,-1
  4177bc:	a0980000 	sb	$t8,0($a0)
  4177c0:	00003025 	move	$a2,$zero
  4177c4:	30480003 	andi	$t0,$v0,0x3
  4177c8:	00084023 	negu	$t0,$t0
  4177cc:	1100000a 	beqz	$t0,4177f8 <wctomb+0x108>
  4177d0:	00832021 	addu	$a0,$a0,$v1
  4177d4:	01023821 	addu	$a3,$t0,$v0
  4177d8:	34a90080 	ori	$t1,$a1,0x80
  4177dc:	000551c3 	sra	$t2,$a1,0x7
  4177e0:	2442ffff 	addiu	$v0,$v0,-1
  4177e4:	01402825 	move	$a1,$t2
  4177e8:	a089ffff 	sb	$t1,-1($a0)
  4177ec:	14e2fffa 	bne	$a3,$v0,4177d8 <wctomb+0xe8>
  4177f0:	2484ffff 	addiu	$a0,$a0,-1
  4177f4:	1040000f 	beqz	$v0,417834 <wctomb+0x144>
  4177f8:	000569c3 	sra	$t5,$a1,0x7
  4177fc:	34ac0080 	ori	$t4,$a1,0x80
  417800:	000dc1c3 	sra	$t8,$t5,0x7
  417804:	a08cffff 	sb	$t4,-1($a0)
  417808:	001851c3 	sra	$t2,$t8,0x7
  41780c:	354c0080 	ori	$t4,$t2,0x80
  417810:	37090080 	ori	$t1,$t8,0x80
  417814:	35af0080 	ori	$t7,$t5,0x80
  417818:	2442fffc 	addiu	$v0,$v0,-4
  41781c:	a08ffffe 	sb	$t7,-2($a0)
  417820:	a089fffd 	sb	$t1,-3($a0)
  417824:	a08cfffc 	sb	$t4,-4($a0)
  417828:	000a29c3 	sra	$a1,$t2,0x7
  41782c:	1440fff2 	bnez	$v0,4177f8 <wctomb+0x108>
  417830:	2484fffc 	addiu	$a0,$a0,-4
  417834:	10c00008 	beqz	$a2,417858 <wctomb+0x168>
  417838:	00601025 	move	$v0,$v1
  41783c:	908e0000 	lbu	$t6,0($a0)
  417840:	00000000 	nop
  417844:	29c100a0 	slti	$at,$t6,160
  417848:	10200003 	beqz	$at,417858 <wctomb+0x168>
  41784c:	00000000 	nop
  417850:	03e00008 	jr	$ra
  417854:	2402ffff 	li	$v0,-1
  417858:	03e00008 	jr	$ra
  41785c:	00000000 	nop

00417860 <_chmod>:
  417860:	240203f7 	li	$v0,1015
  417864:	0000000c 	syscall
  417868:	14e00004 	bnez	$a3,41787c <_chmod+0x1c>
  41786c:	00000000 	nop
  417870:	00001025 	move	$v0,$zero
  417874:	03e00008 	jr	$ra
  417878:	00000000 	nop
  41787c:	3c190040 	lui	$t9,0x40
  417880:	273965c0 	addiu	$t9,$t9,26048
  417884:	03200008 	jr	$t9
	...

00417890 <_fxstat>:
  417890:	24020488 	li	$v0,1160
  417894:	0000000c 	syscall
  417898:	14e00004 	bnez	$a3,4178ac <_fxstat+0x1c>
  41789c:	00000000 	nop
  4178a0:	00001025 	move	$v0,$zero
  4178a4:	03e00008 	jr	$ra
  4178a8:	00000000 	nop
  4178ac:	3c190040 	lui	$t9,0x40
  4178b0:	273965c0 	addiu	$t9,$t9,26048
  4178b4:	03200008 	jr	$t9
	...

004178c0 <_msync>:
  4178c0:	24020471 	li	$v0,1137
  4178c4:	0000000c 	syscall
  4178c8:	14e00003 	bnez	$a3,4178d8 <_msync+0x18>
  4178cc:	00000000 	nop
  4178d0:	03e00008 	jr	$ra
  4178d4:	00000000 	nop
  4178d8:	3c190040 	lui	$t9,0x40
  4178dc:	273965c0 	addiu	$t9,$t9,26048
  4178e0:	03200008 	jr	$t9
	...

004178f0 <_read>:
  4178f0:	240203eb 	li	$v0,1003
  4178f4:	0000000c 	syscall
  4178f8:	14e00003 	bnez	$a3,417908 <_read+0x18>
  4178fc:	00000000 	nop
  417900:	03e00008 	jr	$ra
  417904:	00000000 	nop
  417908:	3c190040 	lui	$t9,0x40
  41790c:	273965c0 	addiu	$t9,$t9,26048
  417910:	03200008 	jr	$t9
	...

00417920 <_unlink>:
  417920:	240203f2 	li	$v0,1010
  417924:	0000000c 	syscall
  417928:	14e00004 	bnez	$a3,41793c <_unlink+0x1c>
  41792c:	00000000 	nop
  417930:	00001025 	move	$v0,$zero
  417934:	03e00008 	jr	$ra
  417938:	00000000 	nop
  41793c:	3c190040 	lui	$t9,0x40
  417940:	273965c0 	addiu	$t9,$t9,26048
  417944:	03200008 	jr	$t9
	...

00417950 <_ftruncate>:
  417950:	24020459 	li	$v0,1113
  417954:	0000000c 	syscall
  417958:	14e00004 	bnez	$a3,41796c <_ftruncate+0x1c>
  41795c:	00000000 	nop
  417960:	00001025 	move	$v0,$zero
  417964:	03e00008 	jr	$ra
  417968:	00000000 	nop
  41796c:	3c190040 	lui	$t9,0x40
  417970:	273965c0 	addiu	$t9,$t9,26048
  417974:	03200008 	jr	$t9
	...

00417980 <_syscall>:
  417980:	240203e8 	li	$v0,1000
  417984:	0000000c 	syscall
  417988:	14e00003 	bnez	$a3,417998 <_syscall+0x18>
  41798c:	00000000 	nop
  417990:	03e00008 	jr	$ra
  417994:	00000000 	nop
  417998:	3c190040 	lui	$t9,0x40
  41799c:	273965c0 	addiu	$t9,$t9,26048
  4179a0:	03200008 	jr	$t9
	...

004179b0 <_getdtablehi>:
  4179b0:	27bdffe8 	addiu	$sp,$sp,-24
  4179b4:	afbf0014 	sw	$ra,20($sp)
  4179b8:	0c106584 	jal	419610 <_syssgi>
  4179bc:	2404006d 	li	$a0,109
  4179c0:	1c400004 	bgtz	$v0,4179d4 <_getdtablehi+0x24>
  4179c4:	00401825 	move	$v1,$v0
  4179c8:	0c106590 	jal	419640 <_getdtablesize>
  4179cc:	00000000 	nop
  4179d0:	00401825 	move	$v1,$v0
  4179d4:	8fbf0014 	lw	$ra,20($sp)
  4179d8:	27bd0018 	addiu	$sp,$sp,24
  4179dc:	03e00008 	jr	$ra
  4179e0:	00601025 	move	$v0,$v1
	...

004179f0 <_stat>:
  4179f0:	27bdffe8 	addiu	$sp,$sp,-24
  4179f4:	00a03025 	move	$a2,$a1
  4179f8:	00802825 	move	$a1,$a0
  4179fc:	afbf0014 	sw	$ra,20($sp)
  417a00:	afa40018 	sw	$a0,24($sp)
  417a04:	0c106578 	jal	4195e0 <_xstat>
  417a08:	24040002 	li	$a0,2
  417a0c:	8fbf0014 	lw	$ra,20($sp)
  417a10:	27bd0018 	addiu	$sp,$sp,24
  417a14:	03e00008 	jr	$ra
	...

00417a20 <_isatty>:
  417a20:	27bdffb8 	addiu	$sp,$sp,-72
  417a24:	afbf0014 	sw	$ra,20($sp)
  417a28:	0c101ec5 	jal	407b14 <__oserror>
  417a2c:	afa40048 	sw	$a0,72($sp)
  417a30:	8c4e0000 	lw	$t6,0($v0)
  417a34:	8fa40048 	lw	$a0,72($sp)
  417a38:	24055401 	li	$a1,21505
  417a3c:	27a60020 	addiu	$a2,$sp,32
  417a40:	0c10329c 	jal	40ca70 <_ioctl>
  417a44:	afae001c 	sw	$t6,28($sp)
  417a48:	04410007 	bgez	$v0,417a68 <_isatty+0x48>
  417a4c:	24020001 	li	$v0,1
  417a50:	8fa4001c 	lw	$a0,28($sp)
  417a54:	0c101ebd 	jal	407af4 <_setoserror>
  417a58:	00000000 	nop
  417a5c:	10000002 	b	417a68 <_isatty+0x48>
  417a60:	00001025 	move	$v0,$zero
  417a64:	24020001 	li	$v0,1
  417a68:	8fbf0014 	lw	$ra,20($sp)
  417a6c:	27bd0048 	addiu	$sp,$sp,72
  417a70:	03e00008 	jr	$ra
	...

00417a80 <_sysconf>:
  417a80:	248efffa 	addiu	$t6,$a0,-6
  417a84:	27bdffe8 	addiu	$sp,$sp,-24
  417a88:	2dc10012 	sltiu	$at,$t6,18
  417a8c:	afbf0014 	sw	$ra,20($sp)
  417a90:	1020002b 	beqz	$at,417b40 <_sysconf+0xc0>
  417a94:	00802825 	move	$a1,$a0
  417a98:	000e7080 	sll	$t6,$t6,0x2
  417a9c:	3c010042 	lui	$at,0x42
  417aa0:	002e0821 	addu	$at,$at,$t6
  417aa4:	8c2ed100 	lw	$t6,-12032($at)
  417aa8:	00000000 	nop
  417aac:	01c00008 	jr	$t6
  417ab0:	00000000 	nop
  417ab4:	10000024 	b	417b48 <_sysconf+0xc8>
  417ab8:	24020001 	li	$v0,1
  417abc:	10000022 	b	417b48 <_sysconf+0xc8>
  417ac0:	24020001 	li	$v0,1
  417ac4:	10000020 	b	417b48 <_sysconf+0xc8>
  417ac8:	24020001 	li	$v0,1
  417acc:	1000001e 	b	417b48 <_sysconf+0xc8>
  417ad0:	24020001 	li	$v0,1
  417ad4:	1000001c 	b	417b48 <_sysconf+0xc8>
  417ad8:	240200ff 	li	$v0,255
  417adc:	1000001a 	b	417b48 <_sysconf+0xc8>
  417ae0:	24020004 	li	$v0,4
  417ae4:	10000018 	b	417b48 <_sysconf+0xc8>
  417ae8:	24020010 	li	$v0,16
  417aec:	10000016 	b	417b48 <_sysconf+0xc8>
  417af0:	24020008 	li	$v0,8
  417af4:	10000014 	b	417b48 <_sysconf+0xc8>
  417af8:	24020008 	li	$v0,8
  417afc:	10000012 	b	417b48 <_sysconf+0xc8>
  417b00:	00001025 	move	$v0,$zero
  417b04:	0c10330c 	jal	40cc30 <_sysmp>
  417b08:	24040001 	li	$a0,1
  417b0c:	1000000f 	b	417b4c <_sysconf+0xcc>
  417b10:	8fbf0014 	lw	$ra,20($sp)
  417b14:	0c10330c 	jal	40cc30 <_sysmp>
  417b18:	24040002 	li	$a0,2
  417b1c:	1000000b 	b	417b4c <_sysconf+0xcc>
  417b20:	8fbf0014 	lw	$ra,20($sp)
  417b24:	10000008 	b	417b48 <_sysconf+0xc8>
  417b28:	24020008 	li	$v0,8
  417b2c:	24040016 	li	$a0,22
  417b30:	0c106584 	jal	419610 <_syssgi>
  417b34:	24050005 	li	$a1,5
  417b38:	10000004 	b	417b4c <_sysconf+0xcc>
  417b3c:	8fbf0014 	lw	$ra,20($sp)
  417b40:	0c106584 	jal	419610 <_syssgi>
  417b44:	24040016 	li	$a0,22
  417b48:	8fbf0014 	lw	$ra,20($sp)
  417b4c:	27bd0018 	addiu	$sp,$sp,24
  417b50:	03e00008 	jr	$ra
	...

00417b60 <_endinvent_r>:
  417b60:	27bdffe8 	addiu	$sp,$sp,-24
  417b64:	afbf0014 	sw	$ra,20($sp)
  417b68:	1080000b 	beqz	$a0,417b98 <_endinvent_r+0x38>
  417b6c:	00802825 	move	$a1,$a0
  417b70:	8c840004 	lw	$a0,4($a0)
  417b74:	00000000 	nop
  417b78:	10800005 	beqz	$a0,417b90 <_endinvent_r+0x30>
  417b7c:	00000000 	nop
  417b80:	0c101e5f 	jal	40797c <_free>
  417b84:	afa50018 	sw	$a1,24($sp)
  417b88:	8fa50018 	lw	$a1,24($sp)
  417b8c:	00000000 	nop
  417b90:	0c101e5f 	jal	40797c <_free>
  417b94:	00a02025 	move	$a0,$a1
  417b98:	8fbf0014 	lw	$ra,20($sp)
  417b9c:	27bd0018 	addiu	$sp,$sp,24
  417ba0:	03e00008 	jr	$ra
  417ba4:	00000000 	nop

00417ba8 <_endinvent>:
  417ba8:	27bdffe8 	addiu	$sp,$sp,-24
  417bac:	afbf0014 	sw	$ra,20($sp)
  417bb0:	8f84af50 	lw	$a0,-20656($gp)
  417bb4:	0c105ed8 	jal	417b60 <_endinvent_r>
  417bb8:	00000000 	nop
  417bbc:	8fbf0014 	lw	$ra,20($sp)
  417bc0:	af80af50 	sw	$zero,-20656($gp)
  417bc4:	03e00008 	jr	$ra
  417bc8:	27bd0018 	addiu	$sp,$sp,24

00417bcc <_setinvent_r>:
  417bcc:	27bdffc0 	addiu	$sp,$sp,-64
  417bd0:	afbf002c 	sw	$ra,44($sp)
  417bd4:	afb50028 	sw	$s5,40($sp)
  417bd8:	afb40024 	sw	$s4,36($sp)
  417bdc:	afb30020 	sw	$s3,32($sp)
  417be0:	afb2001c 	sw	$s2,28($sp)
  417be4:	afb10018 	sw	$s1,24($sp)
  417be8:	afb00014 	sw	$s0,20($sp)
  417bec:	afa40040 	sw	$a0,64($sp)
  417bf0:	8c950000 	lw	$s5,0($a0)
  417bf4:	00001025 	move	$v0,$zero
  417bf8:	12a00003 	beqz	$s5,417c08 <_setinvent_r+0x3c>
  417bfc:	00000000 	nop
  417c00:	10000061 	b	417d88 <_setinvent_r+0x1bc>
  417c04:	aea00008 	sw	$zero,8($s5)
  417c08:	0c101a6a 	jal	4069a8 <_malloc>
  417c0c:	2404000c 	li	$a0,12
  417c10:	0040a825 	move	$s5,$v0
  417c14:	0c101a6a 	jal	4069a8 <_malloc>
  417c18:	24045dc0 	li	$a0,24000
  417c1c:	afa20030 	sw	$v0,48($sp)
  417c20:	24040005 	li	$a0,5
  417c24:	0c106584 	jal	419610 <_syssgi>
  417c28:	24050001 	li	$a1,1
  417c2c:	12a00050 	beqz	$s5,417d70 <_setinvent_r+0x1a4>
  417c30:	00409825 	move	$s3,$v0
  417c34:	8faf0030 	lw	$t7,48($sp)
  417c38:	2410ffff 	li	$s0,-1
  417c3c:	11e0004d 	beqz	$t7,417d74 <_setinvent_r+0x1a8>
  417c40:	8fa40030 	lw	$a0,48($sp)
  417c44:	1050004a 	beq	$v0,$s0,417d70 <_setinvent_r+0x1a4>
  417c48:	24040005 	li	$a0,5
  417c4c:	24050002 	li	$a1,2
  417c50:	01e03025 	move	$a2,$t7
  417c54:	0c106584 	jal	419610 <_syssgi>
  417c58:	24075dc0 	li	$a3,24000
  417c5c:	10500044 	beq	$v0,$s0,417d70 <_setinvent_r+0x1a4>
  417c60:	0040a025 	move	$s4,$v0
  417c64:	0053001a 	div	$zero,$v0,$s3
  417c68:	24050018 	li	$a1,24
  417c6c:	16600002 	bnez	$s3,417c78 <_setinvent_r+0xac>
  417c70:	00000000 	nop
  417c74:	0007000d 	break	0x7
  417c78:	2401ffff 	li	$at,-1
  417c7c:	16610004 	bne	$s3,$at,417c90 <_setinvent_r+0xc4>
  417c80:	3c018000 	lui	$at,0x8000
  417c84:	16810002 	bne	$s4,$at,417c90 <_setinvent_r+0xc4>
  417c88:	00000000 	nop
  417c8c:	0006000d 	break	0x6
  417c90:	0000a012 	mflo	$s4
  417c94:	02802025 	move	$a0,$s4
  417c98:	0c103348 	jal	40cd20 <_calloc>
  417c9c:	00000000 	nop
  417ca0:	10400033 	beqz	$v0,417d70 <_setinvent_r+0x1a4>
  417ca4:	aea20004 	sw	$v0,4($s5)
  417ca8:	2e610019 	sltiu	$at,$s3,25
  417cac:	14200011 	bnez	$at,417cf4 <_setinvent_r+0x128>
  417cb0:	2e610018 	sltiu	$at,$s3,24
  417cb4:	1a800025 	blez	$s4,417d4c <_setinvent_r+0x180>
  417cb8:	00008025 	move	$s0,$zero
  417cbc:	8fb20030 	lw	$s2,48($sp)
  417cc0:	00008825 	move	$s1,$zero
  417cc4:	8eb80004 	lw	$t8,4($s5)
  417cc8:	02402825 	move	$a1,$s2
  417ccc:	24060018 	li	$a2,24
  417cd0:	0c103118 	jal	40c460 <memcpy>
  417cd4:	03112021 	addu	$a0,$t8,$s1
  417cd8:	26100001 	addiu	$s0,$s0,1
  417cdc:	26310018 	addiu	$s1,$s1,24
  417ce0:	1614fff8 	bne	$s0,$s4,417cc4 <_setinvent_r+0xf8>
  417ce4:	02539021 	addu	$s2,$s2,$s3
  417ce8:	10000019 	b	417d50 <_setinvent_r+0x184>
  417cec:	aea00008 	sw	$zero,8($s5)
  417cf0:	2e610018 	sltiu	$at,$s3,24
  417cf4:	10200010 	beqz	$at,417d38 <_setinvent_r+0x16c>
  417cf8:	00143080 	sll	$a2,$s4,0x2
  417cfc:	1a800013 	blez	$s4,417d4c <_setinvent_r+0x180>
  417d00:	00008025 	move	$s0,$zero
  417d04:	8fb20030 	lw	$s2,48($sp)
  417d08:	00008825 	move	$s1,$zero
  417d0c:	8eb90004 	lw	$t9,4($s5)
  417d10:	02402825 	move	$a1,$s2
  417d14:	02603025 	move	$a2,$s3
  417d18:	0c103118 	jal	40c460 <memcpy>
  417d1c:	03312021 	addu	$a0,$t9,$s1
  417d20:	26100001 	addiu	$s0,$s0,1
  417d24:	26310018 	addiu	$s1,$s1,24
  417d28:	1614fff8 	bne	$s0,$s4,417d0c <_setinvent_r+0x140>
  417d2c:	02539021 	addu	$s2,$s2,$s3
  417d30:	10000007 	b	417d50 <_setinvent_r+0x184>
  417d34:	aea00008 	sw	$zero,8($s5)
  417d38:	8ea40004 	lw	$a0,4($s5)
  417d3c:	8fa50030 	lw	$a1,48($sp)
  417d40:	00d43023 	subu	$a2,$a2,$s4
  417d44:	0c103118 	jal	40c460 <memcpy>
  417d48:	000630c0 	sll	$a2,$a2,0x3
  417d4c:	aea00008 	sw	$zero,8($s5)
  417d50:	aeb40000 	sw	$s4,0($s5)
  417d54:	8fa40030 	lw	$a0,48($sp)
  417d58:	0c101e5f 	jal	40797c <_free>
  417d5c:	00000000 	nop
  417d60:	8fa80040 	lw	$t0,64($sp)
  417d64:	00001025 	move	$v0,$zero
  417d68:	10000007 	b	417d88 <_setinvent_r+0x1bc>
  417d6c:	ad150000 	sw	$s5,0($t0)
  417d70:	8fa40030 	lw	$a0,48($sp)
  417d74:	0c101e5f 	jal	40797c <_free>
  417d78:	00000000 	nop
  417d7c:	0c101e5f 	jal	40797c <_free>
  417d80:	02a02025 	move	$a0,$s5
  417d84:	2402ffff 	li	$v0,-1
  417d88:	8fbf002c 	lw	$ra,44($sp)
  417d8c:	8fb00014 	lw	$s0,20($sp)
  417d90:	8fb10018 	lw	$s1,24($sp)
  417d94:	8fb2001c 	lw	$s2,28($sp)
  417d98:	8fb30020 	lw	$s3,32($sp)
  417d9c:	8fb40024 	lw	$s4,36($sp)
  417da0:	8fb50028 	lw	$s5,40($sp)
  417da4:	03e00008 	jr	$ra
  417da8:	27bd0040 	addiu	$sp,$sp,64

00417dac <_setinvent>:
  417dac:	27bdffe8 	addiu	$sp,$sp,-24
  417db0:	afbf0014 	sw	$ra,20($sp)
  417db4:	0c105ef3 	jal	417bcc <_setinvent_r>
  417db8:	2784af50 	addiu	$a0,$gp,-20656
  417dbc:	8fbf0014 	lw	$ra,20($sp)
  417dc0:	27bd0018 	addiu	$sp,$sp,24
  417dc4:	03e00008 	jr	$ra
  417dc8:	00000000 	nop

00417dcc <_getinvent_r>:
  417dcc:	8c830008 	lw	$v1,8($a0)
  417dd0:	8c8e0000 	lw	$t6,0($a0)
  417dd4:	00001025 	move	$v0,$zero
  417dd8:	006e082a 	slt	$at,$v1,$t6
  417ddc:	10200008 	beqz	$at,417e00 <_getinvent_r+0x34>
  417de0:	00037880 	sll	$t7,$v1,0x2
  417de4:	8c980004 	lw	$t8,4($a0)
  417de8:	01e37823 	subu	$t7,$t7,$v1
  417dec:	000f78c0 	sll	$t7,$t7,0x3
  417df0:	24790001 	addiu	$t9,$v1,1
  417df4:	ac990008 	sw	$t9,8($a0)
  417df8:	03e00008 	jr	$ra
  417dfc:	01f81021 	addu	$v0,$t7,$t8
  417e00:	03e00008 	jr	$ra
  417e04:	00000000 	nop

00417e08 <_getinvent>:
  417e08:	8f8eaf50 	lw	$t6,-20656($gp)
  417e0c:	27bdffe8 	addiu	$sp,$sp,-24
  417e10:	15c00007 	bnez	$t6,417e30 <_getinvent+0x28>
  417e14:	afbf0014 	sw	$ra,20($sp)
  417e18:	0c105ef3 	jal	417bcc <_setinvent_r>
  417e1c:	2784af50 	addiu	$a0,$gp,-20656
  417e20:	10400003 	beqz	$v0,417e30 <_getinvent+0x28>
  417e24:	00000000 	nop
  417e28:	10000004 	b	417e3c <_getinvent+0x34>
  417e2c:	00001025 	move	$v0,$zero
  417e30:	8f84af50 	lw	$a0,-20656($gp)
  417e34:	0c105f73 	jal	417dcc <_getinvent_r>
  417e38:	00000000 	nop
  417e3c:	8fbf0014 	lw	$ra,20($sp)
  417e40:	27bd0018 	addiu	$sp,$sp,24
  417e44:	03e00008 	jr	$ra
	...

00417e50 <__ll_mul>:
  417e50:	00a70019 	multu	$a1,$a3
  417e54:	00001812 	mflo	$v1
  417e58:	00001010 	mfhi	$v0
	...
  417e64:	00870019 	multu	$a0,$a3
  417e68:	00004012 	mflo	$t0
  417e6c:	00481021 	addu	$v0,$v0,$t0
  417e70:	00000000 	nop
  417e74:	00a60019 	multu	$a1,$a2
  417e78:	00004012 	mflo	$t0
  417e7c:	00481021 	addu	$v0,$v0,$t0
  417e80:	03e00008 	jr	$ra
	...

00417e90 <atoi>:
  417e90:	14800003 	bnez	$a0,417ea0 <atoi+0x10>
  417e94:	00001025 	move	$v0,$zero
  417e98:	03e00008 	jr	$ra
  417e9c:	00001025 	move	$v0,$zero
  417ea0:	90830000 	lbu	$v1,0($a0)
  417ea4:	3c070042 	lui	$a3,0x42
  417ea8:	24e7d750 	addiu	$a3,$a3,-10416
  417eac:	00677021 	addu	$t6,$v1,$a3
  417eb0:	91c50001 	lbu	$a1,1($t6)
  417eb4:	2401002b 	li	$at,43
  417eb8:	30af0004 	andi	$t7,$a1,0x4
  417ebc:	15e0001d 	bnez	$t7,417f34 <atoi+0xa4>
  417ec0:	30b80008 	andi	$t8,$a1,0x8
  417ec4:	13000009 	beqz	$t8,417eec <atoi+0x5c>
  417ec8:	00000000 	nop
  417ecc:	90830001 	lbu	$v1,1($a0)
  417ed0:	24840001 	addiu	$a0,$a0,1
  417ed4:	00e3c821 	addu	$t9,$a3,$v1
  417ed8:	93250001 	lbu	$a1,1($t9)
  417edc:	00000000 	nop
  417ee0:	30a80008 	andi	$t0,$a1,0x8
  417ee4:	1500fff9 	bnez	$t0,417ecc <atoi+0x3c>
  417ee8:	00000000 	nop
  417eec:	10610006 	beq	$v1,$at,417f08 <atoi+0x78>
  417ef0:	2401002d 	li	$at,45
  417ef4:	10610003 	beq	$v1,$at,417f04 <atoi+0x74>
  417ef8:	00000000 	nop
  417efc:	10000009 	b	417f24 <atoi+0x94>
  417f00:	30a60004 	andi	$a2,$a1,0x4
  417f04:	24020001 	li	$v0,1
  417f08:	90830001 	lbu	$v1,1($a0)
  417f0c:	24840001 	addiu	$a0,$a0,1
  417f10:	00674821 	addu	$t1,$v1,$a3
  417f14:	91260001 	lbu	$a2,1($t1)
  417f18:	00000000 	nop
  417f1c:	30ca0004 	andi	$t2,$a2,0x4
  417f20:	01403025 	move	$a2,$t2
  417f24:	14c00004 	bnez	$a2,417f38 <atoi+0xa8>
  417f28:	240b0030 	li	$t3,48
  417f2c:	03e00008 	jr	$ra
  417f30:	00001025 	move	$v0,$zero
  417f34:	240b0030 	li	$t3,48
  417f38:	01632823 	subu	$a1,$t3,$v1
  417f3c:	90830001 	lbu	$v1,1($a0)
  417f40:	24840001 	addiu	$a0,$a0,1
  417f44:	00676021 	addu	$t4,$v1,$a3
  417f48:	918d0001 	lbu	$t5,1($t4)
  417f4c:	2406000a 	li	$a2,10
  417f50:	31ae0004 	andi	$t6,$t5,0x4
  417f54:	11c0000d 	beqz	$t6,417f8c <atoi+0xfc>
  417f58:	00000000 	nop
  417f5c:	00a60019 	multu	$a1,$a2
  417f60:	24840001 	addiu	$a0,$a0,1
  417f64:	00002812 	mflo	$a1
  417f68:	00a32823 	subu	$a1,$a1,$v1
  417f6c:	90830000 	lbu	$v1,0($a0)
  417f70:	24a50030 	addiu	$a1,$a1,48
  417f74:	00677821 	addu	$t7,$v1,$a3
  417f78:	91f80001 	lbu	$t8,1($t7)
  417f7c:	00000000 	nop
  417f80:	33190004 	andi	$t9,$t8,0x4
  417f84:	1720fff5 	bnez	$t9,417f5c <atoi+0xcc>
  417f88:	00000000 	nop
  417f8c:	10400003 	beqz	$v0,417f9c <atoi+0x10c>
  417f90:	00051823 	negu	$v1,$a1
  417f94:	10000001 	b	417f9c <atoi+0x10c>
  417f98:	00a01825 	move	$v1,$a1
  417f9c:	00601025 	move	$v0,$v1
  417fa0:	03e00008 	jr	$ra
	...

00417fb0 <strtoul>:
  417fb0:	27bdffe0 	addiu	$sp,$sp,-32
  417fb4:	afb10018 	sw	$s1,24($sp)
  417fb8:	afb00014 	sw	$s0,20($sp)
  417fbc:	00808025 	move	$s0,$a0
  417fc0:	00c08825 	move	$s1,$a2
  417fc4:	afbf001c 	sw	$ra,28($sp)
  417fc8:	afa50024 	sw	$a1,36($sp)
  417fcc:	00005825 	move	$t3,$zero
  417fd0:	10a00002 	beqz	$a1,417fdc <strtoul+0x2c>
  417fd4:	00a07025 	move	$t6,$a1
  417fd8:	aca40000 	sw	$a0,0($a1)
  417fdc:	06200005 	bltz	$s1,417ff4 <strtoul+0x44>
  417fe0:	2a210025 	slti	$at,$s1,37
  417fe4:	10200003 	beqz	$at,417ff4 <strtoul+0x44>
  417fe8:	24010001 	li	$at,1
  417fec:	16210005 	bne	$s1,$at,418004 <strtoul+0x54>
  417ff0:	3c0a0042 	lui	$t2,0x42
  417ff4:	0c101ebd 	jal	407af4 <_setoserror>
  417ff8:	24040016 	li	$a0,22
  417ffc:	100000fc 	b	4183f0 <strtoul+0x440>
  418000:	00001025 	move	$v0,$zero
  418004:	92040000 	lbu	$a0,0($s0)
  418008:	254ad750 	addiu	$t2,$t2,-10416
  41800c:	008a7821 	addu	$t7,$a0,$t2
  418010:	91e60001 	lbu	$a2,1($t7)
  418014:	2401002b 	li	$at,43
  418018:	30d80007 	andi	$t8,$a2,0x7
  41801c:	17000016 	bnez	$t8,418078 <strtoul+0xc8>
  418020:	00000000 	nop
  418024:	30d90008 	andi	$t9,$a2,0x8
  418028:	13200009 	beqz	$t9,418050 <strtoul+0xa0>
  41802c:	00000000 	nop
  418030:	92040001 	lbu	$a0,1($s0)
  418034:	26100001 	addiu	$s0,$s0,1
  418038:	01446021 	addu	$t4,$t2,$a0
  41803c:	91860001 	lbu	$a2,1($t4)
  418040:	00000000 	nop
  418044:	30cd0008 	andi	$t5,$a2,0x8
  418048:	15a0fff9 	bnez	$t5,418030 <strtoul+0x80>
  41804c:	00000000 	nop
  418050:	10810004 	beq	$a0,$at,418064 <strtoul+0xb4>
  418054:	2401002d 	li	$at,45
  418058:	14810007 	bne	$a0,$at,418078 <strtoul+0xc8>
  41805c:	00000000 	nop
  418060:	240b0001 	li	$t3,1
  418064:	92040001 	lbu	$a0,1($s0)
  418068:	26100001 	addiu	$s0,$s0,1
  41806c:	008a7021 	addu	$t6,$a0,$t2
  418070:	91c60001 	lbu	$a2,1($t6)
  418074:	00000000 	nop
  418078:	1620000e 	bnez	$s1,4180b4 <strtoul+0x104>
  41807c:	30c70004 	andi	$a3,$a2,0x4
  418080:	24010030 	li	$at,48
  418084:	10810003 	beq	$a0,$at,418094 <strtoul+0xe4>
  418088:	00000000 	nop
  41808c:	10000009 	b	4180b4 <strtoul+0x104>
  418090:	2411000a 	li	$s1,10
  418094:	92020001 	lbu	$v0,1($s0)
  418098:	24010078 	li	$at,120
  41809c:	10410003 	beq	$v0,$at,4180ac <strtoul+0xfc>
  4180a0:	24010058 	li	$at,88
  4180a4:	14410003 	bne	$v0,$at,4180b4 <strtoul+0x104>
  4180a8:	24110008 	li	$s1,8
  4180ac:	10000001 	b	4180b4 <strtoul+0x104>
  4180b0:	24110010 	li	$s1,16
  4180b4:	14e00009 	bnez	$a3,4180dc <strtoul+0x12c>
  4180b8:	28810061 	slti	$at,$a0,97
  4180bc:	14200002 	bnez	$at,4180c8 <strtoul+0x118>
  4180c0:	2881007b 	slti	$at,$a0,123
  4180c4:	14200005 	bnez	$at,4180dc <strtoul+0x12c>
  4180c8:	28810041 	slti	$at,$a0,65
  4180cc:	14200010 	bnez	$at,418110 <strtoul+0x160>
  4180d0:	2881005b 	slti	$at,$a0,91
  4180d4:	1020000e 	beqz	$at,418110 <strtoul+0x160>
  4180d8:	00000000 	nop
  4180dc:	10e00003 	beqz	$a3,4180ec <strtoul+0x13c>
  4180e0:	00000000 	nop
  4180e4:	10000007 	b	418104 <strtoul+0x154>
  4180e8:	2483ffd0 	addiu	$v1,$a0,-48
  4180ec:	30cf0002 	andi	$t7,$a2,0x2
  4180f0:	11e00003 	beqz	$t7,418100 <strtoul+0x150>
  4180f4:	2482ffc9 	addiu	$v0,$a0,-55
  4180f8:	10000001 	b	418100 <strtoul+0x150>
  4180fc:	2482ffa9 	addiu	$v0,$a0,-87
  418100:	00401825 	move	$v1,$v0
  418104:	0071082a 	slt	$at,$v1,$s1
  418108:	14200004 	bnez	$at,41811c <strtoul+0x16c>
  41810c:	24010010 	li	$at,16
  418110:	100000b7 	b	4183f0 <strtoul+0x440>
  418114:	00001025 	move	$v0,$zero
  418118:	24010010 	li	$at,16
  41811c:	16210017 	bne	$s1,$at,41817c <strtoul+0x1cc>
  418120:	24010030 	li	$at,48
  418124:	14810015 	bne	$a0,$at,41817c <strtoul+0x1cc>
  418128:	00000000 	nop
  41812c:	92020001 	lbu	$v0,1($s0)
  418130:	24010078 	li	$at,120
  418134:	10410003 	beq	$v0,$at,418144 <strtoul+0x194>
  418138:	24010058 	li	$at,88
  41813c:	1441000f 	bne	$v0,$at,41817c <strtoul+0x1cc>
  418140:	00000000 	nop
  418144:	92180002 	lbu	$t8,2($s0)
  418148:	00000000 	nop
  41814c:	030ac821 	addu	$t9,$t8,$t2
  418150:	932c0001 	lbu	$t4,1($t9)
  418154:	00000000 	nop
  418158:	318d0080 	andi	$t5,$t4,0x80
  41815c:	11a00007 	beqz	$t5,41817c <strtoul+0x1cc>
  418160:	00000000 	nop
  418164:	92040002 	lbu	$a0,2($s0)
  418168:	26100002 	addiu	$s0,$s0,2
  41816c:	008a7021 	addu	$t6,$a0,$t2
  418170:	91c60001 	lbu	$a2,1($t6)
  418174:	00000000 	nop
  418178:	30c70004 	andi	$a3,$a2,0x4
  41817c:	10e00003 	beqz	$a3,41818c <strtoul+0x1dc>
  418180:	00000000 	nop
  418184:	10000007 	b	4181a4 <strtoul+0x1f4>
  418188:	2485ffd0 	addiu	$a1,$a0,-48
  41818c:	30cf0002 	andi	$t7,$a2,0x2
  418190:	11e00003 	beqz	$t7,4181a0 <strtoul+0x1f0>
  418194:	2483ffc9 	addiu	$v1,$a0,-55
  418198:	10000001 	b	4181a0 <strtoul+0x1f0>
  41819c:	2483ffa9 	addiu	$v1,$a0,-87
  4181a0:	00602825 	move	$a1,$v1
  4181a4:	92040001 	lbu	$a0,1($s0)
  4181a8:	26100001 	addiu	$s0,$s0,1
  4181ac:	0144c021 	addu	$t8,$t2,$a0
  4181b0:	93060001 	lbu	$a2,1($t8)
  4181b4:	28810061 	slti	$at,$a0,97
  4181b8:	30c70004 	andi	$a3,$a2,0x4
  4181bc:	14e00009 	bnez	$a3,4181e4 <strtoul+0x234>
  4181c0:	00000000 	nop
  4181c4:	14200002 	bnez	$at,4181d0 <strtoul+0x220>
  4181c8:	2881007b 	slti	$at,$a0,123
  4181cc:	14200005 	bnez	$at,4181e4 <strtoul+0x234>
  4181d0:	28810041 	slti	$at,$a0,65
  4181d4:	1420003d 	bnez	$at,4182cc <strtoul+0x31c>
  4181d8:	2881005b 	slti	$at,$a0,91
  4181dc:	1020003b 	beqz	$at,4182cc <strtoul+0x31c>
  4181e0:	00000000 	nop
  4181e4:	10e00003 	beqz	$a3,4181f4 <strtoul+0x244>
  4181e8:	240cffff 	li	$t4,-1
  4181ec:	10000007 	b	41820c <strtoul+0x25c>
  4181f0:	2483ffd0 	addiu	$v1,$a0,-48
  4181f4:	30d90002 	andi	$t9,$a2,0x2
  4181f8:	13200003 	beqz	$t9,418208 <strtoul+0x258>
  4181fc:	2482ffc9 	addiu	$v0,$a0,-55
  418200:	10000001 	b	418208 <strtoul+0x258>
  418204:	2482ffa9 	addiu	$v0,$a0,-87
  418208:	00401825 	move	$v1,$v0
  41820c:	0071082a 	slt	$at,$v1,$s1
  418210:	1020002e 	beqz	$at,4182cc <strtoul+0x31c>
  418214:	00000000 	nop
  418218:	0191001b 	divu	$zero,$t4,$s1
  41821c:	2409ffff 	li	$t1,-1
  418220:	16200002 	bnez	$s1,41822c <strtoul+0x27c>
  418224:	00000000 	nop
  418228:	0007000d 	break	0x7
  41822c:	00004012 	mflo	$t0
	...
  418238:	0105082b 	sltu	$at,$t0,$a1
  41823c:	1420002e 	bnez	$at,4182f8 <strtoul+0x348>
  418240:	00000000 	nop
  418244:	00b10019 	multu	$a1,$s1
  418248:	00002812 	mflo	$a1
  41824c:	01256823 	subu	$t5,$t1,$a1
  418250:	01a3082b 	sltu	$at,$t5,$v1
  418254:	14200028 	bnez	$at,4182f8 <strtoul+0x348>
  418258:	00000000 	nop
  41825c:	92040001 	lbu	$a0,1($s0)
  418260:	00a32821 	addu	$a1,$a1,$v1
  418264:	01447021 	addu	$t6,$t2,$a0
  418268:	91c60001 	lbu	$a2,1($t6)
  41826c:	26100001 	addiu	$s0,$s0,1
  418270:	30c70004 	andi	$a3,$a2,0x4
  418274:	14e00009 	bnez	$a3,41829c <strtoul+0x2ec>
  418278:	28810061 	slti	$at,$a0,97
  41827c:	14200002 	bnez	$at,418288 <strtoul+0x2d8>
  418280:	2881007b 	slti	$at,$a0,123
  418284:	14200005 	bnez	$at,41829c <strtoul+0x2ec>
  418288:	28810041 	slti	$at,$a0,65
  41828c:	1420000f 	bnez	$at,4182cc <strtoul+0x31c>
  418290:	2881005b 	slti	$at,$a0,91
  418294:	1020000e 	beqz	$at,4182d0 <strtoul+0x320>
  418298:	8fb80024 	lw	$t8,36($sp)
  41829c:	10e00003 	beqz	$a3,4182ac <strtoul+0x2fc>
  4182a0:	30cf0002 	andi	$t7,$a2,0x2
  4182a4:	10000006 	b	4182c0 <strtoul+0x310>
  4182a8:	2483ffd0 	addiu	$v1,$a0,-48
  4182ac:	11e00003 	beqz	$t7,4182bc <strtoul+0x30c>
  4182b0:	2482ffc9 	addiu	$v0,$a0,-55
  4182b4:	10000001 	b	4182bc <strtoul+0x30c>
  4182b8:	2482ffa9 	addiu	$v0,$a0,-87
  4182bc:	00401825 	move	$v1,$v0
  4182c0:	0071082a 	slt	$at,$v1,$s1
  4182c4:	1420ffdd 	bnez	$at,41823c <strtoul+0x28c>
  4182c8:	0105082b 	sltu	$at,$t0,$a1
  4182cc:	8fb80024 	lw	$t8,36($sp)
  4182d0:	00a01825 	move	$v1,$a1
  4182d4:	13000002 	beqz	$t8,4182e0 <strtoul+0x330>
  4182d8:	00000000 	nop
  4182dc:	af100000 	sw	$s0,0($t8)
  4182e0:	11600003 	beqz	$t3,4182f0 <strtoul+0x340>
  4182e4:	00000000 	nop
  4182e8:	10000041 	b	4183f0 <strtoul+0x440>
  4182ec:	00051023 	negu	$v0,$a1
  4182f0:	1000003f 	b	4183f0 <strtoul+0x440>
  4182f4:	00601025 	move	$v0,$v1
  4182f8:	92040001 	lbu	$a0,1($s0)
  4182fc:	8faf0024 	lw	$t7,36($sp)
  418300:	0144c821 	addu	$t9,$t2,$a0
  418304:	93260001 	lbu	$a2,1($t9)
  418308:	26100001 	addiu	$s0,$s0,1
  41830c:	30c70004 	andi	$a3,$a2,0x4
  418310:	14e00009 	bnez	$a3,418338 <strtoul+0x388>
  418314:	28810061 	slti	$at,$a0,97
  418318:	14200002 	bnez	$at,418324 <strtoul+0x374>
  41831c:	2881007b 	slti	$at,$a0,123
  418320:	14200005 	bnez	$at,418338 <strtoul+0x388>
  418324:	28810041 	slti	$at,$a0,65
  418328:	1420002b 	bnez	$at,4183d8 <strtoul+0x428>
  41832c:	2881005b 	slti	$at,$a0,91
  418330:	10200029 	beqz	$at,4183d8 <strtoul+0x428>
  418334:	00000000 	nop
  418338:	10e00003 	beqz	$a3,418348 <strtoul+0x398>
  41833c:	30cc0002 	andi	$t4,$a2,0x2
  418340:	10000006 	b	41835c <strtoul+0x3ac>
  418344:	2483ffd0 	addiu	$v1,$a0,-48
  418348:	11800003 	beqz	$t4,418358 <strtoul+0x3a8>
  41834c:	2482ffc9 	addiu	$v0,$a0,-55
  418350:	10000001 	b	418358 <strtoul+0x3a8>
  418354:	2482ffa9 	addiu	$v0,$a0,-87
  418358:	00401825 	move	$v1,$v0
  41835c:	0071082a 	slt	$at,$v1,$s1
  418360:	1020001d 	beqz	$at,4183d8 <strtoul+0x428>
  418364:	00000000 	nop
  418368:	92040001 	lbu	$a0,1($s0)
  41836c:	26100001 	addiu	$s0,$s0,1
  418370:	01446821 	addu	$t5,$t2,$a0
  418374:	91a60001 	lbu	$a2,1($t5)
  418378:	28810061 	slti	$at,$a0,97
  41837c:	30c70004 	andi	$a3,$a2,0x4
  418380:	14e00009 	bnez	$a3,4183a8 <strtoul+0x3f8>
  418384:	00000000 	nop
  418388:	14200002 	bnez	$at,418394 <strtoul+0x3e4>
  41838c:	2881007b 	slti	$at,$a0,123
  418390:	14200005 	bnez	$at,4183a8 <strtoul+0x3f8>
  418394:	28810041 	slti	$at,$a0,65
  418398:	1420000f 	bnez	$at,4183d8 <strtoul+0x428>
  41839c:	2881005b 	slti	$at,$a0,91
  4183a0:	1020000d 	beqz	$at,4183d8 <strtoul+0x428>
  4183a4:	00000000 	nop
  4183a8:	10e00003 	beqz	$a3,4183b8 <strtoul+0x408>
  4183ac:	30ce0002 	andi	$t6,$a2,0x2
  4183b0:	10000006 	b	4183cc <strtoul+0x41c>
  4183b4:	2483ffd0 	addiu	$v1,$a0,-48
  4183b8:	11c00003 	beqz	$t6,4183c8 <strtoul+0x418>
  4183bc:	2482ffc9 	addiu	$v0,$a0,-55
  4183c0:	10000001 	b	4183c8 <strtoul+0x418>
  4183c4:	2482ffa9 	addiu	$v0,$a0,-87
  4183c8:	00401825 	move	$v1,$v0
  4183cc:	0071082a 	slt	$at,$v1,$s1
  4183d0:	1420ffe5 	bnez	$at,418368 <strtoul+0x3b8>
  4183d4:	00000000 	nop
  4183d8:	11e00002 	beqz	$t7,4183e4 <strtoul+0x434>
  4183dc:	00000000 	nop
  4183e0:	adf00000 	sw	$s0,0($t7)
  4183e4:	0c101ebd 	jal	407af4 <_setoserror>
  4183e8:	24040022 	li	$a0,34
  4183ec:	2402ffff 	li	$v0,-1
  4183f0:	8fbf001c 	lw	$ra,28($sp)
  4183f4:	8fb00014 	lw	$s0,20($sp)
  4183f8:	8fb10018 	lw	$s1,24($sp)
  4183fc:	03e00008 	jr	$ra
  418400:	27bd0020 	addiu	$sp,$sp,32
	...

00418410 <_ecvt>:
  418410:	27bdffe0 	addiu	$sp,$sp,-32
  418414:	8fae0030 	lw	$t6,48($sp)
  418418:	3c0f0042 	lui	$t7,0x42
  41841c:	afbf001c 	sw	$ra,28($sp)
  418420:	25ef0b10 	addiu	$t7,$t7,2832
  418424:	afaf0014 	sw	$t7,20($sp)
  418428:	0c106110 	jal	418440 <_ecvt_r>
  41842c:	afae0010 	sw	$t6,16($sp)
  418430:	8fbf001c 	lw	$ra,28($sp)
  418434:	27bd0020 	addiu	$sp,$sp,32
  418438:	03e00008 	jr	$ra
  41843c:	00000000 	nop

00418440 <_ecvt_r>:
  418440:	27bdffe0 	addiu	$sp,$sp,-32
  418444:	28c10012 	slti	$at,$a2,18
  418448:	afbf001c 	sw	$ra,28($sp)
  41844c:	afa60028 	sw	$a2,40($sp)
  418450:	14200029 	bnez	$at,4184f8 <_ecvt_r+0xb8>
  418454:	afa7002c 	sw	$a3,44($sp)
  418458:	8fa40034 	lw	$a0,52($sp)
  41845c:	44066800 	mfc1	$a2,$f13
  418460:	44076000 	mfc1	$a3,$f12
  418464:	24050011 	li	$a1,17
  418468:	0c10659c 	jal	419670 <_dtoa>
  41846c:	afa00010 	sw	$zero,16($sp)
  418470:	8fa40028 	lw	$a0,40($sp)
  418474:	8fa80034 	lw	$t0,52($sp)
  418478:	8fb8002c 	lw	$t8,44($sp)
  41847c:	244f0001 	addiu	$t7,$v0,1
  418480:	28810053 	slti	$at,$a0,83
  418484:	25060012 	addiu	$a2,$t0,18
  418488:	00c01825 	move	$v1,$a2
  41848c:	14200003 	bnez	$at,41849c <_ecvt_r+0x5c>
  418490:	af0f0000 	sw	$t7,0($t8)
  418494:	10000002 	b	4184a0 <_ecvt_r+0x60>
  418498:	24020052 	li	$v0,82
  41849c:	00801025 	move	$v0,$a0
  4184a0:	00483821 	addu	$a3,$v0,$t0
  4184a4:	24e70001 	addiu	$a3,$a3,1
  4184a8:	10c70011 	beq	$a2,$a3,4184f0 <_ecvt_r+0xb0>
  4184ac:	00e02825 	move	$a1,$a3
  4184b0:	00e61023 	subu	$v0,$a3,$a2
  4184b4:	30590003 	andi	$t9,$v0,0x3
  4184b8:	13200006 	beqz	$t9,4184d4 <_ecvt_r+0x94>
  4184bc:	03262021 	addu	$a0,$t9,$a2
  4184c0:	24020030 	li	$v0,48
  4184c4:	24630001 	addiu	$v1,$v1,1
  4184c8:	1483fffe 	bne	$a0,$v1,4184c4 <_ecvt_r+0x84>
  4184cc:	a062ffff 	sb	$v0,-1($v1)
  4184d0:	10670007 	beq	$v1,$a3,4184f0 <_ecvt_r+0xb0>
  4184d4:	24020030 	li	$v0,48
  4184d8:	24630004 	addiu	$v1,$v1,4
  4184dc:	a062fffd 	sb	$v0,-3($v1)
  4184e0:	a062fffe 	sb	$v0,-2($v1)
  4184e4:	a062ffff 	sb	$v0,-1($v1)
  4184e8:	1465fffb 	bne	$v1,$a1,4184d8 <_ecvt_r+0x98>
  4184ec:	a062fffc 	sb	$v0,-4($v1)
  4184f0:	1000001a 	b	41855c <_ecvt_r+0x11c>
  4184f4:	a0600000 	sb	$zero,0($v1)
  4184f8:	8fa90028 	lw	$t1,40($sp)
  4184fc:	8fa40034 	lw	$a0,52($sp)
  418500:	1d20000c 	bgtz	$t1,418534 <_ecvt_r+0xf4>
  418504:	24050001 	li	$a1,1
  418508:	8fa40034 	lw	$a0,52($sp)
  41850c:	44066800 	mfc1	$a2,$f13
  418510:	44076000 	mfc1	$a3,$f12
  418514:	0c10659c 	jal	419670 <_dtoa>
  418518:	afa00010 	sw	$zero,16($sp)
  41851c:	8fab002c 	lw	$t3,44($sp)
  418520:	244a0001 	addiu	$t2,$v0,1
  418524:	ad6a0000 	sw	$t2,0($t3)
  418528:	8fa80034 	lw	$t0,52($sp)
  41852c:	1000000b 	b	41855c <_ecvt_r+0x11c>
  418530:	a1000001 	sb	$zero,1($t0)
  418534:	8fa50028 	lw	$a1,40($sp)
  418538:	44066800 	mfc1	$a2,$f13
  41853c:	44076000 	mfc1	$a3,$f12
  418540:	0c10659c 	jal	419670 <_dtoa>
  418544:	afa00010 	sw	$zero,16($sp)
  418548:	8fae002c 	lw	$t6,44($sp)
  41854c:	244d0001 	addiu	$t5,$v0,1
  418550:	adcd0000 	sw	$t5,0($t6)
  418554:	8fa80034 	lw	$t0,52($sp)
  418558:	00000000 	nop
  41855c:	910f0000 	lbu	$t7,0($t0)
  418560:	8fb90030 	lw	$t9,48($sp)
  418564:	39f8002d 	xori	$t8,$t7,0x2d
  418568:	2f180001 	sltiu	$t8,$t8,1
  41856c:	af380000 	sw	$t8,0($t9)
  418570:	8fbf001c 	lw	$ra,28($sp)
  418574:	27bd0020 	addiu	$sp,$sp,32
  418578:	03e00008 	jr	$ra
  41857c:	25020001 	addiu	$v0,$t0,1

00418580 <_fcvt>:
  418580:	27bdffe0 	addiu	$sp,$sp,-32
  418584:	8fae0030 	lw	$t6,48($sp)
  418588:	3c0f0042 	lui	$t7,0x42
  41858c:	afbf001c 	sw	$ra,28($sp)
  418590:	25ef0b10 	addiu	$t7,$t7,2832
  418594:	afaf0014 	sw	$t7,20($sp)
  418598:	0c10616c 	jal	4185b0 <_fcvt_r>
  41859c:	afae0010 	sw	$t6,16($sp)
  4185a0:	8fbf001c 	lw	$ra,28($sp)
  4185a4:	27bd0020 	addiu	$sp,$sp,32
  4185a8:	03e00008 	jr	$ra
  4185ac:	00000000 	nop

004185b0 <_fcvt_r>:
  4185b0:	27bdffe0 	addiu	$sp,$sp,-32
  4185b4:	afa60028 	sw	$a2,40($sp)
  4185b8:	afa7002c 	sw	$a3,44($sp)
  4185bc:	00c02825 	move	$a1,$a2
  4185c0:	afbf001c 	sw	$ra,28($sp)
  4185c4:	44066800 	mfc1	$a2,$f13
  4185c8:	44076000 	mfc1	$a3,$f12
  4185cc:	8fa40034 	lw	$a0,52($sp)
  4185d0:	240e0001 	li	$t6,1
  4185d4:	0c10659c 	jal	419670 <_dtoa>
  4185d8:	afae0010 	sw	$t6,16($sp)
  4185dc:	8fa30034 	lw	$v1,52($sp)
  4185e0:	8fb8002c 	lw	$t8,44($sp)
  4185e4:	244f0001 	addiu	$t7,$v0,1
  4185e8:	af0f0000 	sw	$t7,0($t8)
  4185ec:	90790000 	lbu	$t9,0($v1)
  4185f0:	8fa90030 	lw	$t1,48($sp)
  4185f4:	3b28002d 	xori	$t0,$t9,0x2d
  4185f8:	2d080001 	sltiu	$t0,$t0,1
  4185fc:	ad280000 	sw	$t0,0($t1)
  418600:	8fbf001c 	lw	$ra,28($sp)
  418604:	27bd0020 	addiu	$sp,$sp,32
  418608:	03e00008 	jr	$ra
  41860c:	24620001 	addiu	$v0,$v1,1
  418610:	afa40000 	sw	$a0,0($sp)
  418614:	afa50004 	sw	$a1,4($sp)
  418618:	1480000e 	bnez	$a0,418654 <_fcvt_r+0xa4>
  41861c:	00001825 	move	$v1,$zero
  418620:	10a00014 	beqz	$a1,418674 <_fcvt_r+0xc4>
  418624:	00a01025 	move	$v0,$a1
  418628:	00027000 	sll	$t6,$v0,0x0
  41862c:	3c058000 	lui	$a1,0x8000
  418630:	05c00010 	bltz	$t6,418674 <_fcvt_r+0xc4>
  418634:	24030020 	li	$v1,32
  418638:	00027840 	sll	$t7,$v0,0x1
  41863c:	01e5c024 	and	$t8,$t7,$a1
  418640:	24630001 	addiu	$v1,$v1,1
  418644:	1300fffc 	beqz	$t8,418638 <_fcvt_r+0x88>
  418648:	01e01025 	move	$v0,$t7
  41864c:	03e00008 	jr	$ra
  418650:	00601025 	move	$v0,$v1
  418654:	0004c800 	sll	$t9,$a0,0x0
  418658:	07200006 	bltz	$t9,418674 <_fcvt_r+0xc4>
  41865c:	3c058000 	lui	$a1,0x8000
  418660:	00044040 	sll	$t0,$a0,0x1
  418664:	01054824 	and	$t1,$t0,$a1
  418668:	24630001 	addiu	$v1,$v1,1
  41866c:	1120fffc 	beqz	$t1,418660 <_fcvt_r+0xb0>
  418670:	01002025 	move	$a0,$t0
  418674:	03e00008 	jr	$ra
  418678:	00601025 	move	$v0,$v1
  41867c:	27bdffc8 	addiu	$sp,$sp,-56
  418680:	afbf001c 	sw	$ra,28($sp)
  418684:	afb00018 	sw	$s0,24($sp)
  418688:	afa40038 	sw	$a0,56($sp)
  41868c:	afa5003c 	sw	$a1,60($sp)
  418690:	afa60040 	sw	$a2,64($sp)
  418694:	afa70044 	sw	$a3,68($sp)
  418698:	27ae0040 	addiu	$t6,$sp,64
  41869c:	8dc40000 	lw	$a0,0($t6)
  4186a0:	00000000 	nop
  4186a4:	afa40000 	sw	$a0,0($sp)
  4186a8:	8dc50004 	lw	$a1,4($t6)
  4186ac:	0c106184 	jal	418610 <_fcvt_r+0x60>
  4186b0:	afa50004 	sw	$a1,4($sp)
  4186b4:	afa2002c 	sw	$v0,44($sp)
  4186b8:	27b90048 	addiu	$t9,$sp,72
  4186bc:	8f240000 	lw	$a0,0($t9)
  4186c0:	00000000 	nop
  4186c4:	afa40000 	sw	$a0,0($sp)
  4186c8:	8f250004 	lw	$a1,4($t9)
  4186cc:	0c106184 	jal	418610 <_fcvt_r+0x60>
  4186d0:	afa50004 	sw	$a1,4($sp)
  4186d4:	8faa002c 	lw	$t2,44($sp)
  4186d8:	8fa40048 	lw	$a0,72($sp)
  4186dc:	004a8023 	subu	$s0,$v0,$t2
  4186e0:	1a000006 	blez	$s0,4186fc <_fcvt_r+0x14c>
  4186e4:	02003825 	move	$a3,$s0
  4186e8:	8fa5004c 	lw	$a1,76($sp)
  4186ec:	0c1063a8 	jal	418ea0 <__ll_lshift>
  4186f0:	001037c3 	sra	$a2,$s0,0x1f
  4186f4:	afa20048 	sw	$v0,72($sp)
  4186f8:	afa3004c 	sw	$v1,76($sp)
  4186fc:	2a040000 	slti	$a0,$s0,0
  418700:	afa00034 	sw	$zero,52($sp)
  418704:	afa00030 	sw	$zero,48($sp)
  418708:	1480002c 	bnez	$a0,4187bc <_fcvt_r+0x20c>
  41870c:	2610ffff 	addiu	$s0,$s0,-1
  418710:	8fa40030 	lw	$a0,48($sp)
  418714:	8fa50034 	lw	$a1,52($sp)
  418718:	24060000 	li	$a2,0
  41871c:	0c1063a8 	jal	418ea0 <__ll_lshift>
  418720:	24070001 	li	$a3,1
  418724:	8fa50040 	lw	$a1,64($sp)
  418728:	8fab0048 	lw	$t3,72($sp)
  41872c:	afa20030 	sw	$v0,48($sp)
  418730:	14ab0007 	bne	$a1,$t3,418750 <_fcvt_r+0x1a0>
  418734:	afa30034 	sw	$v1,52($sp)
  418738:	8fa20044 	lw	$v0,68($sp)
  41873c:	8fac004c 	lw	$t4,76($sp)
  418740:	00000000 	nop
  418744:	004c202b 	sltu	$a0,$v0,$t4
  418748:	10000004 	b	41875c <_fcvt_r+0x1ac>
  41874c:	38840001 	xori	$a0,$a0,0x1
  418750:	8fad0048 	lw	$t5,72($sp)
  418754:	00000000 	nop
  418758:	01a5202b 	sltu	$a0,$t5,$a1
  41875c:	8fa20044 	lw	$v0,68($sp)
  418760:	1080000c 	beqz	$a0,418794 <_fcvt_r+0x1e4>
  418764:	afa50040 	sw	$a1,64($sp)
  418768:	8fb8004c 	lw	$t8,76($sp)
  41876c:	8faf0048 	lw	$t7,72($sp)
  418770:	8fb90034 	lw	$t9,52($sp)
  418774:	0058402b 	sltu	$t0,$v0,$t8
  418778:	00af7023 	subu	$t6,$a1,$t7
  41877c:	01c82823 	subu	$a1,$t6,$t0
  418780:	00581023 	subu	$v0,$v0,$t8
  418784:	37290001 	ori	$t1,$t9,0x1
  418788:	afa90034 	sw	$t1,52($sp)
  41878c:	afa20044 	sw	$v0,68($sp)
  418790:	afa50040 	sw	$a1,64($sp)
  418794:	8fa40048 	lw	$a0,72($sp)
  418798:	8fa5004c 	lw	$a1,76($sp)
  41879c:	24060000 	li	$a2,0
  4187a0:	0c1063cf 	jal	418f3c <__ull_rshift>
  4187a4:	24070001 	li	$a3,1
  4187a8:	2a040000 	slti	$a0,$s0,0
  4187ac:	2610ffff 	addiu	$s0,$s0,-1
  4187b0:	afa20048 	sw	$v0,72($sp)
  4187b4:	1080ffd6 	beqz	$a0,418710 <_fcvt_r+0x160>
  4187b8:	afa3004c 	sw	$v1,76($sp)
  4187bc:	27ab0030 	addiu	$t3,$sp,48
  4187c0:	8d610000 	lw	$at,0($t3)
  4187c4:	8faa0038 	lw	$t2,56($sp)
  4187c8:	27ae0040 	addiu	$t6,$sp,64
  4187cc:	ad410000 	sw	$at,0($t2)
  4187d0:	8d6d0004 	lw	$t5,4($t3)
  4187d4:	00000000 	nop
  4187d8:	ad4d0004 	sw	$t5,4($t2)
  4187dc:	8dc10000 	lw	$at,0($t6)
  4187e0:	8faf003c 	lw	$t7,60($sp)
  4187e4:	00000000 	nop
  4187e8:	ade10000 	sw	$at,0($t7)
  4187ec:	8dd80004 	lw	$t8,4($t6)
  4187f0:	00000000 	nop
  4187f4:	adf80004 	sw	$t8,4($t7)
  4187f8:	8fbf001c 	lw	$ra,28($sp)
  4187fc:	8fb00018 	lw	$s0,24($sp)
  418800:	03e00008 	jr	$ra
  418804:	27bd0038 	addiu	$sp,$sp,56

00418808 <__ll_div>:
  418808:	27bdffa0 	addiu	$sp,$sp,-96
  41880c:	afbf001c 	sw	$ra,28($sp)
  418810:	afa40060 	sw	$a0,96($sp)
  418814:	afa50064 	sw	$a1,100($sp)
  418818:	afa60068 	sw	$a2,104($sp)
  41881c:	afa7006c 	sw	$a3,108($sp)
  418820:	00004025 	move	$t0,$zero
  418824:	afa40058 	sw	$a0,88($sp)
  418828:	afa5005c 	sw	$a1,92($sp)
  41882c:	afa60050 	sw	$a2,80($sp)
  418830:	04810008 	bgez	$a0,418854 <__ll_div+0x4c>
  418834:	afa70054 	sw	$a3,84($sp)
  418838:	00805827 	nor	$t3,$a0,$zero
  41883c:	2cad0001 	sltiu	$t5,$a1,1
  418840:	016d7021 	addu	$t6,$t3,$t5
  418844:	00057823 	negu	$t7,$a1
  418848:	24080001 	li	$t0,1
  41884c:	afaf005c 	sw	$t7,92($sp)
  418850:	afae0058 	sw	$t6,88($sp)
  418854:	8fb80050 	lw	$t8,80($sp)
  418858:	8fa90050 	lw	$t1,80($sp)
  41885c:	07010009 	bgez	$t8,418884 <__ll_div+0x7c>
  418860:	2d190001 	sltiu	$t9,$t0,1
  418864:	8fab0054 	lw	$t3,84($sp)
  418868:	01205027 	nor	$t2,$t1,$zero
  41886c:	2d6d0001 	sltiu	$t5,$t3,1
  418870:	014d7021 	addu	$t6,$t2,$t5
  418874:	000b6023 	negu	$t4,$t3
  418878:	03204025 	move	$t0,$t9
  41887c:	afac0054 	sw	$t4,84($sp)
  418880:	afae0050 	sw	$t6,80($sp)
  418884:	8faf0050 	lw	$t7,80($sp)
  418888:	8fb90058 	lw	$t9,88($sp)
  41888c:	15e00006 	bnez	$t7,4188a8 <__ll_div+0xa0>
  418890:	00001025 	move	$v0,$zero
  418894:	8fa20054 	lw	$v0,84($sp)
  418898:	3c010001 	lui	$at,0x1
  41889c:	0041c02b 	sltu	$t8,$v0,$at
  4188a0:	10000001 	b	4188a8 <__ll_div+0xa0>
  4188a4:	03001025 	move	$v0,$t8
  4188a8:	1040000e 	beqz	$v0,4188e4 <__ll_div+0xdc>
  4188ac:	3c030020 	lui	$v1,0x20
  4188b0:	8faa0050 	lw	$t2,80($sp)
  4188b4:	8fab0054 	lw	$t3,84($sp)
  4188b8:	8fa60058 	lw	$a2,88($sp)
  4188bc:	8fa7005c 	lw	$a3,92($sp)
  4188c0:	27a40048 	addiu	$a0,$sp,72
  4188c4:	27a50040 	addiu	$a1,$sp,64
  4188c8:	afa8002c 	sw	$t0,44($sp)
  4188cc:	afaa0010 	sw	$t2,16($sp)
  4188d0:	0c10667c 	jal	4199f0 <__ull_divrem_6416>
  4188d4:	afab0014 	sw	$t3,20($sp)
  4188d8:	8fa8002c 	lw	$t0,44($sp)
  4188dc:	10000033 	b	4189ac <__ll_div+0x1a4>
  4188e0:	00000000 	nop
  4188e4:	17230006 	bne	$t9,$v1,418900 <__ll_div+0xf8>
  4188e8:	27a40048 	addiu	$a0,$sp,72
  4188ec:	8fa2005c 	lw	$v0,92($sp)
  4188f0:	00000000 	nop
  4188f4:	2c490001 	sltiu	$t1,$v0,1
  4188f8:	10000004 	b	41890c <__ll_div+0x104>
  4188fc:	01201025 	move	$v0,$t1
  418900:	8fad0058 	lw	$t5,88($sp)
  418904:	00000000 	nop
  418908:	01a3102b 	sltu	$v0,$t5,$v1
  41890c:	10400018 	beqz	$v0,418970 <__ll_div+0x168>
  418910:	27aa0058 	addiu	$t2,$sp,88
  418914:	8fae0050 	lw	$t6,80($sp)
  418918:	8faf0050 	lw	$t7,80($sp)
  41891c:	15c30006 	bne	$t6,$v1,418938 <__ll_div+0x130>
  418920:	01e3102b 	sltu	$v0,$t7,$v1
  418924:	8fa20054 	lw	$v0,84($sp)
  418928:	00000000 	nop
  41892c:	2c4c0001 	sltiu	$t4,$v0,1
  418930:	10000001 	b	418938 <__ll_div+0x130>
  418934:	01801025 	move	$v0,$t4
  418938:	1040000d 	beqz	$v0,418970 <__ll_div+0x168>
  41893c:	27a50040 	addiu	$a1,$sp,64
  418940:	8fb80050 	lw	$t8,80($sp)
  418944:	8fb90054 	lw	$t9,84($sp)
  418948:	8fa60058 	lw	$a2,88($sp)
  41894c:	8fa7005c 	lw	$a3,92($sp)
  418950:	27a40048 	addiu	$a0,$sp,72
  418954:	afa8002c 	sw	$t0,44($sp)
  418958:	afb80010 	sw	$t8,16($sp)
  41895c:	0c1066c2 	jal	419b08 <__ull_divrem_5353>
  418960:	afb90014 	sw	$t9,20($sp)
  418964:	8fa8002c 	lw	$t0,44($sp)
  418968:	10000010 	b	4189ac <__ll_div+0x1a4>
  41896c:	00000000 	nop
  418970:	8d410000 	lw	$at,0($t2)
  418974:	27ad0050 	addiu	$t5,$sp,80
  418978:	afa10008 	sw	$at,8($sp)
  41897c:	8d470004 	lw	$a3,4($t2)
  418980:	8fa60008 	lw	$a2,8($sp)
  418984:	afa7000c 	sw	$a3,12($sp)
  418988:	8da10000 	lw	$at,0($t5)
  41898c:	27a50040 	addiu	$a1,$sp,64
  418990:	afa10010 	sw	$at,16($sp)
  418994:	8dac0004 	lw	$t4,4($t5)
  418998:	afa8002c 	sw	$t0,44($sp)
  41899c:	0c10619f 	jal	41867c <_fcvt_r+0xcc>
  4189a0:	afac0014 	sw	$t4,20($sp)
  4189a4:	8fa8002c 	lw	$t0,44($sp)
  4189a8:	00000000 	nop
  4189ac:	1100000a 	beqz	$t0,4189d8 <__ll_div+0x1d0>
  4189b0:	8fbf001c 	lw	$ra,28($sp)
  4189b4:	8faf0048 	lw	$t7,72($sp)
  4189b8:	8fb9004c 	lw	$t9,76($sp)
  4189bc:	01e0c027 	nor	$t8,$t7,$zero
  4189c0:	2f2b0001 	sltiu	$t3,$t9,1
  4189c4:	030b5021 	addu	$t2,$t8,$t3
  4189c8:	00194823 	negu	$t1,$t9
  4189cc:	afa9004c 	sw	$t1,76($sp)
  4189d0:	afaa0048 	sw	$t2,72($sp)
  4189d4:	8fbf001c 	lw	$ra,28($sp)
  4189d8:	8fa20048 	lw	$v0,72($sp)
  4189dc:	8fa3004c 	lw	$v1,76($sp)
  4189e0:	03e00008 	jr	$ra
  4189e4:	27bd0060 	addiu	$sp,$sp,96

004189e8 <__ull_div>:
  4189e8:	27bdffa8 	addiu	$sp,$sp,-88
  4189ec:	afbf001c 	sw	$ra,28($sp)
  4189f0:	afa40058 	sw	$a0,88($sp)
  4189f4:	afa5005c 	sw	$a1,92($sp)
  4189f8:	afa60060 	sw	$a2,96($sp)
  4189fc:	afa70064 	sw	$a3,100($sp)
  418a00:	afa40050 	sw	$a0,80($sp)
  418a04:	afa50054 	sw	$a1,84($sp)
  418a08:	afa60048 	sw	$a2,72($sp)
  418a0c:	14c00004 	bnez	$a2,418a20 <__ull_div+0x38>
  418a10:	afa7004c 	sw	$a3,76($sp)
  418a14:	3c010001 	lui	$at,0x1
  418a18:	10000002 	b	418a24 <__ull_div+0x3c>
  418a1c:	00e1102b 	sltu	$v0,$a3,$at
  418a20:	00001025 	move	$v0,$zero
  418a24:	1040000b 	beqz	$v0,418a54 <__ull_div+0x6c>
  418a28:	27a40040 	addiu	$a0,$sp,64
  418a2c:	8faa0060 	lw	$t2,96($sp)
  418a30:	8fab0064 	lw	$t3,100($sp)
  418a34:	8fa60058 	lw	$a2,88($sp)
  418a38:	8fa7005c 	lw	$a3,92($sp)
  418a3c:	27a50038 	addiu	$a1,$sp,56
  418a40:	afaa0010 	sw	$t2,16($sp)
  418a44:	0c10667c 	jal	4199f0 <__ull_divrem_6416>
  418a48:	afab0014 	sw	$t3,20($sp)
  418a4c:	10000031 	b	418b14 <__ull_div+0x12c>
  418a50:	8fbf001c 	lw	$ra,28($sp)
  418a54:	8fac0050 	lw	$t4,80($sp)
  418a58:	3c030020 	lui	$v1,0x20
  418a5c:	15830006 	bne	$t4,$v1,418a78 <__ull_div+0x90>
  418a60:	27a40040 	addiu	$a0,$sp,64
  418a64:	8fa20054 	lw	$v0,84($sp)
  418a68:	00000000 	nop
  418a6c:	2c4d0001 	sltiu	$t5,$v0,1
  418a70:	10000004 	b	418a84 <__ull_div+0x9c>
  418a74:	01a01025 	move	$v0,$t5
  418a78:	8fae0050 	lw	$t6,80($sp)
  418a7c:	00000000 	nop
  418a80:	01c3102b 	sltu	$v0,$t6,$v1
  418a84:	10400016 	beqz	$v0,418ae0 <__ull_div+0xf8>
  418a88:	27aa0050 	addiu	$t2,$sp,80
  418a8c:	8faf0048 	lw	$t7,72($sp)
  418a90:	8fb90048 	lw	$t9,72($sp)
  418a94:	15e30006 	bne	$t7,$v1,418ab0 <__ull_div+0xc8>
  418a98:	0323102b 	sltu	$v0,$t9,$v1
  418a9c:	8fa2004c 	lw	$v0,76($sp)
  418aa0:	00000000 	nop
  418aa4:	2c580001 	sltiu	$t8,$v0,1
  418aa8:	10000001 	b	418ab0 <__ull_div+0xc8>
  418aac:	03001025 	move	$v0,$t8
  418ab0:	1040000b 	beqz	$v0,418ae0 <__ull_div+0xf8>
  418ab4:	27a50038 	addiu	$a1,$sp,56
  418ab8:	8fa80060 	lw	$t0,96($sp)
  418abc:	8fa90064 	lw	$t1,100($sp)
  418ac0:	8fa60058 	lw	$a2,88($sp)
  418ac4:	8fa7005c 	lw	$a3,92($sp)
  418ac8:	27a40040 	addiu	$a0,$sp,64
  418acc:	afa80010 	sw	$t0,16($sp)
  418ad0:	0c1066c2 	jal	419b08 <__ull_divrem_5353>
  418ad4:	afa90014 	sw	$t1,20($sp)
  418ad8:	1000000e 	b	418b14 <__ull_div+0x12c>
  418adc:	8fbf001c 	lw	$ra,28($sp)
  418ae0:	8d410000 	lw	$at,0($t2)
  418ae4:	27ad0048 	addiu	$t5,$sp,72
  418ae8:	afa10008 	sw	$at,8($sp)
  418aec:	8d470004 	lw	$a3,4($t2)
  418af0:	8fa60008 	lw	$a2,8($sp)
  418af4:	afa7000c 	sw	$a3,12($sp)
  418af8:	8da10000 	lw	$at,0($t5)
  418afc:	27a50038 	addiu	$a1,$sp,56
  418b00:	afa10010 	sw	$at,16($sp)
  418b04:	8daf0004 	lw	$t7,4($t5)
  418b08:	0c10619f 	jal	41867c <_fcvt_r+0xcc>
  418b0c:	afaf0014 	sw	$t7,20($sp)
  418b10:	8fbf001c 	lw	$ra,28($sp)
  418b14:	8fa20040 	lw	$v0,64($sp)
  418b18:	8fa30044 	lw	$v1,68($sp)
  418b1c:	03e00008 	jr	$ra
  418b20:	27bd0058 	addiu	$sp,$sp,88

00418b24 <__ll_rem>:
  418b24:	27bdffa0 	addiu	$sp,$sp,-96
  418b28:	afbf001c 	sw	$ra,28($sp)
  418b2c:	afa40060 	sw	$a0,96($sp)
  418b30:	afa50064 	sw	$a1,100($sp)
  418b34:	afa60068 	sw	$a2,104($sp)
  418b38:	afa7006c 	sw	$a3,108($sp)
  418b3c:	afa0002c 	sw	$zero,44($sp)
  418b40:	afa40058 	sw	$a0,88($sp)
  418b44:	afa5005c 	sw	$a1,92($sp)
  418b48:	afa60050 	sw	$a2,80($sp)
  418b4c:	04810009 	bgez	$a0,418b74 <__ll_rem+0x50>
  418b50:	afa70054 	sw	$a3,84($sp)
  418b54:	00805827 	nor	$t3,$a0,$zero
  418b58:	2cad0001 	sltiu	$t5,$a1,1
  418b5c:	24090001 	li	$t1,1
  418b60:	016d7021 	addu	$t6,$t3,$t5
  418b64:	00057823 	negu	$t7,$a1
  418b68:	afa9002c 	sw	$t1,44($sp)
  418b6c:	afaf005c 	sw	$t7,92($sp)
  418b70:	afae0058 	sw	$t6,88($sp)
  418b74:	8fb80050 	lw	$t8,80($sp)
  418b78:	8fb90050 	lw	$t9,80($sp)
  418b7c:	07010008 	bgez	$t8,418ba0 <__ll_rem+0x7c>
  418b80:	00001025 	move	$v0,$zero
  418b84:	8fa90054 	lw	$t1,84($sp)
  418b88:	03204027 	nor	$t0,$t9,$zero
  418b8c:	2d2a0001 	sltiu	$t2,$t1,1
  418b90:	010a5821 	addu	$t3,$t0,$t2
  418b94:	00096823 	negu	$t5,$t1
  418b98:	afad0054 	sw	$t5,84($sp)
  418b9c:	afab0050 	sw	$t3,80($sp)
  418ba0:	8fae0050 	lw	$t6,80($sp)
  418ba4:	8faf0058 	lw	$t7,88($sp)
  418ba8:	15c00006 	bnez	$t6,418bc4 <__ll_rem+0xa0>
  418bac:	27a40048 	addiu	$a0,$sp,72
  418bb0:	8fa20054 	lw	$v0,84($sp)
  418bb4:	3c010001 	lui	$at,0x1
  418bb8:	0041602b 	sltu	$t4,$v0,$at
  418bbc:	10000001 	b	418bc4 <__ll_rem+0xa0>
  418bc0:	01801025 	move	$v0,$t4
  418bc4:	1040000b 	beqz	$v0,418bf4 <__ll_rem+0xd0>
  418bc8:	3c030020 	lui	$v1,0x20
  418bcc:	8fb80050 	lw	$t8,80($sp)
  418bd0:	8fb90054 	lw	$t9,84($sp)
  418bd4:	8fa60058 	lw	$a2,88($sp)
  418bd8:	8fa7005c 	lw	$a3,92($sp)
  418bdc:	27a50040 	addiu	$a1,$sp,64
  418be0:	afb80010 	sw	$t8,16($sp)
  418be4:	0c10667c 	jal	4199f0 <__ull_divrem_6416>
  418be8:	afb90014 	sw	$t9,20($sp)
  418bec:	1000002f 	b	418cac <__ll_rem+0x188>
  418bf0:	8fa9002c 	lw	$t1,44($sp)
  418bf4:	15e30006 	bne	$t7,$v1,418c10 <__ll_rem+0xec>
  418bf8:	27a40048 	addiu	$a0,$sp,72
  418bfc:	8fa2005c 	lw	$v0,92($sp)
  418c00:	00000000 	nop
  418c04:	2c480001 	sltiu	$t0,$v0,1
  418c08:	10000004 	b	418c1c <__ll_rem+0xf8>
  418c0c:	01001025 	move	$v0,$t0
  418c10:	8faa0058 	lw	$t2,88($sp)
  418c14:	00000000 	nop
  418c18:	0143102b 	sltu	$v0,$t2,$v1
  418c1c:	10400016 	beqz	$v0,418c78 <__ll_rem+0x154>
  418c20:	27ac0058 	addiu	$t4,$sp,88
  418c24:	8fab0050 	lw	$t3,80($sp)
  418c28:	8fad0050 	lw	$t5,80($sp)
  418c2c:	15630006 	bne	$t3,$v1,418c48 <__ll_rem+0x124>
  418c30:	01a3102b 	sltu	$v0,$t5,$v1
  418c34:	8fa20054 	lw	$v0,84($sp)
  418c38:	00000000 	nop
  418c3c:	2c490001 	sltiu	$t1,$v0,1
  418c40:	10000001 	b	418c48 <__ll_rem+0x124>
  418c44:	01201025 	move	$v0,$t1
  418c48:	1040000b 	beqz	$v0,418c78 <__ll_rem+0x154>
  418c4c:	27a50040 	addiu	$a1,$sp,64
  418c50:	8fae0050 	lw	$t6,80($sp)
  418c54:	8faf0054 	lw	$t7,84($sp)
  418c58:	8fa60058 	lw	$a2,88($sp)
  418c5c:	8fa7005c 	lw	$a3,92($sp)
  418c60:	27a40048 	addiu	$a0,$sp,72
  418c64:	afae0010 	sw	$t6,16($sp)
  418c68:	0c1066c2 	jal	419b08 <__ull_divrem_5353>
  418c6c:	afaf0014 	sw	$t7,20($sp)
  418c70:	1000000e 	b	418cac <__ll_rem+0x188>
  418c74:	8fa9002c 	lw	$t1,44($sp)
  418c78:	8d810000 	lw	$at,0($t4)
  418c7c:	27a80050 	addiu	$t0,$sp,80
  418c80:	afa10008 	sw	$at,8($sp)
  418c84:	8d870004 	lw	$a3,4($t4)
  418c88:	8fa60008 	lw	$a2,8($sp)
  418c8c:	afa7000c 	sw	$a3,12($sp)
  418c90:	8d010000 	lw	$at,0($t0)
  418c94:	27a50040 	addiu	$a1,$sp,64
  418c98:	afa10010 	sw	$at,16($sp)
  418c9c:	8d0b0004 	lw	$t3,4($t0)
  418ca0:	0c10619f 	jal	41867c <_fcvt_r+0xcc>
  418ca4:	afab0014 	sw	$t3,20($sp)
  418ca8:	8fa9002c 	lw	$t1,44($sp)
  418cac:	8fad0040 	lw	$t5,64($sp)
  418cb0:	11200009 	beqz	$t1,418cd8 <__ll_rem+0x1b4>
  418cb4:	8fbf001c 	lw	$ra,28($sp)
  418cb8:	8faf0044 	lw	$t7,68($sp)
  418cbc:	01a07027 	nor	$t6,$t5,$zero
  418cc0:	2df80001 	sltiu	$t8,$t7,1
  418cc4:	01d86021 	addu	$t4,$t6,$t8
  418cc8:	000fc823 	negu	$t9,$t7
  418ccc:	afb90044 	sw	$t9,68($sp)
  418cd0:	afac0040 	sw	$t4,64($sp)
  418cd4:	8fbf001c 	lw	$ra,28($sp)
  418cd8:	8fa20040 	lw	$v0,64($sp)
  418cdc:	8fa30044 	lw	$v1,68($sp)
  418ce0:	03e00008 	jr	$ra
  418ce4:	27bd0060 	addiu	$sp,$sp,96

00418ce8 <__ull_rem>:
  418ce8:	27bdffa8 	addiu	$sp,$sp,-88
  418cec:	afbf001c 	sw	$ra,28($sp)
  418cf0:	afa40058 	sw	$a0,88($sp)
  418cf4:	afa5005c 	sw	$a1,92($sp)
  418cf8:	afa60060 	sw	$a2,96($sp)
  418cfc:	afa70064 	sw	$a3,100($sp)
  418d00:	afa40050 	sw	$a0,80($sp)
  418d04:	afa50054 	sw	$a1,84($sp)
  418d08:	afa60048 	sw	$a2,72($sp)
  418d0c:	14c00004 	bnez	$a2,418d20 <__ull_rem+0x38>
  418d10:	afa7004c 	sw	$a3,76($sp)
  418d14:	3c010001 	lui	$at,0x1
  418d18:	10000002 	b	418d24 <__ull_rem+0x3c>
  418d1c:	00e1102b 	sltu	$v0,$a3,$at
  418d20:	00001025 	move	$v0,$zero
  418d24:	1040000b 	beqz	$v0,418d54 <__ull_rem+0x6c>
  418d28:	27a40040 	addiu	$a0,$sp,64
  418d2c:	8faa0060 	lw	$t2,96($sp)
  418d30:	8fab0064 	lw	$t3,100($sp)
  418d34:	8fa60058 	lw	$a2,88($sp)
  418d38:	8fa7005c 	lw	$a3,92($sp)
  418d3c:	27a50038 	addiu	$a1,$sp,56
  418d40:	afaa0010 	sw	$t2,16($sp)
  418d44:	0c10667c 	jal	4199f0 <__ull_divrem_6416>
  418d48:	afab0014 	sw	$t3,20($sp)
  418d4c:	10000031 	b	418e14 <__ull_rem+0x12c>
  418d50:	8fbf001c 	lw	$ra,28($sp)
  418d54:	8fac0050 	lw	$t4,80($sp)
  418d58:	3c030020 	lui	$v1,0x20
  418d5c:	15830006 	bne	$t4,$v1,418d78 <__ull_rem+0x90>
  418d60:	27a40040 	addiu	$a0,$sp,64
  418d64:	8fa20054 	lw	$v0,84($sp)
  418d68:	00000000 	nop
  418d6c:	2c4d0001 	sltiu	$t5,$v0,1
  418d70:	10000004 	b	418d84 <__ull_rem+0x9c>
  418d74:	01a01025 	move	$v0,$t5
  418d78:	8fae0050 	lw	$t6,80($sp)
  418d7c:	00000000 	nop
  418d80:	01c3102b 	sltu	$v0,$t6,$v1
  418d84:	10400016 	beqz	$v0,418de0 <__ull_rem+0xf8>
  418d88:	27aa0050 	addiu	$t2,$sp,80
  418d8c:	8faf0048 	lw	$t7,72($sp)
  418d90:	8fb90048 	lw	$t9,72($sp)
  418d94:	15e30006 	bne	$t7,$v1,418db0 <__ull_rem+0xc8>
  418d98:	0323102b 	sltu	$v0,$t9,$v1
  418d9c:	8fa2004c 	lw	$v0,76($sp)
  418da0:	00000000 	nop
  418da4:	2c580001 	sltiu	$t8,$v0,1
  418da8:	10000001 	b	418db0 <__ull_rem+0xc8>
  418dac:	03001025 	move	$v0,$t8
  418db0:	1040000b 	beqz	$v0,418de0 <__ull_rem+0xf8>
  418db4:	27a50038 	addiu	$a1,$sp,56
  418db8:	8fa80060 	lw	$t0,96($sp)
  418dbc:	8fa90064 	lw	$t1,100($sp)
  418dc0:	8fa60058 	lw	$a2,88($sp)
  418dc4:	8fa7005c 	lw	$a3,92($sp)
  418dc8:	27a40040 	addiu	$a0,$sp,64
  418dcc:	afa80010 	sw	$t0,16($sp)
  418dd0:	0c1066c2 	jal	419b08 <__ull_divrem_5353>
  418dd4:	afa90014 	sw	$t1,20($sp)
  418dd8:	1000000e 	b	418e14 <__ull_rem+0x12c>
  418ddc:	8fbf001c 	lw	$ra,28($sp)
  418de0:	8d410000 	lw	$at,0($t2)
  418de4:	27ad0048 	addiu	$t5,$sp,72
  418de8:	afa10008 	sw	$at,8($sp)
  418dec:	8d470004 	lw	$a3,4($t2)
  418df0:	8fa60008 	lw	$a2,8($sp)
  418df4:	afa7000c 	sw	$a3,12($sp)
  418df8:	8da10000 	lw	$at,0($t5)
  418dfc:	27a50038 	addiu	$a1,$sp,56
  418e00:	afa10010 	sw	$at,16($sp)
  418e04:	8daf0004 	lw	$t7,4($t5)
  418e08:	0c10619f 	jal	41867c <_fcvt_r+0xcc>
  418e0c:	afaf0014 	sw	$t7,20($sp)
  418e10:	8fbf001c 	lw	$ra,28($sp)
  418e14:	8fa20038 	lw	$v0,56($sp)
  418e18:	8fa3003c 	lw	$v1,60($sp)
  418e1c:	03e00008 	jr	$ra
  418e20:	27bd0058 	addiu	$sp,$sp,88

00418e24 <__ll_mod>:
  418e24:	27bdffd8 	addiu	$sp,$sp,-40
  418e28:	afbf0014 	sw	$ra,20($sp)
  418e2c:	afa40028 	sw	$a0,40($sp)
  418e30:	afa5002c 	sw	$a1,44($sp)
  418e34:	afa60030 	sw	$a2,48($sp)
  418e38:	afa70034 	sw	$a3,52($sp)
  418e3c:	afa60020 	sw	$a2,32($sp)
  418e40:	0c1062c9 	jal	418b24 <__ll_rem>
  418e44:	afa70024 	sw	$a3,36($sp)
  418e48:	8fb80020 	lw	$t8,32($sp)
  418e4c:	28490000 	slti	$t1,$v0,0
  418e50:	2b190000 	slti	$t9,$t8,0
  418e54:	afa20018 	sw	$v0,24($sp)
  418e58:	13290009 	beq	$t9,$t1,418e80 <__ll_mod+0x5c>
  418e5c:	afa3001c 	sw	$v1,28($sp)
  418e60:	8fae0024 	lw	$t6,36($sp)
  418e64:	8fab0020 	lw	$t3,32($sp)
  418e68:	006e7821 	addu	$t7,$v1,$t6
  418e6c:	01eec02b 	sltu	$t8,$t7,$t6
  418e70:	004b6021 	addu	$t4,$v0,$t3
  418e74:	01984021 	addu	$t0,$t4,$t8
  418e78:	afa80018 	sw	$t0,24($sp)
  418e7c:	afaf001c 	sw	$t7,28($sp)
  418e80:	8fbf0014 	lw	$ra,20($sp)
  418e84:	8fa20018 	lw	$v0,24($sp)
  418e88:	8fa3001c 	lw	$v1,28($sp)
  418e8c:	03e00008 	jr	$ra
  418e90:	27bd0028 	addiu	$sp,$sp,40
	...

00418ea0 <__ll_lshift>:
  418ea0:	27bdffe8 	addiu	$sp,$sp,-24
  418ea4:	30e9003f 	andi	$t1,$a3,0x3f
  418ea8:	afa60008 	sw	$a2,8($sp)
  418eac:	afa7000c 	sw	$a3,12($sp)
  418eb0:	2d210020 	sltiu	$at,$t1,32
  418eb4:	afa40018 	sw	$a0,24($sp)
  418eb8:	afa5001c 	sw	$a1,28($sp)
  418ebc:	afa60020 	sw	$a2,32($sp)
  418ec0:	afa70024 	sw	$a3,36($sp)
  418ec4:	afa40010 	sw	$a0,16($sp)
  418ec8:	afa50014 	sw	$a1,20($sp)
  418ecc:	afa9000c 	sw	$t1,12($sp)
  418ed0:	14200005 	bnez	$at,418ee8 <__ll_lshift+0x48>
  418ed4:	afa00008 	sw	$zero,8($sp)
  418ed8:	01255804 	sllv	$t3,$a1,$t1
  418edc:	afab0000 	sw	$t3,0($sp)
  418ee0:	10000011 	b	418f28 <__ll_lshift+0x88>
  418ee4:	afa00004 	sw	$zero,4($sp)
  418ee8:	8fac000c 	lw	$t4,12($sp)
  418eec:	8fa20018 	lw	$v0,24($sp)
  418ef0:	1180000a 	beqz	$t4,418f1c <__ll_lshift+0x7c>
  418ef4:	000cc023 	negu	$t8,$t4
  418ef8:	8fad0010 	lw	$t5,16($sp)
  418efc:	8faf0014 	lw	$t7,20($sp)
  418f00:	018d7004 	sllv	$t6,$t5,$t4
  418f04:	030fc806 	srlv	$t9,$t7,$t8
  418f08:	01d94025 	or	$t0,$t6,$t9
  418f0c:	018f5004 	sllv	$t2,$t7,$t4
  418f10:	afa80000 	sw	$t0,0($sp)
  418f14:	10000004 	b	418f28 <__ll_lshift+0x88>
  418f18:	afaa0004 	sw	$t2,4($sp)
  418f1c:	8fa3001c 	lw	$v1,28($sp)
  418f20:	10000004 	b	418f34 <__ll_lshift+0x94>
  418f24:	00000000 	nop
  418f28:	8fa20000 	lw	$v0,0($sp)
  418f2c:	8fa30004 	lw	$v1,4($sp)
  418f30:	00000000 	nop
  418f34:	03e00008 	jr	$ra
  418f38:	27bd0018 	addiu	$sp,$sp,24

00418f3c <__ull_rshift>:
  418f3c:	27bdffe8 	addiu	$sp,$sp,-24
  418f40:	30e9003f 	andi	$t1,$a3,0x3f
  418f44:	afa60008 	sw	$a2,8($sp)
  418f48:	afa7000c 	sw	$a3,12($sp)
  418f4c:	2d210020 	sltiu	$at,$t1,32
  418f50:	afa40018 	sw	$a0,24($sp)
  418f54:	afa5001c 	sw	$a1,28($sp)
  418f58:	afa60020 	sw	$a2,32($sp)
  418f5c:	afa70024 	sw	$a3,36($sp)
  418f60:	afa40010 	sw	$a0,16($sp)
  418f64:	afa50014 	sw	$a1,20($sp)
  418f68:	afa9000c 	sw	$t1,12($sp)
  418f6c:	14200005 	bnez	$at,418f84 <__ull_rshift+0x48>
  418f70:	afa00008 	sw	$zero,8($sp)
  418f74:	01245806 	srlv	$t3,$a0,$t1
  418f78:	afab0004 	sw	$t3,4($sp)
  418f7c:	10000011 	b	418fc4 <__ull_rshift+0x88>
  418f80:	afa00000 	sw	$zero,0($sp)
  418f84:	8fac000c 	lw	$t4,12($sp)
  418f88:	8fa20018 	lw	$v0,24($sp)
  418f8c:	1180000a 	beqz	$t4,418fb8 <__ull_rshift+0x7c>
  418f90:	000cc023 	negu	$t8,$t4
  418f94:	8fad0014 	lw	$t5,20($sp)
  418f98:	8faf0010 	lw	$t7,16($sp)
  418f9c:	018d7006 	srlv	$t6,$t5,$t4
  418fa0:	030fc804 	sllv	$t9,$t7,$t8
  418fa4:	01d94025 	or	$t0,$t6,$t9
  418fa8:	018f5006 	srlv	$t2,$t7,$t4
  418fac:	afa80004 	sw	$t0,4($sp)
  418fb0:	10000004 	b	418fc4 <__ull_rshift+0x88>
  418fb4:	afaa0000 	sw	$t2,0($sp)
  418fb8:	8fa3001c 	lw	$v1,28($sp)
  418fbc:	10000004 	b	418fd0 <__ull_rshift+0x94>
  418fc0:	00000000 	nop
  418fc4:	8fa20000 	lw	$v0,0($sp)
  418fc8:	8fa30004 	lw	$v1,4($sp)
  418fcc:	00000000 	nop
  418fd0:	03e00008 	jr	$ra
  418fd4:	27bd0018 	addiu	$sp,$sp,24

00418fd8 <__ll_rshift>:
  418fd8:	27bdffe8 	addiu	$sp,$sp,-24
  418fdc:	30e9003f 	andi	$t1,$a3,0x3f
  418fe0:	afa60008 	sw	$a2,8($sp)
  418fe4:	afa7000c 	sw	$a3,12($sp)
  418fe8:	2d210020 	sltiu	$at,$t1,32
  418fec:	afa40018 	sw	$a0,24($sp)
  418ff0:	afa5001c 	sw	$a1,28($sp)
  418ff4:	afa60020 	sw	$a2,32($sp)
  418ff8:	afa70024 	sw	$a3,36($sp)
  418ffc:	afa40010 	sw	$a0,16($sp)
  419000:	afa50014 	sw	$a1,20($sp)
  419004:	afa9000c 	sw	$t1,12($sp)
  419008:	14200009 	bnez	$at,419030 <__ll_rshift+0x58>
  41900c:	afa00008 	sw	$zero,8($sp)
  419010:	01245807 	srav	$t3,$a0,$t1
  419014:	04810004 	bgez	$a0,419028 <__ll_rshift+0x50>
  419018:	afab0004 	sw	$t3,4($sp)
  41901c:	240cffff 	li	$t4,-1
  419020:	10000015 	b	419078 <__ll_rshift+0xa0>
  419024:	afac0000 	sw	$t4,0($sp)
  419028:	10000013 	b	419078 <__ll_rshift+0xa0>
  41902c:	afa00000 	sw	$zero,0($sp)
  419030:	8fad000c 	lw	$t5,12($sp)
  419034:	8fa20018 	lw	$v0,24($sp)
  419038:	11a0000c 	beqz	$t5,41906c <__ll_rshift+0x94>
  41903c:	000dc823 	negu	$t9,$t5
  419040:	8fae0014 	lw	$t6,20($sp)
  419044:	8fb80010 	lw	$t8,16($sp)
  419048:	8fab0010 	lw	$t3,16($sp)
  41904c:	8faa000c 	lw	$t2,12($sp)
  419050:	01ae7806 	srlv	$t7,$t6,$t5
  419054:	03384004 	sllv	$t0,$t8,$t9
  419058:	01e84825 	or	$t1,$t7,$t0
  41905c:	014b6007 	srav	$t4,$t3,$t2
  419060:	afa90004 	sw	$t1,4($sp)
  419064:	10000004 	b	419078 <__ll_rshift+0xa0>
  419068:	afac0000 	sw	$t4,0($sp)
  41906c:	8fa3001c 	lw	$v1,28($sp)
  419070:	10000004 	b	419084 <__ll_rshift+0xac>
  419074:	00000000 	nop
  419078:	8fa20000 	lw	$v0,0($sp)
  41907c:	8fa30004 	lw	$v1,4($sp)
  419080:	00000000 	nop
  419084:	03e00008 	jr	$ra
  419088:	27bd0018 	addiu	$sp,$sp,24
  41908c:	00000000 	nop

00419090 <_r4kup_setlock>:
  419090:	848d0012 	lh	$t5,18($a0)
  419094:	848c0010 	lh	$t4,16($a0)
  419098:	15a0002a 	bnez	$t5,419144 <_r4kup_setlock+0xb4>
  41909c:	00000000 	nop
  4190a0:	c085000c 	lwc0	$5,12($a0)
  4190a4:	3c020001 	lui	$v0,0x1
  4190a8:	00057c02 	srl	$t7,$a1,0x10
  4190ac:	11ec0003 	beq	$t7,$t4,4190bc <_r4kup_setlock+0x2c>
  4190b0:	30aeffff 	andi	$t6,$a1,0xffff
  4190b4:	10000002 	b	4190c0 <_r4kup_setlock+0x30>
  4190b8:	00453021 	addu	$a2,$v0,$a1
  4190bc:	01c03025 	move	$a2,$t6
  4190c0:	e086000c 	swc0	$6,12($a0)
  4190c4:	10c0fff6 	beqz	$a2,4190a0 <_r4kup_setlock+0x10>
  4190c8:	00000000 	nop
  4190cc:	15ee0003 	bne	$t7,$t6,4190dc <_r4kup_setlock+0x4c>
  4190d0:	00000000 	nop
  4190d4:	03e00008 	jr	$ra
  4190d8:	24020001 	li	$v0,1
  4190dc:	3c0a0020 	lui	$t2,0x20
  4190e0:	8d460e00 	lw	$a2,3584($t2)
  4190e4:	000f1080 	sll	$v0,$t7,0x2
  4190e8:	00825821 	addu	$t3,$a0,$v0
  4190ec:	c165001c 	lwc0	$5,28($t3)
  4190f0:	00c06825 	move	$t5,$a2
  4190f4:	e16d001c 	swc0	$13,28($t3)
  4190f8:	11a0fffc 	beqz	$t5,4190ec <_r4kup_setlock+0x5c>
  4190fc:	24030001 	li	$v1,1
  419100:	10a3000c 	beq	$a1,$v1,419134 <_r4kup_setlock+0xa4>
  419104:	00000000 	nop
  419108:	27bdffe0 	addiu	$sp,$sp,-32
  41910c:	afbf001c 	sw	$ra,28($sp)
  419110:	3c070042 	lui	$a3,0x42
  419114:	8c840000 	lw	$a0,0($a0)
  419118:	00002825 	move	$a1,$zero
  41911c:	00c03025 	move	$a2,$a2
  419120:	0c10293a 	jal	40a4e8 <_usblock>
  419124:	24e7d9c0 	addiu	$a3,$a3,-9792
  419128:	8fbf001c 	lw	$ra,28($sp)
  41912c:	14400003 	bnez	$v0,41913c <_r4kup_setlock+0xac>
  419130:	27bd0020 	addiu	$sp,$sp,32
  419134:	03e00008 	jr	$ra
  419138:	24020001 	li	$v0,1
  41913c:	03e00008 	jr	$ra
  419140:	2402ffff 	li	$v0,-1
  419144:	3c190041 	lui	$t9,0x41
  419148:	273980a0 	addiu	$t9,$t9,-32608
  41914c:	03200008 	jr	$t9
  419150:	03e02825 	move	$a1,$ra

00419154 <_r4kup_csetlock>:
  419154:	848d0012 	lh	$t5,18($a0)
  419158:	848c0010 	lh	$t4,16($a0)
  41915c:	15a00018 	bnez	$t5,4191c0 <_r4kup_csetlock+0x6c>
  419160:	00000000 	nop
  419164:	10a00014 	beqz	$a1,4191b8 <_r4kup_csetlock+0x64>
  419168:	00000000 	nop
  41916c:	c087000c 	lwc0	$7,12($a0)
  419170:	3c020001 	lui	$v0,0x1
  419174:	00077c02 	srl	$t7,$a3,0x10
  419178:	30eeffff 	andi	$t6,$a3,0xffff
  41917c:	15ee000b 	bne	$t7,$t6,4191ac <_r4kup_csetlock+0x58>
  419180:	00000000 	nop
  419184:	11ec0003 	beq	$t7,$t4,419194 <_r4kup_csetlock+0x40>
  419188:	00000000 	nop
  41918c:	10000002 	b	419198 <_r4kup_csetlock+0x44>
  419190:	00473021 	addu	$a2,$v0,$a3
  419194:	01c03025 	move	$a2,$t6
  419198:	e086000c 	swc0	$6,12($a0)
  41919c:	10c0fff3 	beqz	$a2,41916c <_r4kup_csetlock+0x18>
  4191a0:	00000000 	nop
  4191a4:	03e00008 	jr	$ra
  4191a8:	24020001 	li	$v0,1
  4191ac:	24a5ffff 	addiu	$a1,$a1,-1
  4191b0:	14a0ffee 	bnez	$a1,41916c <_r4kup_csetlock+0x18>
  4191b4:	00000000 	nop
  4191b8:	03e00008 	jr	$ra
  4191bc:	00001025 	move	$v0,$zero
  4191c0:	3c190041 	lui	$t9,0x41
  4191c4:	27398490 	addiu	$t9,$t9,-31600
  4191c8:	03200008 	jr	$t9
  4191cc:	03e03025 	move	$a2,$ra

004191d0 <_r4kup_unsetlock>:
  4191d0:	848b0012 	lh	$t3,18($a0)
  4191d4:	848c0010 	lh	$t4,16($a0)
  4191d8:	15600037 	bnez	$t3,4192b8 <_r4kup_unsetlock+0xe8>
  4191dc:	8c85000c 	lw	$a1,12($a0)
  4191e0:	00000000 	nop
  4191e4:	30aeffff 	andi	$t6,$a1,0xffff
  4191e8:	000e1080 	sll	$v0,$t6,0x2
  4191ec:	00826821 	addu	$t5,$a0,$v0
  4191f0:	ada0001c 	sw	$zero,28($t5)
  4191f4:	c085000c 	lwc0	$5,12($a0)
  4191f8:	3c03ffff 	lui	$v1,0xffff
  4191fc:	30aeffff 	andi	$t6,$a1,0xffff
  419200:	00057c02 	srl	$t7,$a1,0x10
  419204:	11cf000c 	beq	$t6,$t7,419238 <_r4kup_unsetlock+0x68>
  419208:	00000000 	nop
  41920c:	11cc0003 	beq	$t6,$t4,41921c <_r4kup_unsetlock+0x4c>
  419210:	25d80001 	addiu	$t8,$t6,1
  419214:	10000003 	b	419224 <_r4kup_unsetlock+0x54>
  419218:	24a60001 	addiu	$a2,$a1,1
  41921c:	0000c025 	move	$t8,$zero
  419220:	00a33024 	and	$a2,$a1,$v1
  419224:	e086000c 	swc0	$6,12($a0)
  419228:	10c0fff2 	beqz	$a2,4191f4 <_r4kup_unsetlock+0x24>
  41922c:	00000000 	nop
  419230:	15f80003 	bne	$t7,$t8,419240 <_r4kup_unsetlock+0x70>
  419234:	00000000 	nop
  419238:	03e00008 	jr	$ra
  41923c:	00001025 	move	$v0,$zero
  419240:	24060001 	li	$a2,1
  419244:	00181080 	sll	$v0,$t8,0x2
  419248:	00825821 	addu	$t3,$a0,$v0
  41924c:	c16a001c 	lwc0	$10,28($t3)
  419250:	00c04025 	move	$t0,$a2
  419254:	e166001c 	swc0	$6,28($t3)
  419258:	10c0fffc 	beqz	$a2,41924c <_r4kup_unsetlock+0x7c>
  41925c:	2d430002 	sltiu	$v1,$t2,2
  419260:	1460000e 	bnez	$v1,41929c <_r4kup_unsetlock+0xcc>
  419264:	00000000 	nop
  419268:	27bdffe0 	addiu	$sp,$sp,-32
  41926c:	afbf001c 	sw	$ra,28($sp)
  419270:	afa40014 	sw	$a0,20($sp)
  419274:	3c070042 	lui	$a3,0x42
  419278:	8c840000 	lw	$a0,0($a0)
  41927c:	00002825 	move	$a1,$zero
  419280:	01403025 	move	$a2,$t2
  419284:	0c10298e 	jal	40a638 <_usunblock>
  419288:	24e7d9ca 	addiu	$a3,$a3,-9782
  41928c:	8fa40014 	lw	$a0,20($sp)
  419290:	8fbf001c 	lw	$ra,28($sp)
  419294:	14400003 	bnez	$v0,4192a4 <_r4kup_unsetlock+0xd4>
  419298:	27bd0020 	addiu	$sp,$sp,32
  41929c:	03e00008 	jr	$ra
  4192a0:	00001025 	move	$v0,$zero
  4192a4:	24010001 	li	$at,1
  4192a8:	1041ffd2 	beq	$v0,$at,4191f4 <_r4kup_unsetlock+0x24>
  4192ac:	848c0010 	lh	$t4,16($a0)
  4192b0:	03e00008 	jr	$ra
  4192b4:	00000000 	nop
  4192b8:	3c190041 	lui	$t9,0x41
  4192bc:	273982b0 	addiu	$t9,$t9,-32080
  4192c0:	03200008 	jr	$t9
  4192c4:	03e02825 	move	$a1,$ra

004192c8 <_r4k_cas>:
  4192c8:	c0880000 	lwc0	$8,0($a0)
  4192cc:	00000000 	nop
  4192d0:	15050003 	bne	$t0,$a1,4192e0 <_r4k_cas+0x18>
  4192d4:	00c01025 	move	$v0,$a2
  4192d8:	03e00008 	jr	$ra
  4192dc:	e0820000 	swc0	$2,0($a0)
  4192e0:	03e00008 	jr	$ra
  4192e4:	00001025 	move	$v0,$zero

004192e8 <_r4kmp_grablock>:
  4192e8:	c0820008 	lwc0	$2,8($a0)
  4192ec:	14400004 	bnez	$v0,419300 <_r4kmp_grablock+0x18>
  4192f0:	24080001 	li	$t0,1
  4192f4:	e0880008 	swc0	$8,8($a0)
  4192f8:	1100fffb 	beqz	$t0,4192e8 <_r4kmp_grablock>
  4192fc:	00001025 	move	$v0,$zero
  419300:	03e00008 	jr	$ra
  419304:	00000000 	nop

00419308 <_r4kmp_rellock>:
  419308:	03e00008 	jr	$ra
  41930c:	ac800008 	sw	$zero,8($a0)

00419310 <_r4kmp_wsetlock>:
  419310:	84880012 	lh	$t0,18($a0)
  419314:	00000000 	nop
  419318:	15000018 	bnez	$t0,41937c <_r4kmp_wsetlock+0x6c>
  41931c:	00a05025 	move	$t2,$a1
  419320:	c08b0008 	lwc0	$11,8($a0)
  419324:	240c0001 	li	$t4,1
  419328:	55600006 	0x55600006
  41932c:	254affff 	addiu	$t2,$t2,-1
  419330:	e08c0008 	swc0	$12,8($a0)
  419334:	1180fffa 	beqz	$t4,419320 <_r4kmp_wsetlock+0x10>
  419338:	00000000 	nop
  41933c:	03e00008 	jr	$ra
  419340:	24020001 	li	$v0,1
  419344:	1d40fff6 	bgtz	$t2,419320 <_r4kmp_wsetlock+0x10>
  419348:	00000000 	nop
  41934c:	27bdffe0 	addiu	$sp,$sp,-32
  419350:	afbf001c 	sw	$ra,28($sp)
  419354:	afa40014 	sw	$a0,20($sp)
  419358:	afa50010 	sw	$a1,16($sp)
  41935c:	0c1032ec 	jal	40cbb0 <_sginap>
  419360:	00002025 	move	$a0,$zero
  419364:	8fa50010 	lw	$a1,16($sp)
  419368:	8fa40014 	lw	$a0,20($sp)
  41936c:	8fbf001c 	lw	$ra,28($sp)
  419370:	27bd0020 	addiu	$sp,$sp,32
  419374:	1000ffea 	b	419320 <_r4kmp_wsetlock+0x10>
  419378:	00a05025 	move	$t2,$a1
  41937c:	3c190041 	lui	$t9,0x41
  419380:	2739b918 	addiu	$t9,$t9,-18152
  419384:	03200008 	jr	$t9
  419388:	03e03025 	move	$a2,$ra

0041938c <_r4kmp_setlock>:
  41938c:	84880012 	lh	$t0,18($a0)
  419390:	3c090042 	lui	$t1,0x42
  419394:	8d29dac0 	lw	$t1,-9536($t1)
  419398:	3c0a0042 	lui	$t2,0x42
  41939c:	8d4adac4 	lw	$t2,-9532($t2)
  4193a0:	1500001f 	bnez	$t0,419420 <_r4kmp_setlock+0x94>
  4193a4:	00000000 	nop
  4193a8:	c08b0008 	lwc0	$11,8($a0)
  4193ac:	240c0001 	li	$t4,1
  4193b0:	55600006 	0x55600006
  4193b4:	2529ffff 	addiu	$t1,$t1,-1
  4193b8:	e08c0008 	swc0	$12,8($a0)
  4193bc:	11800003 	beqz	$t4,4193cc <_r4kmp_setlock+0x40>
  4193c0:	2529ffff 	addiu	$t1,$t1,-1
  4193c4:	03e00008 	jr	$ra
  4193c8:	24020001 	li	$v0,1
  4193cc:	1d20fff6 	bgtz	$t1,4193a8 <_r4kmp_setlock+0x1c>
  4193d0:	00000000 	nop
  4193d4:	254affff 	addiu	$t2,$t2,-1
  4193d8:	1d400004 	bgtz	$t2,4193ec <_r4kmp_setlock+0x60>
  4193dc:	240d0000 	li	$t5,0
  4193e0:	240d0001 	li	$t5,1
  4193e4:	3c0a0042 	lui	$t2,0x42
  4193e8:	8d4adac4 	lw	$t2,-9532($t2)
  4193ec:	27bdffe0 	addiu	$sp,$sp,-32
  4193f0:	afbf001c 	sw	$ra,28($sp)
  4193f4:	afa40014 	sw	$a0,20($sp)
  4193f8:	afaa0010 	sw	$t2,16($sp)
  4193fc:	0c1032ec 	jal	40cbb0 <_sginap>
  419400:	01a02025 	move	$a0,$t5
  419404:	8faa0010 	lw	$t2,16($sp)
  419408:	8fa40014 	lw	$a0,20($sp)
  41940c:	8fbf001c 	lw	$ra,28($sp)
  419410:	3c090042 	lui	$t1,0x42
  419414:	27bd0020 	addiu	$sp,$sp,32
  419418:	1000ffe3 	b	4193a8 <_r4kmp_setlock+0x1c>
  41941c:	8d29dac0 	lw	$t1,-9536($t1)
  419420:	3c190041 	lui	$t9,0x41
  419424:	2739bb44 	addiu	$t9,$t9,-17596
  419428:	03200008 	jr	$t9
  41942c:	03e02825 	move	$a1,$ra

00419430 <_r4kmp_csetlock>:
  419430:	84880012 	lh	$t0,18($a0)
  419434:	00000000 	nop
  419438:	1500000e 	bnez	$t0,419474 <_r4kmp_csetlock+0x44>
  41943c:	00000000 	nop
  419440:	c08b0008 	lwc0	$11,8($a0)
  419444:	240c0001 	li	$t4,1
  419448:	55600006 	0x55600006
  41944c:	24a5ffff 	addiu	$a1,$a1,-1
  419450:	e08c0008 	swc0	$12,8($a0)
  419454:	1180fffa 	beqz	$t4,419440 <_r4kmp_csetlock+0x10>
  419458:	00000000 	nop
  41945c:	03e00008 	jr	$ra
  419460:	24020001 	li	$v0,1
  419464:	1ca0fff6 	bgtz	$a1,419440 <_r4kmp_csetlock+0x10>
  419468:	24020000 	li	$v0,0
  41946c:	03e00008 	jr	$ra
  419470:	00000000 	nop
  419474:	3c190041 	lui	$t9,0x41
  419478:	2739bac4 	addiu	$t9,$t9,-17724
  41947c:	03200008 	jr	$t9
  419480:	03e03025 	move	$a2,$ra

00419484 <_r4kmp_unsetlock>:
  419484:	84880012 	lh	$t0,18($a0)
  419488:	00001025 	move	$v0,$zero
  41948c:	15000003 	bnez	$t0,41949c <_r4kmp_unsetlock+0x18>
  419490:	00000000 	nop
  419494:	03e00008 	jr	$ra
  419498:	ac800008 	sw	$zero,8($a0)
  41949c:	3c190041 	lui	$t9,0x41
  4194a0:	2739bc48 	addiu	$t9,$t9,-17336
  4194a4:	03200008 	jr	$t9
  4194a8:	03e02825 	move	$a1,$ra

004194ac <_r4kmpllwar_grablock>:
  4194ac:	c0820000 	lwc0	$2,0($a0)
  4194b0:	00000000 	nop
  4194b4:	14400009 	bnez	$v0,4194dc <_r4kmpllwar_grablock+0x30>
  4194b8:	00a04025 	move	$t0,$a1
  4194bc:	e0880000 	swc0	$8,0($a0)
  4194c0:	15000004 	bnez	$t0,4194d4 <_r4kmpllwar_grablock+0x28>
  4194c4:	8c820000 	lw	$v0,0($a0)
  4194c8:	00000000 	nop
  4194cc:	1445fff7 	bne	$v0,$a1,4194ac <_r4kmpllwar_grablock>
  4194d0:	00000000 	nop
  4194d4:	03e00008 	jr	$ra
	...
  41951c:	1000ffe3 	b	4194ac <_r4kmpllwar_grablock>
	...

00419530 <_getpid>:
  419530:	240203fc 	li	$v0,1020
  419534:	0000000c 	syscall
  419538:	14e00003 	bnez	$a3,419548 <_getpid+0x18>
  41953c:	00000000 	nop
  419540:	03e00008 	jr	$ra
  419544:	00000000 	nop
  419548:	3c190040 	lui	$t9,0x40
  41954c:	273965c0 	addiu	$t9,$t9,26048
  419550:	03200008 	jr	$t9
	...

00419560 <_kill>:
  419560:	2402040d 	li	$v0,1037
  419564:	0000000c 	syscall
  419568:	14e00004 	bnez	$a3,41957c <_kill+0x1c>
  41956c:	00000000 	nop
  419570:	00001025 	move	$v0,$zero
  419574:	03e00008 	jr	$ra
  419578:	00000000 	nop
  41957c:	3c190040 	lui	$t9,0x40
  419580:	273965c0 	addiu	$t9,$t9,26048
  419584:	03200008 	jr	$t9
	...

00419590 <_sigaction>:
  419590:	27bdffe8 	addiu	$sp,$sp,-24
  419594:	afbf0014 	sw	$ra,20($sp)
  419598:	3c070042 	lui	$a3,0x42
  41959c:	0c106718 	jal	419c60 <_ksigaction>
  4195a0:	24e79c90 	addiu	$a3,$a3,-25456
  4195a4:	8fbf0014 	lw	$ra,20($sp)
  4195a8:	27bd0018 	addiu	$sp,$sp,24
  4195ac:	03e00008 	jr	$ra
	...

004195c0 <__sigfillset>:
  4195c0:	2402ffff 	li	$v0,-1
  4195c4:	ac820000 	sw	$v0,0($a0)
  4195c8:	ac820004 	sw	$v0,4($a0)
  4195cc:	ac800008 	sw	$zero,8($a0)
  4195d0:	03e00008 	jr	$ra
  4195d4:	ac80000c 	sw	$zero,12($a0)
	...

004195e0 <_xstat>:
  4195e0:	24020486 	li	$v0,1158
  4195e4:	0000000c 	syscall
  4195e8:	14e00004 	bnez	$a3,4195fc <_xstat+0x1c>
  4195ec:	00000000 	nop
  4195f0:	00001025 	move	$v0,$zero
  4195f4:	03e00008 	jr	$ra
  4195f8:	00000000 	nop
  4195fc:	3c190040 	lui	$t9,0x40
  419600:	273965c0 	addiu	$t9,$t9,26048
  419604:	03200008 	jr	$t9
	...

00419610 <_syssgi>:
  419610:	24020410 	li	$v0,1040
  419614:	0000000c 	syscall
  419618:	14e00003 	bnez	$a3,419628 <_syssgi+0x18>
  41961c:	00000000 	nop
  419620:	03e00008 	jr	$ra
  419624:	00000000 	nop
  419628:	3c190040 	lui	$t9,0x40
  41962c:	273965c0 	addiu	$t9,$t9,26048
  419630:	03200008 	jr	$t9
	...

00419640 <_getdtablesize>:
  419640:	27bdffe8 	addiu	$sp,$sp,-24
  419644:	afbf0014 	sw	$ra,20($sp)
  419648:	24040004 	li	$a0,4
  41964c:	0c106738 	jal	419ce0 <_ulimit>
  419650:	00002825 	move	$a1,$zero
  419654:	8fbf0014 	lw	$ra,20($sp)
  419658:	27bd0018 	addiu	$sp,$sp,24
  41965c:	03e00008 	jr	$ra
	...

00419670 <_dtoa>:
  419670:	27bdffe0 	addiu	$sp,$sp,-32
  419674:	afbf001c 	sw	$ra,28($sp)
  419678:	04c10002 	bgez	$a2,419684 <_dtoa+0x14>
  41967c:	24090020 	li	$t1,32
  419680:	2409002d 	li	$t1,45
  419684:	00066840 	sll	$t5,$a2,0x1
  419688:	000747c2 	srl	$t0,$a3,0x1f
  41968c:	01a86825 	or	$t5,$t5,$t0
  419690:	a0890000 	sb	$t1,0($a0)
  419694:	3c017fe0 	lui	$at,0x7fe0
  419698:	01a14823 	subu	$t1,$t5,$at
  41969c:	00076040 	sll	$t4,$a3,0x1
  4196a0:	24840001 	addiu	$a0,$a0,1
  4196a4:	05210002 	bgez	$t1,4196b0 <_dtoa+0x40>
  4196a8:	240a0268 	li	$t2,616
  4196ac:	254a0001 	addiu	$t2,$t2,1
  4196b0:	000dc542 	srl	$t8,$t5,0x15
  4196b4:	13000098 	beqz	$t8,419918 <_dtoa+0x2a8>
  4196b8:	012a0018 	mult	$t1,$t2
  4196bc:	240107ff 	li	$at,2047
  4196c0:	130100b6 	beq	$t8,$at,41999c <_dtoa+0x32c>
  4196c4:	00000000 	nop
  4196c8:	000d6ac0 	sll	$t5,$t5,0xb
  4196cc:	00001010 	mfhi	$v0
  4196d0:	000d6ac2 	srl	$t5,$t5,0xb
  4196d4:	3c010020 	lui	$at,0x20
  4196d8:	01a16825 	or	$t5,$t5,$at
  4196dc:	0c106744 	jal	419d10 <_tenscale>
  4196e0:	00024022 	neg	$t0,$v0
  4196e4:	2718fbed 	addiu	$t8,$t8,-1043
  4196e8:	0303c021 	addu	$t8,$t8,$v1
  4196ec:	0018c022 	neg	$t8,$t8
  4196f0:	8fac0030 	lw	$t4,48($sp)
  4196f4:	030b3006 	srlv	$a2,$t3,$t8
  4196f8:	03063804 	sllv	$a3,$a2,$t8
  4196fc:	1180001b 	beqz	$t4,41976c <_dtoa+0xfc>
  419700:	01675823 	subu	$t3,$t3,$a3
  419704:	2ccc000a 	sltiu	$t4,$a2,10
  419708:	01826023 	subu	$t4,$t4,$v0
  41970c:	00ac2823 	subu	$a1,$a1,$t4
  419710:	24a50002 	addiu	$a1,$a1,2
  419714:	1ca00011 	bgtz	$a1,41975c <_dtoa+0xec>
  419718:	2cc1000a 	sltiu	$at,$a2,10
  41971c:	14200005 	bnez	$at,419734 <_dtoa+0xc4>
  419720:	2401000a 	li	$at,10
  419724:	00c1001b 	divu	$zero,$a2,$at
  419728:	00003012 	mflo	$a2
	...
  419734:	24c60030 	addiu	$a2,$a2,48
  419738:	2cc10035 	sltiu	$at,$a2,53
  41973c:	a0860000 	sb	$a2,0($a0)
  419740:	24840001 	addiu	$a0,$a0,1
  419744:	14200053 	bnez	$at,419894 <_dtoa+0x224>
  419748:	a0800000 	sb	$zero,0($a0)
  41974c:	24060039 	li	$a2,57
  419750:	2489ffff 	addiu	$t1,$a0,-1
  419754:	10000054 	b	4198a8 <_dtoa+0x238>
  419758:	a1260000 	sb	$a2,0($t1)
  41975c:	28a10012 	slti	$at,$a1,18
  419760:	14200003 	bnez	$at,419770 <_dtoa+0x100>
  419764:	00a42821 	addu	$a1,$a1,$a0
  419768:	24050011 	li	$a1,17
  41976c:	00a42821 	addu	$a1,$a1,$a0
  419770:	2cc1000a 	sltiu	$at,$a2,10
  419774:	14200010 	bnez	$at,4197b8 <_dtoa+0x148>
  419778:	2401000a 	li	$at,10
  41977c:	00c1001b 	divu	$zero,$a2,$at
  419780:	24840001 	addiu	$a0,$a0,1
  419784:	24420001 	addiu	$v0,$v0,1
  419788:	00003812 	mflo	$a3
  41978c:	00003010 	mfhi	$a2
  419790:	24e70030 	addiu	$a3,$a3,48
  419794:	14850008 	bne	$a0,$a1,4197b8 <_dtoa+0x148>
  419798:	a087ffff 	sb	$a3,-1($a0)
  41979c:	2cc10005 	sltiu	$at,$a2,5
  4197a0:	1420003c 	bnez	$at,419894 <_dtoa+0x224>
  4197a4:	2cc10006 	sltiu	$at,$a2,6
  4197a8:	1020003f 	beqz	$at,4198a8 <_dtoa+0x238>
  4197ac:	00000000 	nop
  4197b0:	1000002e 	b	41986c <_dtoa+0x1fc>
  4197b4:	00000000 	nop
  4197b8:	24c60030 	addiu	$a2,$a2,48
  4197bc:	24840001 	addiu	$a0,$a0,1
  4197c0:	10850026 	beq	$a0,$a1,41985c <_dtoa+0x1ec>
  4197c4:	a086ffff 	sb	$a2,-1($a0)
  4197c8:	00086880 	sll	$t5,$t0,0x2
  4197cc:	01a07027 	nor	$t6,$t5,$zero
  4197d0:	00087f82 	srl	$t7,$t0,0x1e
  4197d4:	01c8702b 	sltu	$t6,$t6,$t0
  4197d8:	010d4021 	addu	$t0,$t0,$t5
  4197dc:	01ee6021 	addu	$t4,$t7,$t6
  4197e0:	00096880 	sll	$t5,$t1,0x2
  4197e4:	01a07027 	nor	$t6,$t5,$zero
  4197e8:	01c9702b 	sltu	$t6,$t6,$t1
  4197ec:	00097f82 	srl	$t7,$t1,0x1e
  4197f0:	01ee7821 	addu	$t7,$t7,$t6
  4197f4:	012d4821 	addu	$t1,$t1,$t5
  4197f8:	01807027 	nor	$t6,$t4,$zero
  4197fc:	01c9702b 	sltu	$t6,$t6,$t1
  419800:	012c4821 	addu	$t1,$t1,$t4
  419804:	01ee6021 	addu	$t4,$t7,$t6
  419808:	000a6880 	sll	$t5,$t2,0x2
  41980c:	01a07027 	nor	$t6,$t5,$zero
  419810:	000a7f82 	srl	$t7,$t2,0x1e
  419814:	01ca702b 	sltu	$t6,$t6,$t2
  419818:	014d5021 	addu	$t2,$t2,$t5
  41981c:	01ee7821 	addu	$t7,$t7,$t6
  419820:	01807027 	nor	$t6,$t4,$zero
  419824:	01ca702b 	sltu	$t6,$t6,$t2
  419828:	014c5021 	addu	$t2,$t2,$t4
  41982c:	000b6880 	sll	$t5,$t3,0x2
  419830:	01ee6021 	addu	$t4,$t7,$t6
  419834:	016d5821 	addu	$t3,$t3,$t5
  419838:	016c5821 	addu	$t3,$t3,$t4
  41983c:	2718ffff 	addiu	$t8,$t8,-1
  419840:	030b3006 	srlv	$a2,$t3,$t8
  419844:	03063804 	sllv	$a3,$a2,$t8
  419848:	24c60030 	addiu	$a2,$a2,48
  41984c:	24840001 	addiu	$a0,$a0,1
  419850:	01675823 	subu	$t3,$t3,$a3
  419854:	1485ffdc 	bne	$a0,$a1,4197c8 <_dtoa+0x158>
  419858:	a086ffff 	sb	$a2,-1($a0)
  41985c:	2718ffff 	addiu	$t8,$t8,-1
  419860:	030b3806 	srlv	$a3,$t3,$t8
  419864:	10e0000b 	beqz	$a3,419894 <_dtoa+0x224>
  419868:	00000000 	nop
  41986c:	1540000e 	bnez	$t2,4198a8 <_dtoa+0x238>
  419870:	00000000 	nop
  419874:	1520000c 	bnez	$t1,4198a8 <_dtoa+0x238>
  419878:	2567ffff 	addiu	$a3,$t3,-1
  41987c:	1500000a 	bnez	$t0,4198a8 <_dtoa+0x238>
  419880:	00eb3824 	and	$a3,$a3,$t3
  419884:	14e00008 	bnez	$a3,4198a8 <_dtoa+0x238>
  419888:	30c60001 	andi	$a2,$a2,0x1
  41988c:	14c00006 	bnez	$a2,4198a8 <_dtoa+0x238>
  419890:	00000000 	nop
  419894:	a0800000 	sb	$zero,0($a0)
  419898:	8fbf001c 	lw	$ra,28($sp)
  41989c:	27bd0020 	addiu	$sp,$sp,32
  4198a0:	03e00008 	jr	$ra
  4198a4:	00000000 	nop
  4198a8:	2489ffff 	addiu	$t1,$a0,-1
  4198ac:	91280000 	lbu	$t0,0($t1)
  4198b0:	00000000 	nop
  4198b4:	24010039 	li	$at,57
  4198b8:	1101000a 	beq	$t0,$at,4198e4 <_dtoa+0x274>
  4198bc:	00000000 	nop
  4198c0:	2d010030 	sltiu	$at,$t0,48
  4198c4:	1420000b 	bnez	$at,4198f4 <_dtoa+0x284>
  4198c8:	25080001 	addiu	$t0,$t0,1
  4198cc:	a1280000 	sb	$t0,0($t1)
  4198d0:	a0800000 	sb	$zero,0($a0)
  4198d4:	8fbf001c 	lw	$ra,28($sp)
  4198d8:	27bd0020 	addiu	$sp,$sp,32
  4198dc:	03e00008 	jr	$ra
  4198e0:	00000000 	nop
  4198e4:	24080030 	li	$t0,48
  4198e8:	a1280000 	sb	$t0,0($t1)
  4198ec:	1000ffef 	b	4198ac <_dtoa+0x23c>
  4198f0:	2529ffff 	addiu	$t1,$t1,-1
  4198f4:	24080031 	li	$t0,49
  4198f8:	a1280001 	sb	$t0,1($t1)
  4198fc:	24080030 	li	$t0,48
  419900:	a0880000 	sb	$t0,0($a0)
  419904:	a0800001 	sb	$zero,1($a0)
  419908:	8fbf001c 	lw	$ra,28($sp)
  41990c:	24420001 	addiu	$v0,$v0,1
  419910:	03e00008 	jr	$ra
  419914:	27bd0020 	addiu	$sp,$sp,32
  419918:	15a0000e 	bnez	$t5,419954 <_dtoa+0x2e4>
  41991c:	00000000 	nop
  419920:	1580000c 	bnez	$t4,419954 <_dtoa+0x2e4>
  419924:	00000000 	nop
  419928:	18a00005 	blez	$a1,419940 <_dtoa+0x2d0>
  41992c:	24080030 	li	$t0,48
  419930:	00a42821 	addu	$a1,$a1,$a0
  419934:	24840001 	addiu	$a0,$a0,1
  419938:	1485fffe 	bne	$a0,$a1,419934 <_dtoa+0x2c4>
  41993c:	a088ffff 	sb	$t0,-1($a0)
  419940:	a0800000 	sb	$zero,0($a0)
  419944:	8fbf001c 	lw	$ra,28($sp)
  419948:	24020000 	li	$v0,0
  41994c:	03e00008 	jr	$ra
  419950:	27bd0020 	addiu	$sp,$sp,32
  419954:	2418fc02 	li	$t8,-1022
  419958:	3c0a0020 	lui	$t2,0x20
  41995c:	000d6840 	sll	$t5,$t5,0x1
  419960:	000c47c2 	srl	$t0,$t4,0x1f
  419964:	01a86825 	or	$t5,$t5,$t0
  419968:	01aa4024 	and	$t0,$t5,$t2
  41996c:	2718ffff 	addiu	$t8,$t8,-1
  419970:	1100fffa 	beqz	$t0,41995c <_dtoa+0x2ec>
  419974:	000c6040 	sll	$t4,$t4,0x1
  419978:	00184d00 	sll	$t1,$t8,0x14
  41997c:	012d4821 	addu	$t1,$t1,$t5
  419980:	012a4823 	subu	$t1,$t1,$t2
  419984:	240a04d2 	li	$t2,1234
  419988:	012a0018 	mult	$t1,$t2
  41998c:	271803ff 	addiu	$t8,$t8,1023
  419990:	00001010 	mfhi	$v0
  419994:	1000ff51 	b	4196dc <_dtoa+0x6c>
  419998:	00000000 	nop
  41999c:	3c080042 	lui	$t0,0x42
  4199a0:	00a42821 	addu	$a1,$a1,$a0
  4199a4:	15800006 	bnez	$t4,4199c0 <_dtoa+0x350>
  4199a8:	2508d154 	addiu	$t0,$t0,-11948
  4199ac:	000d4ac0 	sll	$t1,$t5,0xb
  4199b0:	15200003 	bnez	$t1,4199c0 <_dtoa+0x350>
  4199b4:	00000000 	nop
  4199b8:	3c080042 	lui	$t0,0x42
  4199bc:	2508d150 	addiu	$t0,$t0,-11952
  4199c0:	91090000 	lbu	$t1,0($t0)
  4199c4:	24840001 	addiu	$a0,$a0,1
  4199c8:	11200003 	beqz	$t1,4199d8 <_dtoa+0x368>
  4199cc:	a089ffff 	sb	$t1,-1($a0)
  4199d0:	1485fffb 	bne	$a0,$a1,4199c0 <_dtoa+0x350>
  4199d4:	25080001 	addiu	$t0,$t0,1
  4199d8:	8fbf001c 	lw	$ra,28($sp)
  4199dc:	3c028000 	lui	$v0,0x8000
  4199e0:	03e00008 	jr	$ra
  4199e4:	27bd0020 	addiu	$sp,$sp,32
	...

004199f0 <__ull_divrem_6416>:
  4199f0:	8faa0014 	lw	$t2,20($sp)
  4199f4:	8fab0010 	lw	$t3,16($sp)
  4199f8:	00e04025 	move	$t0,$a3
  4199fc:	010a001b 	divu	$zero,$t0,$t2
  419a00:	00c04825 	move	$t1,$a2
  419a04:	1560002e 	bnez	$t3,419ac0 <__ull_divrem_6416+0xd0>
  419a08:	000867c3 	sra	$t4,$t0,0x1f
  419a0c:	15200009 	bnez	$t1,419a34 <__ull_divrem_6416+0x44>
  419a10:	000a6402 	srl	$t4,$t2,0x10
  419a14:	00001012 	mflo	$v0
  419a18:	00006010 	mfhi	$t4
  419a1c:	ac820004 	sw	$v0,4($a0)
  419a20:	ac800000 	sw	$zero,0($a0)
  419a24:	acac0004 	sw	$t4,4($a1)
  419a28:	03e00008 	jr	$ra
  419a2c:	aca00000 	sw	$zero,0($a1)
  419a30:	000a6402 	srl	$t4,$t2,0x10
  419a34:	15800023 	bnez	$t4,419ac4 <__ull_divrem_6416+0xd4>
  419a38:	8fa80010 	lw	$t0,16($sp)
  419a3c:	00c01025 	move	$v0,$a2
  419a40:	00021402 	srl	$v0,$v0,0x10
  419a44:	004a001b 	divu	$zero,$v0,$t2
  419a48:	00064400 	sll	$t0,$a2,0x10
  419a4c:	00084402 	srl	$t0,$t0,0x10
  419a50:	00001010 	mfhi	$v0
  419a54:	00001812 	mflo	$v1
  419a58:	00021400 	sll	$v0,$v0,0x10
  419a5c:	00481025 	or	$v0,$v0,$t0
  419a60:	004a001b 	divu	$zero,$v0,$t2
  419a64:	a4830000 	sh	$v1,0($a0)
  419a68:	00e04025 	move	$t0,$a3
  419a6c:	00084402 	srl	$t0,$t0,0x10
  419a70:	00001010 	mfhi	$v0
  419a74:	00001812 	mflo	$v1
  419a78:	00021400 	sll	$v0,$v0,0x10
  419a7c:	00481025 	or	$v0,$v0,$t0
  419a80:	004a001b 	divu	$zero,$v0,$t2
  419a84:	a4830002 	sh	$v1,2($a0)
  419a88:	00074400 	sll	$t0,$a3,0x10
  419a8c:	00084402 	srl	$t0,$t0,0x10
  419a90:	00001010 	mfhi	$v0
  419a94:	00001812 	mflo	$v1
  419a98:	00021400 	sll	$v0,$v0,0x10
  419a9c:	00481025 	or	$v0,$v0,$t0
  419aa0:	004a001b 	divu	$zero,$v0,$t2
  419aa4:	a4830004 	sh	$v1,4($a0)
  419aa8:	00001812 	mflo	$v1
  419aac:	00001010 	mfhi	$v0
  419ab0:	a4830006 	sh	$v1,6($a0)
  419ab4:	aca00000 	sw	$zero,0($a1)
  419ab8:	03e00008 	jr	$ra
  419abc:	aca20004 	sw	$v0,4($a1)
  419ac0:	8fa80010 	lw	$t0,16($sp)
  419ac4:	00000000 	nop
  419ac8:	0106082b 	sltu	$at,$t0,$a2
  419acc:	1420000d 	bnez	$at,419b04 <__ull_divrem_6416+0x114>
  419ad0:	00c8082b 	sltu	$at,$a2,$t0
  419ad4:	14200006 	bnez	$at,419af0 <__ull_divrem_6416+0x100>
  419ad8:	00000000 	nop
  419adc:	8fa80014 	lw	$t0,20($sp)
  419ae0:	00000000 	nop
  419ae4:	00e8082b 	sltu	$at,$a3,$t0
  419ae8:	10200006 	beqz	$at,419b04 <__ull_divrem_6416+0x114>
  419aec:	00000000 	nop
  419af0:	ac800004 	sw	$zero,4($a0)
  419af4:	ac800000 	sw	$zero,0($a0)
  419af8:	aca70004 	sw	$a3,4($a1)
  419afc:	03e00008 	jr	$ra
  419b00:	aca60000 	sw	$a2,0($a1)
  419b04:	0000000d 	break

00419b08 <__ull_divrem_5353>:
  419b08:	8faa0014 	lw	$t2,20($sp)
  419b0c:	8fab0010 	lw	$t3,16($sp)
  419b10:	00e04025 	move	$t0,$a3
  419b14:	00c04825 	move	$t1,$a2
  419b18:	4443f800 	cfc1	$v1,$31
  419b1c:	240d0001 	li	$t5,1
  419b20:	44cdf800 	ctc1	$t5,$31
  419b24:	44880000 	mtc1	$t0,$f0
  419b28:	44891000 	mtc1	$t1,$f2
  419b2c:	c7898b40 	lwc1	$f9,-29888($gp)
  419b30:	c7888b44 	lwc1	$f8,-29884($gp)
  419b34:	46800021 	cvt.d.w	$f0,$f0
  419b38:	05010002 	bgez	$t0,419b44 <__ull_divrem_5353+0x3c>
  419b3c:	468010a1 	cvt.d.w	$f2,$f2
  419b40:	46280000 	add.d	$f0,$f0,$f8
  419b44:	46281082 	mul.d	$f2,$f2,$f8
  419b48:	448a2000 	mtc1	$t2,$f4
  419b4c:	448b3000 	mtc1	$t3,$f6
  419b50:	46220000 	add.d	$f0,$f0,$f2
  419b54:	46802121 	cvt.d.w	$f4,$f4
  419b58:	05410002 	bgez	$t2,419b64 <__ull_divrem_5353+0x5c>
  419b5c:	468031a1 	cvt.d.w	$f6,$f6
  419b60:	46282100 	add.d	$f4,$f4,$f8
  419b64:	46283182 	mul.d	$f6,$f6,$f8
  419b68:	46262100 	add.d	$f4,$f4,$f6
  419b6c:	4459f800 	cfc1	$t9,$31
  419b70:	00000000 	nop
  419b74:	33390004 	andi	$t9,$t9,0x4
  419b78:	17200024 	bnez	$t9,419c0c <__ull_divrem_5353+0x104>
	...
  419b84:	46240083 	div.d	$f2,$f0,$f4
  419b88:	c7878b48 	lwc1	$f7,-29880($gp)
  419b8c:	c7868b4c 	lwc1	$f6,-29876($gp)
  419b90:	44191800 	mfc1	$t9,$f3
  419b94:	00000000 	nop
  419b98:	07210002 	bgez	$t9,419ba4 <__ull_divrem_5353+0x9c>
  419b9c:	00000000 	nop
  419ba0:	46203187 	neg.d	$f6,$f6
  419ba4:	46261080 	add.d	$f2,$f2,$f6
  419ba8:	3c01000f 	lui	$at,0xf
  419bac:	440c1000 	mfc1	$t4,$f2
  419bb0:	440d1800 	mfc1	$t5,$f3
  419bb4:	018a0019 	multu	$t4,$t2
  419bb8:	3421ffff 	ori	$at,$at,0xffff
  419bbc:	01a16824 	and	$t5,$t5,$at
  419bc0:	ac8d0000 	sw	$t5,0($a0)
  419bc4:	44c3f800 	ctc1	$v1,$31
  419bc8:	ac8c0004 	sw	$t4,4($a0)
  419bcc:	00007012 	mflo	$t6
  419bd0:	00007810 	mfhi	$t7
  419bd4:	010ec82b 	sltu	$t9,$t0,$t6
  419bd8:	010e7023 	subu	$t6,$t0,$t6
  419bdc:	018b0019 	multu	$t4,$t3
  419be0:	acae0004 	sw	$t6,4($a1)
  419be4:	0000c012 	mflo	$t8
  419be8:	01f87821 	addu	$t7,$t7,$t8
  419bec:	00000000 	nop
  419bf0:	01aa0019 	multu	$t5,$t2
  419bf4:	0000c012 	mflo	$t8
  419bf8:	01f87821 	addu	$t7,$t7,$t8
  419bfc:	012f7823 	subu	$t7,$t1,$t7
  419c00:	01f97823 	subu	$t7,$t7,$t9
  419c04:	03e00008 	jr	$ra
  419c08:	acaf0000 	sw	$t7,0($a1)
  419c0c:	8fa80010 	lw	$t0,16($sp)
  419c10:	00000000 	nop
  419c14:	0106082b 	sltu	$at,$t0,$a2
  419c18:	1420000d 	bnez	$at,419c50 <__ull_divrem_5353+0x148>
  419c1c:	00c8082b 	sltu	$at,$a2,$t0
  419c20:	14200006 	bnez	$at,419c3c <__ull_divrem_5353+0x134>
  419c24:	00000000 	nop
  419c28:	8fa80014 	lw	$t0,20($sp)
  419c2c:	00000000 	nop
  419c30:	00e8082b 	sltu	$at,$a3,$t0
  419c34:	10200006 	beqz	$at,419c50 <__ull_divrem_5353+0x148>
  419c38:	00000000 	nop
  419c3c:	ac800004 	sw	$zero,4($a0)
  419c40:	ac800000 	sw	$zero,0($a0)
  419c44:	aca70004 	sw	$a3,4($a1)
  419c48:	03e00008 	jr	$ra
  419c4c:	aca60000 	sw	$a2,0($a1)
  419c50:	0000000d 	break
	...

00419c60 <_ksigaction>:
  419c60:	2402048a 	li	$v0,1162
  419c64:	0000000c 	syscall
  419c68:	14e00003 	bnez	$a3,419c78 <_ksigaction+0x18>
  419c6c:	00000000 	nop
  419c70:	03e00008 	jr	$ra
  419c74:	00000000 	nop
  419c78:	3c190040 	lui	$t9,0x40
  419c7c:	273965c0 	addiu	$t9,$t9,26048
  419c80:	03200008 	jr	$t9
	...

00419c90 <_sigtramp>:
  419c90:	3c088000 	lui	$t0,0x8000
  419c94:	27bdffe8 	addiu	$sp,$sp,-24
  419c98:	00884024 	and	$t0,$a0,$t0
  419c9c:	11000005 	beqz	$t0,419cb4 <_sigtramp+0x24>
  419ca0:	afa60014 	sw	$a2,20($sp)
  419ca4:	01004027 	nor	$t0,$t0,$zero
  419ca8:	afa00010 	sw	$zero,16($sp)
  419cac:	10000002 	b	419cb8 <_sigtramp+0x28>
  419cb0:	00882024 	and	$a0,$a0,$t0
  419cb4:	afa60010 	sw	$a2,16($sp)
  419cb8:	00e0c825 	move	$t9,$a3
  419cbc:	0320f809 	jalr	$t9
  419cc0:	00000000 	nop
  419cc4:	8fa40010 	lw	$a0,16($sp)
  419cc8:	8fa50014 	lw	$a1,20($sp)
  419ccc:	00000000 	nop
  419cd0:	24020440 	li	$v0,1088
  419cd4:	0000000c 	syscall
	...

00419ce0 <_ulimit>:
  419ce0:	24020427 	li	$v0,1063
  419ce4:	0000000c 	syscall
  419ce8:	14e00003 	bnez	$a3,419cf8 <_ulimit+0x18>
  419cec:	00000000 	nop
  419cf0:	03e00008 	jr	$ra
  419cf4:	00000000 	nop
  419cf8:	3c190040 	lui	$t9,0x40
  419cfc:	273965c0 	addiu	$t9,$t9,26048
  419d00:	03200008 	jr	$t9
	...

00419d10 <_tenscale>:
  419d10:	27bdffd8 	addiu	$sp,$sp,-40
  419d14:	05000013 	bltz	$t0,419d64 <_tenscale+0x54>
  419d18:	afbf0024 	sw	$ra,36($sp)
  419d1c:	2508ffe5 	addiu	$t0,$t0,-27
  419d20:	1d000010 	bgtz	$t0,419d64 <_tenscale+0x54>
  419d24:	00000000 	nop
  419d28:	00084040 	sll	$t0,$t0,0x1
  419d2c:	3c030042 	lui	$v1,0x42
  419d30:	00681821 	addu	$v1,$v1,$t0
  419d34:	00084080 	sll	$t0,$t0,0x2
  419d38:	3c010042 	lui	$at,0x42
  419d3c:	00280821 	addu	$at,$at,$t0
  419d40:	8463d3ec 	lh	$v1,-11284($v1)
  419d44:	8c2ed2a0 	lw	$t6,-11616($at)
  419d48:	8c2fd2a4 	lw	$t7,-11612($at)
  419d4c:	04110049 	bal	419e74 <_tenscale+0x164>
  419d50:	00000000 	nop
  419d54:	8fbf0024 	lw	$ra,36($sp)
  419d58:	27bd0028 	addiu	$sp,$sp,40
  419d5c:	03e00008 	jr	$ra
  419d60:	00000000 	nop
  419d64:	00085903 	sra	$t3,$t0,0x4
  419d68:	000b5880 	sll	$t3,$t3,0x2
  419d6c:	3c010042 	lui	$at,0x42
  419d70:	002b0821 	addu	$at,$at,$t3
  419d74:	8c2bd350 	lw	$t3,-11440($at)
  419d78:	00085040 	sll	$t2,$t0,0x1
  419d7c:	014b5804 	sllv	$t3,$t3,$t2
  419d80:	000b5f83 	sra	$t3,$t3,0x1e
  419d84:	afac001c 	sw	$t4,28($sp)
  419d88:	afad0018 	sw	$t5,24($sp)
  419d8c:	05000033 	bltz	$t0,419e5c <_tenscale+0x14c>
  419d90:	afab0014 	sw	$t3,20($sp)
  419d94:	24090034 	li	$t1,52
  419d98:	2508ffe4 	addiu	$t0,$t0,-28
  419d9c:	0501fffe 	bgez	$t0,419d98 <_tenscale+0x88>
  419da0:	25290002 	addiu	$t1,$t1,2
  419da4:	3c030042 	lui	$v1,0x42
  419da8:	00084040 	sll	$t0,$t0,0x1
  419dac:	3c0a0042 	lui	$t2,0x42
  419db0:	00691821 	addu	$v1,$v1,$t1
  419db4:	01485021 	addu	$t2,$t2,$t0
  419db8:	00094880 	sll	$t1,$t1,0x2
  419dbc:	00084080 	sll	$t0,$t0,0x2
  419dc0:	8463d3b6 	lh	$v1,-11338($v1)
  419dc4:	854ad3ee 	lh	$t2,-11282($t2)
  419dc8:	3c0e0042 	lui	$t6,0x42
  419dcc:	3c0f0042 	lui	$t7,0x42
  419dd0:	3c0c0042 	lui	$t4,0x42
  419dd4:	3c0d0042 	lui	$t5,0x42
  419dd8:	01c97021 	addu	$t6,$t6,$t1
  419ddc:	01e97821 	addu	$t7,$t7,$t1
  419de0:	01886021 	addu	$t4,$t4,$t0
  419de4:	01a86821 	addu	$t5,$t5,$t0
  419de8:	8dced1c8 	lw	$t6,-11832($t6)
  419dec:	8defd1cc 	lw	$t7,-11828($t7)
  419df0:	8d8cd2a8 	lw	$t4,-11608($t4)
  419df4:	8dadd2ac 	lw	$t5,-11604($t5)
  419df8:	006a1821 	addu	$v1,$v1,$t2
  419dfc:	0411001d 	bal	419e74 <_tenscale+0x164>
  419e00:	24630001 	addiu	$v1,$v1,1
  419e04:	0560000a 	bltz	$t3,419e30 <_tenscale+0x120>
  419e08:	8fa80014 	lw	$t0,20($sp)
  419e0c:	000b5840 	sll	$t3,$t3,0x1
  419e10:	000a47c2 	srl	$t0,$t2,0x1f
  419e14:	01685825 	or	$t3,$t3,$t0
  419e18:	000947c2 	srl	$t0,$t1,0x1f
  419e1c:	000a5040 	sll	$t2,$t2,0x1
  419e20:	01485025 	or	$t2,$t2,$t0
  419e24:	00094840 	sll	$t1,$t1,0x1
  419e28:	2463ffff 	addiu	$v1,$v1,-1
  419e2c:	8fa80014 	lw	$t0,20($sp)
  419e30:	00094fc2 	srl	$t1,$t1,0x1f
  419e34:	01497021 	addu	$t6,$t2,$t1
  419e38:	8fac001c 	lw	$t4,28($sp)
  419e3c:	8fad0018 	lw	$t5,24($sp)
  419e40:	01607825 	move	$t7,$t3
  419e44:	0411000b 	bal	419e74 <_tenscale+0x164>
  419e48:	01c87021 	addu	$t6,$t6,$t0
  419e4c:	8fbf0024 	lw	$ra,36($sp)
  419e50:	27bd0028 	addiu	$sp,$sp,40
  419e54:	03e00008 	jr	$ra
  419e58:	00000000 	nop
  419e5c:	24090000 	li	$t1,0
  419e60:	2508001c 	addiu	$t0,$t0,28
  419e64:	0500fffe 	bltz	$t0,419e60 <_tenscale+0x150>
  419e68:	2529fffe 	addiu	$t1,$t1,-2
  419e6c:	1000ffcd 	b	419da4 <_tenscale+0x94>
  419e70:	2508ffe4 	addiu	$t0,$t0,-28
  419e74:	018e0019 	multu	$t4,$t6
  419e78:	00004012 	mflo	$t0
  419e7c:	00004810 	mfhi	$t1
  419e80:	01203827 	nor	$a3,$t1,$zero
  419e84:	00000000 	nop
  419e88:	01ae0019 	multu	$t5,$t6
  419e8c:	00003012 	mflo	$a2
  419e90:	00005010 	mfhi	$t2
  419e94:	00e6382b 	sltu	$a3,$a3,$a2
  419e98:	01264821 	addu	$t1,$t1,$a2
  419e9c:	018f0019 	multu	$t4,$t7
  419ea0:	01475020 	add	$t2,$t2,$a3
  419ea4:	01203827 	nor	$a3,$t1,$zero
  419ea8:	00003012 	mflo	$a2
  419eac:	00005810 	mfhi	$t3
  419eb0:	00e6382b 	sltu	$a3,$a3,$a2
  419eb4:	01264821 	addu	$t1,$t1,$a2
  419eb8:	01af0019 	multu	$t5,$t7
  419ebc:	01475020 	add	$t2,$t2,$a3
  419ec0:	01403027 	nor	$a2,$t2,$zero
  419ec4:	00cb302b 	sltu	$a2,$a2,$t3
  419ec8:	014b5021 	addu	$t2,$t2,$t3
  419ecc:	01403827 	nor	$a3,$t2,$zero
  419ed0:	00005810 	mfhi	$t3
  419ed4:	01665820 	add	$t3,$t3,$a2
  419ed8:	00003012 	mflo	$a2
  419edc:	00e6382b 	sltu	$a3,$a3,$a2
  419ee0:	01675820 	add	$t3,$t3,$a3
  419ee4:	03e00008 	jr	$ra
  419ee8:	01465021 	addu	$t2,$t2,$a2
  419eec:	00000000 	nop
Disassembly of section .rodata:

00419ef0 <_sys_index-0x1910>:
  419ef0:	24526576 	addiu	$s2,$v0,25974
  419ef4:	6973696f 	0x6973696f
  419ef8:	6e3a2031 	0x6e3a2031
  419efc:	2e343920 	sltiu	$s4,$s1,14624
  419f00:	24000000 	li	$zero,0
  419f04:	48656c6c 	0x48656c6c
  419f08:	6f2c2057 	0x6f2c2057
  419f0c:	6f726c64 	0x6f726c64
  419f10:	21000000 	addi	$zero,$t0,0
	...
  419f20:	24526576 	addiu	$s2,$v0,25974
  419f24:	6973696f 	0x6973696f
  419f28:	6e3a2031 	0x6e3a2031
  419f2c:	2e343920 	sltiu	$s4,$s1,14624
  419f30:	24000000 	li	$zero,0
	...
  419f40:	25733a20 	addiu	$s3,$t3,14880
  419f44:	4c4f434b 	0x4c4f434b
  419f48:	44554d50 	0x44554d50
  419f4c:	20617420 	addi	$at,$v1,29728
  419f50:	25237820 	addiu	$v1,$t1,30752
  419f54:	286c6173 	slti	$t4,$v1,24947
  419f58:	74206f77 	jalx	81bddc <_gp+0x3f640c>
  419f5c:	6e657220 	0x6e657220
  419f60:	3d202564 	0x3d202564
  419f64:	290a0000 	slti	$t2,$t0,0
  419f68:	20206c6f 	addi	$zero,$at,27759
  419f6c:	636b2068 	0x636b2068
  419f70:	656c640a 	0x656c640a
  419f74:	00000000 	nop
  419f78:	20206c6f 	addi	$zero,$at,27759
  419f7c:	636b2066 	0x636b2066
  419f80:	7265650a 	0x7265650a
  419f84:	00000000 	nop
  419f88:	20206c6f 	addi	$zero,$at,27759
  419f8c:	636b206d 	0x636b206d
  419f90:	65746572 	0x65746572
  419f94:	3a202074 	xori	$zero,$s1,0x2074
  419f98:	72696573 	0x72696573
  419f9c:	20256420 	addi	$a1,$at,25632
  419fa0:	7370696e 	0x7370696e
  419fa4:	73202564 	0x73202564
  419fa8:	20686974 	addi	$t0,$v1,26996
  419fac:	73202564 	0x73202564
  419fb0:	0a000000 	j	8000000 <_gp+0x7bda630>
  419fb4:	20206c6f 	addi	$zero,$at,27759
  419fb8:	636b2064 	0x636b2064
  419fbc:	65627567 	0x65627567
  419fc0:	3a20206f 	xori	$zero,$s1,0x206f
  419fc4:	776e6572 	jalx	db995c8 <_gp+0xd773bf8>
  419fc8:	20706964 	addi	$s0,$v1,26980
  419fcc:	20256420 	addi	$a1,$at,25632
  419fd0:	0a000000 	j	8000000 <_gp+0x7bda630>
  419fd4:	446f7562 	0x446f7562
  419fd8:	6c652074 	0x6c652074
  419fdc:	72697070 	0x72697070
  419fe0:	6564206f 	0x6564206f
  419fe4:	6e206c6f 	0x6e206c6f
  419fe8:	636b2040 	0x636b2040
  419fec:	20307825 	addi	$s0,$at,30757
  419ff0:	78206279 	0x78206279
  419ff4:	20706964 	addi	$s0,$v1,26980
  419ff8:	20256420 	addi	$a1,$at,25632
  419ffc:	63616c6c 	0x63616c6c
  41a000:	65642066 	0x65642066
  41a004:	726f6d20 	0x726f6d20
  41a008:	30782578 	andi	$t8,$v1,0x2578
  41a00c:	00000000 	nop
  41a010:	75737365 	jalx	5cdcd94 <_gp+0x58b73c4>
  41a014:	746c6f63 	jalx	1b1bd8c <_gp+0x16f63bc>
  41a018:	6b000000 	0x6b000000
  41a01c:	556e7365 	0x556e7365
  41a020:	74206c6f 	jalx	81b1bc <_gp+0x3f57ec>
  41a024:	636b2c20 	0x636b2c20
  41a028:	62757420 	0x62757420
  41a02c:	6c6f636b 	0x6c6f636b
  41a030:	206e6f74 	addi	$t6,$v1,28532
  41a034:	206c6f63 	addi	$t4,$v1,28515
  41a038:	6b65642e 	0x6b65642e
  41a03c:	206c6f63 	addi	$t4,$v1,28515
  41a040:	6b204020 	0x6b204020
  41a044:	30782578 	andi	$t8,$v1,0x2578
  41a048:	20706964 	addi	$s0,$v1,26980
  41a04c:	20256420 	addi	$a1,$at,25632
  41a050:	63616c6c 	0x63616c6c
  41a054:	65642066 	0x65642066
  41a058:	726f6d20 	0x726f6d20
  41a05c:	30782578 	andi	$t8,$v1,0x2578
  41a060:	00000000 	nop
  41a064:	556e6c6f 	0x556e6c6f
  41a068:	636b696e 	0x636b696e
  41a06c:	67206c6f 	0x67206c6f
  41a070:	636b2074 	0x636b2074
  41a074:	68617420 	0x68617420
  41a078:	6f746865 	0x6f746865
  41a07c:	72207072 	0x72207072
  41a080:	6f636573 	0x6f636573
  41a084:	73206c6f 	0x73206c6f
  41a088:	636b6564 	0x636b6564
  41a08c:	2e206c6f 	sltiu	$zero,$s1,27759
  41a090:	636b2040 	0x636b2040
  41a094:	20307825 	addi	$s0,$at,30757
  41a098:	78206279 	0x78206279
  41a09c:	20706964 	addi	$s0,$v1,26980
  41a0a0:	20256420 	addi	$a1,$at,25632
  41a0a4:	63616c6c 	0x63616c6c
  41a0a8:	65642066 	0x65642066
  41a0ac:	726f6d20 	0x726f6d20
  41a0b0:	30782578 	andi	$t8,$v1,0x2578
  41a0b4:	00000000 	nop
  41a0b8:	7573756e 	jalx	5cdd5b8 <_gp+0x58b7be8>
  41a0bc:	7365746c 	0x7365746c
  41a0c0:	6f636b00 	0x6f636b00
  41a0c4:	496e7465 	0x496e7465
  41a0c8:	726e616c 	0x726e616c
  41a0cc:	20657272 	addi	$a1,$v1,29298
  41a0d0:	6f722069 	0x6f722069
  41a0d4:	6e207573 	0x6e207573
  41a0d8:	63736574 	0x63736574
  41a0dc:	6c6f636b 	0x6c6f636b
  41a0e0:	210a0000 	addi	$t2,$t0,0
	...
  41a0f0:	75737073 	jalx	5cdc1cc <_gp+0x58b67fc>
  41a0f4:	656d613a 	0x656d613a
  41a0f8:	4552524f 	0x4552524f
  41a0fc:	523a7370 	0x523a7370
  41a100:	20307825 	addi	$s0,$at,30757
  41a104:	78207175 	0x78207175
  41a108:	65756520 	0x65756520
  41a10c:	6f766572 	0x6f766572
  41a110:	666c6f77 	0x666c6f77
  41a114:	20706964 	addi	$s0,$v1,26980
  41a118:	2025640a 	addi	$a1,$at,25610
  41a11c:	00000000 	nop
  41a120:	75736672 	jalx	5cd99c8 <_gp+0x58b3ff8>
  41a124:	65657365 	0x65657365
  41a128:	6d613a45 	0x6d613a45
  41a12c:	52524f52 	0x52524f52
  41a130:	3a737020 	xori	$s3,$s3,0x7020
  41a134:	30782578 	andi	$t8,$v1,0x2578
  41a138:	20626164 	addi	$v0,$v1,24932
  41a13c:	20757370 	addi	$s5,$v1,29552
  41a140:	74725f74 	jalx	1c97dd0 <_gp+0x1872400>
  41a144:	20307825 	addi	$s0,$at,30757
  41a148:	78207069 	0x78207069
  41a14c:	64202564 	0x64202564
  41a150:	0a000000 	j	8000000 <_gp+0x7bda630>
  41a154:	25733a20 	addiu	$s3,$t3,14880
  41a158:	53454d41 	0x53454d41
  41a15c:	44554d50 	0x44554d50
  41a160:	206f6620 	addi	$t7,$v1,26144
  41a164:	25237820 	addiu	$v1,$t1,30752
  41a168:	636f756e 	0x636f756e
  41a16c:	74202564 	jalx	809590 <_gp+0x3e3bc0>
  41a170:	00000000 	nop
  41a174:	706f6c6c 	0x706f6c6c
  41a178:	696e6720 	0x696e6720
  41a17c:	64657620 	0x64657620
  41a180:	2523780a 	addiu	$v1,$t1,30730
  41a184:	00000000 	nop
  41a188:	20207365 	addi	$zero,$at,29541
  41a18c:	6d617068 	0x6d617068
  41a190:	6f726520 	0x6f726520
  41a194:	6d657465 	0x6d657465
  41a198:	723a2076 	0x723a2076
  41a19c:	616c7565 	0x616c7565
  41a1a0:	20256420 	addi	$a1,$at,25632
  41a1a4:	6e776169 	0x6e776169
  41a1a8:	74202564 	jalx	809590 <_gp+0x3e3bc0>
  41a1ac:	206d6178 	addi	$t5,$v1,24952
  41a1b0:	6e776169 	0x6e776169
  41a1b4:	74202564 	jalx	809590 <_gp+0x3e3bc0>
  41a1b8:	0a000000 	j	8000000 <_gp+0x7bda630>
  41a1bc:	20202020 	addi	$zero,$at,8224
  41a1c0:	20202020 	addi	$zero,$at,8224
  41a1c4:	20202020 	addi	$zero,$at,8224
  41a1c8:	20202020 	addi	$zero,$at,8224
  41a1cc:	20202070 	addi	$zero,$at,8304
  41a1d0:	73656d61 	0x73656d61
  41a1d4:	73202564 	0x73202564
  41a1d8:	20706869 	addi	$s0,$v1,26729
  41a1dc:	74732025 	jalx	1cc8094 <_gp+0x18a26c4>
  41a1e0:	64207673 	0x64207673
  41a1e4:	656d6173 	0x656d6173
  41a1e8:	20256420 	addi	$a1,$at,25632
  41a1ec:	766e6f77 	jalx	9b9bddc <_gp+0x977640c>
  41a1f0:	61697420 	0x61697420
  41a1f4:	25640a00 	addiu	$a0,$t3,2560
  41a1f8:	20207365 	addi	$zero,$at,29541
  41a1fc:	6d617068 	0x6d617068
  41a200:	6f726520 	0x6f726520
  41a204:	64656275 	0x64656275
  41a208:	673a206f 	0x673a206f
  41a20c:	776e6572 	jalx	db995c8 <_gp+0xd773bf8>
  41a210:	20706964 	addi	$s0,$v1,26980
  41a214:	20256420 	addi	$a1,$at,25632
  41a218:	63616c6c 	0x63616c6c
  41a21c:	65642066 	0x65642066
  41a220:	726f6d20 	0x726f6d20
  41a224:	30782578 	andi	$t8,$v1,0x2578
  41a228:	0a000000 	j	8000000 <_gp+0x7bda630>
  41a22c:	20202020 	addi	$zero,$at,8224
  41a230:	20202020 	addi	$zero,$at,8224
  41a234:	20202020 	addi	$zero,$at,8224
  41a238:	20202020 	addi	$zero,$at,8224
  41a23c:	2020206c 	addi	$zero,$at,8300
  41a240:	61737420 	0x61737420
  41a244:	70696420 	0x70696420
  41a248:	25642063 	addiu	$a0,$t3,8291
  41a24c:	616c6c65 	0x616c6c65
  41a250:	64206672 	0x64206672
  41a254:	6f6d2030 	0x6f6d2030
  41a258:	7825780a 	0x7825780a
  41a25c:	00000000 	nop
  41a260:	48697374 	0x48697374
  41a264:	6f727920 	0x6f727920
  41a268:	63757272 	0x63757272
  41a26c:	656e7420 	0x656e7420
  41a270:	30782578 	andi	$t8,$v1,0x2578
  41a274:	20656e74 	addi	$a1,$v1,28276
  41a278:	72696573 	0x72696573
  41a27c:	20256420 	addi	$a1,$at,25632
  41a280:	6572726f 	0x6572726f
  41a284:	72732025 	0x72732025
  41a288:	640a0000 	0x640a0000
  41a28c:	4261636b 	c0	0x61636b
  41a290:	77617264 	jalx	d85c990 <_gp+0xd436fc0>
  41a294:	20696e20 	addi	$t1,$v1,28192
  41a298:	74696d65 	jalx	1a5b594 <_gp+0x1635bc4>
  41a29c:	0a000000 	j	8000000 <_gp+0x7bda630>
  41a2a0:	25732073 	addiu	$s3,$t3,8307
  41a2a4:	656d6120 	0x656d6120
  41a2a8:	40203078 	0x40203078
  41a2ac:	25782070 	addiu	$t8,$t3,8304
  41a2b0:	69642025 	0x69642025
  41a2b4:	64207770 	0x64207770
  41a2b8:	69642025 	0x69642025
  41a2bc:	64206370 	0x64206370
  41a2c0:	63203078 	0x63203078
  41a2c4:	25782073 	addiu	$t8,$t3,8307
  41a2c8:	636e7420 	0x636e7420
  41a2cc:	25640a00 	addiu	$a0,$t3,2560
  41a2d0:	466f7277 	c1	0x6f7277
  41a2d4:	61726420 	0x61726420
  41a2d8:	696e2074 	0x696e2074
  41a2dc:	696d650a 	0x696d650a
  41a2e0:	00000000 	nop
  41a2e4:	25732073 	addiu	$s3,$t3,8307
  41a2e8:	656d6120 	0x656d6120
  41a2ec:	40203078 	0x40203078
  41a2f0:	25782070 	addiu	$t8,$t3,8304
  41a2f4:	69642025 	0x69642025
  41a2f8:	64207770 	0x64207770
  41a2fc:	69642025 	0x69642025
  41a300:	64206370 	0x64206370
  41a304:	63203078 	0x63203078
  41a308:	25782073 	addiu	$t8,$t3,8307
  41a30c:	636e7420 	0x636e7420
  41a310:	25640a00 	addiu	$a0,$t3,2560
  41a314:	2f646576 	sltiu	$a0,$k1,25974
  41a318:	2f757365 	sltiu	$s5,$k1,29541
  41a31c:	6d61636c 	0x6d61636c
  41a320:	6f6e6500 	0x6f6e6500
  41a324:	75736f70 	jalx	5cdbdc0 <_gp+0x58b63f0>
  41a328:	656e706f 	0x656e706f
  41a32c:	6c6c7365 	0x6c6c7365
  41a330:	6d613a45 	0x6d613a45
  41a334:	52524f52 	0x52524f52
  41a338:	3a706964 	xori	$s0,$s3,0x6964
  41a33c:	20256420 	addi	$a1,$at,25632
  41a340:	63616e6e 	0x63616e6e
  41a344:	6f742067 	0x6f742067
  41a348:	6574206e 	0x6574206e
  41a34c:	6577206d 	0x6577206d
  41a350:	696e6f72 	0x696e6f72
  41a354:	00000000 	nop
  41a358:	75736f70 	jalx	5cdbdc0 <_gp+0x58b63f0>
  41a35c:	656e706f 	0x656e706f
  41a360:	6c6c7365 	0x6c6c7365
  41a364:	6d613a45 	0x6d613a45
  41a368:	52524f52 	0x52524f52
  41a36c:	3a706964 	xori	$s0,$s3,0x6964
  41a370:	20256420 	addi	$a1,$at,25632
  41a374:	63616e6e 	0x63616e6e
  41a378:	6f742063 	0x6f742063
  41a37c:	6867206d 	0x6867206d
  41a380:	6f646520 	0x6f646520
  41a384:	6f6e206e 	0x6f6e206e
  41a388:	6577206d 	0x6577206d
  41a38c:	696e6f72 	0x696e6f72
  41a390:	00000000 	nop
  41a394:	54524143 	0x54524143
  41a398:	453a2075 	0x453a2075
  41a39c:	736f7065 	0x736f7065
  41a3a0:	6e706f6c 	0x6e706f6c
  41a3a4:	6c73656d 	0x6c73656d
  41a3a8:	613a7469 	0x613a7469
  41a3ac:	64202564 	0x64202564
  41a3b0:	20706f6c 	addi	$s0,$v1,28524
  41a3b4:	6c73656d 	0x6c73656d
  41a3b8:	61204020 	0x61204020
  41a3bc:	30782578 	andi	$t8,$v1,0x2578
  41a3c0:	20637265 	addi	$v1,$v1,29285
  41a3c4:	61746573 	0x61746573
  41a3c8:	20646576 	addi	$a0,$v1,25974
  41a3cc:	69636520 	0x69636520
  41a3d0:	30782578 	andi	$t8,$v1,0x2578
  41a3d4:	20666420 	addi	$a2,$v1,25632
  41a3d8:	25640000 	addiu	$a0,$t3,0
  41a3dc:	2f646576 	sltiu	$a0,$k1,25974
  41a3e0:	2f757365 	sltiu	$s5,$k1,29541
  41a3e4:	6d610000 	0x6d610000
  41a3e8:	75736f70 	jalx	5cdbdc0 <_gp+0x58b63f0>
  41a3ec:	656e706f 	0x656e706f
  41a3f0:	6c6c7365 	0x6c6c7365
  41a3f4:	6d613a45 	0x6d613a45
  41a3f8:	52524f52 	0x52524f52
  41a3fc:	3a63616e 	xori	$v1,$s3,0x616e
  41a400:	6e6f7420 	0x6e6f7420
  41a404:	61747461 	0x61747461
  41a408:	63682074 	0x63682074
  41a40c:	6f206578 	0x6f206578
  41a410:	69737469 	0x69737469
  41a414:	6e67206d 	0x6e67206d
  41a418:	696e6f72 	0x696e6f72
  41a41c:	20307825 	addi	$s0,$at,30757
  41a420:	78000000 	0x78000000
  41a424:	54524143 	0x54524143
  41a428:	453a2075 	0x453a2075
  41a42c:	736f7065 	0x736f7065
  41a430:	6e706f6c 	0x6e706f6c
  41a434:	6c73656d 	0x6c73656d
  41a438:	613a7469 	0x613a7469
  41a43c:	64202564 	0x64202564
  41a440:	20706f6c 	addi	$s0,$v1,28524
  41a444:	6c73656d 	0x6c73656d
  41a448:	61204020 	0x61204020
  41a44c:	30782578 	andi	$t8,$v1,0x2578
  41a450:	20617474 	addi	$at,$v1,29812
  41a454:	61636865 	0x61636865
  41a458:	73206465 	0x73206465
  41a45c:	76696365 	jalx	9a58d94 <_gp+0x96333c4>
  41a460:	20307825 	addi	$s0,$at,30757
  41a464:	78206664 	0x78206664
  41a468:	20256400 	addi	$a1,$at,25600
  41a46c:	75736669 	jalx	5cd99a4 <_gp+0x58b3fd4>
  41a470:	6e647370 	0x6e647370
  41a474:	66643a45 	0x66643a45
  41a478:	52524f52 	0x52524f52
  41a47c:	3a706964 	xori	$s0,$s3,0x6964
  41a480:	20256420 	addi	$a1,$at,25632
  41a484:	73686172 	0x73686172
  41a488:	696e6720 	0x696e6720
  41a48c:	66642077 	0x66642077
  41a490:	69746820 	0x69746820
  41a494:	70696420 	0x70696420
  41a498:	25642062 	addiu	$a0,$t3,8290
  41a49c:	75742066 	jalx	5d08198 <_gp+0x58e27c8>
  41a4a0:	64202564 	0x64202564
  41a4a4:	20646f65 	addi	$a0,$v1,28517
  41a4a8:	736e2774 	0x736e2774
  41a4ac:	206d6174 	addi	$t5,$v1,24948
  41a4b0:	6368210a 	0x6368210a
  41a4b4:	00000000 	nop
  41a4b8:	54524143 	0x54524143
  41a4bc:	453a2067 	0x453a2067
  41a4c0:	6976696e 	0x6976696e
  41a4c4:	67206175 	0x67206175
  41a4c8:	746f2d6f 	jalx	1bcb5bc <_gp+0x17a5bec>
  41a4cc:	70656e20 	0x70656e20
  41a4d0:	746f2074 	jalx	1bc81d0 <_gp+0x17a2800>
  41a4d4:	69642025 	0x69642025
  41a4d8:	6420706f 	0x6420706f
  41a4dc:	6c6c7365 	0x6c6c7365
  41a4e0:	6d612040 	0x6d612040
  41a4e4:	20307825 	addi	$s0,$at,30757
  41a4e8:	78206765 	0x78206765
  41a4ec:	74732066 	jalx	1cc8198 <_gp+0x18a27c8>
  41a4f0:	64202564 	0x64202564
  41a4f4:	00000000 	nop
  41a4f8:	25733a45 	addiu	$s3,$t3,14917
  41a4fc:	52524f52 	0x52524f52
  41a500:	3a6e6f20 	xori	$t6,$s3,0x6f20
  41a504:	74696421 	jalx	1a59084 <_gp+0x16336b4>
  41a508:	666f7220 	0x666f7220
  41a50c:	70726f63 	0x70726f63
  41a510:	65737320 	0x65737320
  41a514:	25640000 	addiu	$a0,$t3,0
  41a518:	25733a45 	addiu	$s3,$t3,14917
  41a51c:	52524f52 	0x52524f52
  41a520:	3a626c6f 	xori	$v0,$s3,0x6c6f
  41a524:	636b3a70 	0x636b3a70
  41a528:	69642025 	0x69642025
  41a52c:	64207469 	0x64207469
  41a530:	64202564 	0x64202564
  41a534:	20666420 	addi	$a2,$v1,25632
  41a538:	25640000 	addiu	$a0,$t3,0
  41a53c:	25733a45 	addiu	$s3,$t3,14917
  41a540:	52524f52 	0x52524f52
  41a544:	3a6e6f20 	xori	$t6,$s3,0x6f20
  41a548:	74696421 	jalx	1a59084 <_gp+0x16336b4>
  41a54c:	666f7220 	0x666f7220
  41a550:	70726f63 	0x70726f63
  41a554:	65737320 	0x65737320
  41a558:	25640000 	addiu	$a0,$t3,0
  41a55c:	25733a45 	addiu	$s3,$t3,14917
  41a560:	52524f52 	0x52524f52
  41a564:	3a756e62 	xori	$s5,$s3,0x6e62
  41a568:	6c6f636b 	0x6c6f636b
  41a56c:	3a706964 	xori	$s0,$s3,0x6964
  41a570:	20256420 	addi	$a1,$at,25632
  41a574:	74696420 	jalx	1a59080 <_gp+0x16336b0>
  41a578:	25642066 	addiu	$a0,$t3,8294
  41a57c:	64202564 	0x64202564
  41a580:	00000000 	nop
  41a584:	0040941c 	0x40941c
  41a588:	004094b0 	0x4094b0
  41a58c:	004094e4 	0x4094e4
  41a590:	00409588 	0x409588
  41a594:	004095e4 	0x4095e4
  41a598:	00409664 	0x409664
  41a59c:	00409698 	0x409698
  41a5a0:	00409714 	0x409714
  41a5a4:	00409758 	0x409758
  41a5a8:	0040976c 	0x40976c
  41a5ac:	00409780 	0x409780
  41a5b0:	00409794 	0x409794
	...
  41a5c0:	55535553 	0x55535553
  41a5c4:	455a4552 	0x455a4552
  41a5c8:	4f464f52 	c3	0x1464f52
  41a5cc:	4c494243 	0x4c494243
  41a5d0:	00000000 	nop
  41a5d4:	2f646576 	sltiu	$a0,$k1,25974
  41a5d8:	2f7a6572 	sltiu	$k0,$k1,25970
  41a5dc:	6f000000 	0x6f000000
  41a5e0:	4e657720 	c3	0x657720
  41a5e4:	70726f63 	0x70726f63
  41a5e8:	65737320 	0x65737320
  41a5ec:	70696420 	0x70696420
  41a5f0:	25642063 	addiu	$a0,$t3,8291
  41a5f4:	6f756c64 	0x6f756c64
  41a5f8:	206e6f74 	addi	$t6,$v1,28532
  41a5fc:	206a6f69 	addi	$t2,$v1,28521
  41a600:	6e20492f 	0x6e20492f
  41a604:	4f206172 	c3	0x1206172
  41a608:	656e613a 	0x656e613a
  41a60c:	25730a00 	addiu	$s3,$t3,2560
  41a610:	4e656564 	c3	0x656564
  41a614:	20746f20 	addi	$s4,$v1,28448
  41a618:	72616973 	0x72616973
  41a61c:	6520434f 	0x6520434f
  41a620:	4e465f49 	c3	0x465f49
  41a624:	4e495455 	c3	0x495455
  41a628:	53455253 	0x53455253
  41a62c:	3f202875 	0x3f202875
  41a630:	73636f6e 	0x73636f6e
  41a634:	66696728 	0x66696728
  41a638:	33502929 	andi	$s0,$k0,0x2929
  41a63c:	0a000000 	j	8000000 <_gp+0x7bda630>
  41a640:	2f646576 	sltiu	$a0,$k1,25974
  41a644:	2f686c2f 	sltiu	$t0,$k1,27695
  41a648:	686c6f63 	0x686c6f63
  41a64c:	6b303030 	0x6b303030
  41a650:	00000000 	nop
  41a654:	7573696e 	jalx	5cda5b8 <_gp+0x58b4be8>
  41a658:	69743a45 	0x69743a45
  41a65c:	52524f52 	0x52524f52
  41a660:	3a666169 	xori	$a2,$s3,0x6169
  41a664:	6c656420 	0x6c656420
  41a668:	484c5f41 	0x484c5f41
  41a66c:	4d4e5200 	0x4d4e5200
  41a670:	54524143 	0x54524143
  41a674:	453a2050 	0x453a2050
  41a678:	726f6365 	0x726f6365
  41a67c:	73732025 	0x73732025
  41a680:	64206861 	0x64206861
  41a684:	72646c6f 	0x72646c6f
  41a688:	636b7320 	0x636b7320
  41a68c:	676f7420 	0x676f7420
  41a690:	6d696e6f 	0x6d696e6f
  41a694:	72206e75 	0x72206e75
  41a698:	6d626572 	0x6d626572
  41a69c:	20256400 	addi	$a1,$at,25600
  41a6a0:	7573696e 	jalx	5cda5b8 <_gp+0x58b4be8>
  41a6a4:	69743a45 	0x69743a45
  41a6a8:	52524f52 	0x52524f52
  41a6ac:	3a666169 	xori	$a2,$s3,0x6169
  41a6b0:	6c656420 	0x6c656420
  41a6b4:	484c5f52 	0x484c5f52
  41a6b8:	47535a00 	c1	0x1535a00
  41a6bc:	7573696e 	jalx	5cda5b8 <_gp+0x58b4be8>
  41a6c0:	69743a45 	0x69743a45
  41a6c4:	52524f52 	0x52524f52
  41a6c8:	3a556e61 	xori	$s5,$s2,0x6e61
  41a6cc:	626c6520 	0x626c6520
  41a6d0:	746f206d 	jalx	1bc81b4 <_gp+0x17a27e4>
  41a6d4:	61702068 	0x61702068
  41a6d8:	6c6f636b 	0x6c6f636b
  41a6dc:	73204020 	0x73204020
  41a6e0:	30782578 	andi	$t8,$v1,0x2578
  41a6e4:	00000000 	nop
  41a6e8:	7573696e 	jalx	5cda5b8 <_gp+0x58b4be8>
  41a6ec:	69743a45 	0x69743a45
  41a6f0:	52524f52 	0x52524f52
  41a6f4:	3a566972 	xori	$s6,$s2,0x6972
  41a6f8:	7475616c 	jalx	1d585b0 <_gp+0x1932be0>
  41a6fc:	20416464 	addi	$at,$v0,25700
  41a700:	72657373 	0x72657373
  41a704:	20307825 	addi	$s0,$at,30757
  41a708:	7820286e 	0x7820286e
  41a70c:	65656465 	0x65656465
  41a710:	6420666f 	0x6420666f
  41a714:	72206861 	0x72206861
  41a718:	72647761 	0x72647761
  41a71c:	7265206c 	0x7265206c
  41a720:	6f636b73 	0x6f636b73
  41a724:	2920616c 	slti	$zero,$t1,24940
  41a728:	72656164 	0x72656164
  41a72c:	7920696e 	0x7920696e
  41a730:	20757365 	addi	$s5,$v1,29541
  41a734:	20627920 	addi	$v0,$v1,31008
  41a738:	70726f63 	0x70726f63
  41a73c:	65737320 	0x65737320
  41a740:	25640000 	addiu	$a0,$t3,0
  41a744:	54524143 	0x54524143
  41a748:	453a2050 	0x453a2050
  41a74c:	726f6365 	0x726f6365
  41a750:	73732025 	0x73732025
  41a754:	64206174 	0x64206174
  41a758:	74616368 	jalx	1858da0 <_gp+0x14333d0>
  41a75c:	65642068 	0x65642068
  41a760:	6c6f636b 	0x6c6f636b
  41a764:	73206174 	0x73206174
  41a768:	20307825 	addi	$s0,$at,30757
  41a76c:	78000000 	0x78000000
  41a770:	7573696e 	jalx	5cda5b8 <_gp+0x58b4be8>
  41a774:	69743a45 	0x69743a45
  41a778:	52524f52 	0x52524f52
  41a77c:	3a756e61 	xori	$s5,$s3,0x6e61
  41a780:	626c6520 	0x626c6520
  41a784:	746f2061 	jalx	1bc8184 <_gp+0x17a27b4>
  41a788:	6c6c6f63 	0x6c6c6f63
  41a78c:	20686c6f 	addi	$t0,$v1,27759
  41a790:	636b7300 	0x636b7300
  41a794:	54524143 	0x54524143
  41a798:	453a2050 	0x453a2050
  41a79c:	726f6365 	0x726f6365
  41a7a0:	73732025 	0x73732025
  41a7a4:	64206174 	0x64206174
  41a7a8:	74616368 	jalx	1858da0 <_gp+0x14333d0>
  41a7ac:	696e6720 	0x696e6720
  41a7b0:	746f2068 	jalx	1bc81a0 <_gp+0x17a27d0>
  41a7b4:	6172646c 	0x6172646c
  41a7b8:	6f636b20 	0x6f636b20
  41a7bc:	67726f75 	0x67726f75
  41a7c0:	70202573 	0x70202573
  41a7c4:	00000000 	nop
  41a7c8:	7573696e 	jalx	5cda5b8 <_gp+0x58b4be8>
  41a7cc:	69743a45 	0x69743a45
  41a7d0:	52524f52 	0x52524f52
  41a7d4:	3a756e61 	xori	$s5,$s3,0x6e61
  41a7d8:	626c6520 	0x626c6520
  41a7dc:	746f206f 	jalx	1bc81bc <_gp+0x17a27ec>
  41a7e0:	70656e20 	0x70656e20
  41a7e4:	6c6f636b 	0x6c6f636b
  41a7e8:	66696c65 	0x66696c65
  41a7ec:	20257300 	addi	$a1,$at,29440
  41a7f0:	7573696e 	jalx	5cda5b8 <_gp+0x58b4be8>
  41a7f4:	69743a45 	0x69743a45
  41a7f8:	52524f52 	0x52524f52
  41a7fc:	3a666169 	xori	$a2,$s3,0x6169
  41a800:	6c656420 	0x6c656420
  41a804:	484c5f52 	0x484c5f52
  41a808:	47535a00 	c1	0x1535a00
  41a80c:	7573696e 	jalx	5cda5b8 <_gp+0x58b4be8>
  41a810:	69743a45 	0x69743a45
  41a814:	52524f52 	0x52524f52
  41a818:	3a756e61 	xori	$s5,$s3,0x6e61
  41a81c:	626c6520 	0x626c6520
  41a820:	746f206d 	jalx	1bc81b4 <_gp+0x17a27e4>
  41a824:	61702068 	0x61702068
  41a828:	6c6f636b 	0x6c6f636b
  41a82c:	73000000 	0x73000000
  41a830:	7573696e 	jalx	5cda5b8 <_gp+0x58b4be8>
  41a834:	69743a45 	0x69743a45
  41a838:	52524f52 	0x52524f52
  41a83c:	3a566972 	xori	$s6,$s2,0x6972
  41a840:	7475616c 	jalx	1d585b0 <_gp+0x1932be0>
  41a844:	20616464 	addi	$at,$v1,25700
  41a848:	72657373 	0x72657373
  41a84c:	20307825 	addi	$s0,$at,30757
  41a850:	7820696e 	0x7820696e
  41a854:	20757365 	addi	$s5,$v1,29541
  41a858:	202d2063 	addi	$t5,$at,8291
  41a85c:	616e2774 	0x616e2774
  41a860:	206d6170 	addi	$t5,$v1,24944
  41a864:	20686172 	addi	$t0,$v1,24946
  41a868:	64776172 	0x64776172
  41a86c:	65206c6f 	0x65206c6f
  41a870:	636b7300 	0x636b7300
  41a874:	54524143 	0x54524143
  41a878:	453a2050 	0x453a2050
  41a87c:	726f6365 	0x726f6365
  41a880:	73732025 	0x73732025
  41a884:	64206174 	0x64206174
  41a888:	74616368 	jalx	1858da0 <_gp+0x14333d0>
  41a88c:	20686c6f 	addi	$t0,$v1,27759
  41a890:	636b6164 	0x636b6164
  41a894:	64722069 	0x64722069
  41a898:	73203078 	0x73203078
  41a89c:	25780000 	addiu	$t8,$t3,0
  41a8a0:	54524143 	0x54524143
  41a8a4:	453a2050 	0x453a2050
  41a8a8:	726f6365 	0x726f6365
  41a8ac:	73732025 	0x73732025
  41a8b0:	64206465 	0x64206465
  41a8b4:	74616368 	jalx	1858da0 <_gp+0x14333d0>
  41a8b8:	696e6720 	0x696e6720
  41a8bc:	66726f6d 	0x66726f6d
  41a8c0:	20686172 	addi	$t0,$v1,24946
  41a8c4:	646c6f63 	0x646c6f63
  41a8c8:	6b206772 	0x6b206772
  41a8cc:	6f757020 	0x6f757020
  41a8d0:	25730000 	addiu	$s3,$t3,0
  41a8d4:	75736465 	jalx	5cd9194 <_gp+0x58b37c4>
  41a8d8:	74616368 	jalx	1858da0 <_gp+0x14333d0>
  41a8dc:	3a455252 	xori	$a1,$s2,0x5252
  41a8e0:	4f523a75 	c3	0x1523a75
  41a8e4:	6e61626c 	0x6e61626c
  41a8e8:	6520746f 	0x6520746f
  41a8ec:	206f7065 	addi	$t7,$v1,28773
  41a8f0:	6e206c6f 	0x6e206c6f
  41a8f4:	636b6669 	0x636b6669
  41a8f8:	6c650000 	0x6c650000
  41a8fc:	75736465 	jalx	5cd9194 <_gp+0x58b37c4>
  41a900:	74616368 	jalx	1858da0 <_gp+0x14333d0>
  41a904:	3a455252 	xori	$a1,$s2,0x5252
  41a908:	4f523a66 	c3	0x1523a66
  41a90c:	61696c65 	0x61696c65
  41a910:	6420484c 	0x6420484c
  41a914:	5f524753 	0x5f524753
  41a918:	5a000000 	0x5a000000
  41a91c:	75736465 	jalx	5cd9194 <_gp+0x58b37c4>
  41a920:	74616368 	jalx	1858da0 <_gp+0x14333d0>
  41a924:	3a455252 	xori	$a1,$s2,0x5252
  41a928:	4f523a75 	c3	0x1523a75
  41a92c:	6e61626c 	0x6e61626c
  41a930:	6520746f 	0x6520746f
  41a934:	20756e6d 	addi	$s5,$v1,28269
  41a938:	61702068 	0x61702068
  41a93c:	6c6f636b 	0x6c6f636b
  41a940:	73000000 	0x73000000
  41a944:	4552524f 	0x4552524f
  41a948:	523a6861 	0x523a6861
  41a94c:	72647761 	0x72647761
  41a950:	7265206c 	0x7265206c
  41a954:	6f636b73 	0x6f636b73
  41a958:	3a204e4f 	xori	$zero,$s1,0x4e4f
  41a95c:	204c4f43 	addi	$t4,$v0,20291
  41a960:	4b53204c 	c2	0x153204c
  41a964:	45465400 	0x45465400
  41a968:	4552524f 	0x4552524f
  41a96c:	523a756e 	0x523a756e
  41a970:	61626c65 	0x61626c65
  41a974:	20746f20 	addi	$s4,$v1,28448
  41a978:	6f70656e 	0x6f70656e
  41a97c:	20686c6f 	addi	$t0,$v1,27759
  41a980:	636b6669 	0x636b6669
  41a984:	6c65203c 	0x6c65203c
  41a988:	25733e00 	addiu	$s3,$t3,15872
  41a98c:	4552524f 	0x4552524f
  41a990:	523a756e 	0x523a756e
  41a994:	61626c65 	0x61626c65
  41a998:	20746f20 	addi	$s4,$v1,28448
  41a99c:	616c6c6f 	0x616c6c6f
  41a9a0:	63617465 	0x63617465
  41a9a4:	20686c6f 	addi	$t0,$v1,27759
  41a9a8:	636b7300 	0x636b7300
  41a9ac:	446f7562 	0x446f7562
  41a9b0:	6c652074 	0x6c652074
  41a9b4:	72697070 	0x72697070
  41a9b8:	6564206f 	0x6564206f
  41a9bc:	6e206c6f 	0x6e206c6f
  41a9c0:	636b2040 	0x636b2040
  41a9c4:	20307825 	addi	$s0,$at,30757
  41a9c8:	78206279 	0x78206279
  41a9cc:	20706964 	addi	$s0,$v1,26980
  41a9d0:	20256420 	addi	$a1,$at,25632
  41a9d4:	63616c6c 	0x63616c6c
  41a9d8:	65642066 	0x65642066
  41a9dc:	726f6d20 	0x726f6d20
  41a9e0:	30782578 	andi	$t8,$v1,0x2578
  41a9e4:	00000000 	nop
  41a9e8:	446f7562 	0x446f7562
  41a9ec:	6c652074 	0x6c652074
  41a9f0:	72697070 	0x72697070
  41a9f4:	6564206f 	0x6564206f
  41a9f8:	6e206c6f 	0x6e206c6f
  41a9fc:	636b2040 	0x636b2040
  41aa00:	20307825 	addi	$s0,$at,30757
  41aa04:	78206279 	0x78206279
  41aa08:	20706964 	addi	$s0,$v1,26980
  41aa0c:	20256420 	addi	$a1,$at,25632
  41aa10:	63616c6c 	0x63616c6c
  41aa14:	65642066 	0x65642066
  41aa18:	726f6d20 	0x726f6d20
  41aa1c:	30782578 	andi	$t8,$v1,0x2578
  41aa20:	00000000 	nop
  41aa24:	556e7365 	0x556e7365
  41aa28:	74206c6f 	jalx	81b1bc <_gp+0x3f57ec>
  41aa2c:	636b2c20 	0x636b2c20
  41aa30:	62757420 	0x62757420
  41aa34:	6c6f636b 	0x6c6f636b
  41aa38:	206e6f74 	addi	$t6,$v1,28532
  41aa3c:	206c6f63 	addi	$t4,$v1,28515
  41aa40:	6b65642e 	0x6b65642e
  41aa44:	206c6f63 	addi	$t4,$v1,28515
  41aa48:	6b204020 	0x6b204020
  41aa4c:	30782578 	andi	$t8,$v1,0x2578
  41aa50:	20706964 	addi	$s0,$v1,26980
  41aa54:	20256420 	addi	$a1,$at,25632
  41aa58:	63616c6c 	0x63616c6c
  41aa5c:	65642066 	0x65642066
  41aa60:	726f6d20 	0x726f6d20
  41aa64:	30782578 	andi	$t8,$v1,0x2578
  41aa68:	00000000 	nop
  41aa6c:	556e6c6f 	0x556e6c6f
  41aa70:	636b696e 	0x636b696e
  41aa74:	67206c6f 	0x67206c6f
  41aa78:	636b2074 	0x636b2074
  41aa7c:	68617420 	0x68617420
  41aa80:	6f746865 	0x6f746865
  41aa84:	72207072 	0x72207072
  41aa88:	6f636573 	0x6f636573
  41aa8c:	73206c6f 	0x73206c6f
  41aa90:	636b6564 	0x636b6564
  41aa94:	2e206c6f 	sltiu	$zero,$s1,27759
  41aa98:	636b2040 	0x636b2040
  41aa9c:	20307825 	addi	$s0,$at,30757
  41aaa0:	78206279 	0x78206279
  41aaa4:	20706964 	addi	$s0,$v1,26980
  41aaa8:	20256420 	addi	$a1,$at,25632
  41aaac:	63616c6c 	0x63616c6c
  41aab0:	65642066 	0x65642066
  41aab4:	726f6d20 	0x726f6d20
  41aab8:	30782578 	andi	$t8,$v1,0x2578
  41aabc:	00000000 	nop
  41aac0:	4e6f7420 	c3	0x6f7420
  41aac4:	70726976 	0x70726976
  41aac8:	696c6567 	0x696c6567
  41aacc:	65640000 	0x65640000
  41aad0:	4e6f2073 	c3	0x6f2073
  41aad4:	75636820 	jalx	58da080 <_gp+0x54b46b0>
  41aad8:	66696c65 	0x66696c65
  41aadc:	206f7220 	addi	$t7,$v1,29216
  41aae0:	64697265 	0x64697265
  41aae4:	63746f72 	0x63746f72
  41aae8:	79000000 	0x79000000
  41aaec:	4e6f2073 	c3	0x6f2073
  41aaf0:	75636820 	jalx	58da080 <_gp+0x54b46b0>
  41aaf4:	70726f63 	0x70726f63
  41aaf8:	65737300 	0x65737300
  41aafc:	496e7465 	0x496e7465
  41ab00:	72727570 	0x72727570
  41ab04:	74656420 	jalx	1959080 <_gp+0x15336b0>
  41ab08:	73797374 	0x73797374
  41ab0c:	656d2063 	0x656d2063
  41ab10:	616c6c00 	0x616c6c00
  41ab14:	492f4f20 	0x492f4f20
  41ab18:	6572726f 	0x6572726f
  41ab1c:	72000000 	0x72000000
  41ab20:	4e6f2073 	c3	0x6f2073
  41ab24:	75636820 	jalx	58da080 <_gp+0x54b46b0>
  41ab28:	64657669 	0x64657669
  41ab2c:	6365206f 	0x6365206f
  41ab30:	72206164 	0x72206164
  41ab34:	64726573 	0x64726573
  41ab38:	73000000 	0x73000000
  41ab3c:	41726720 	0x41726720
  41ab40:	6c697374 	0x6c697374
  41ab44:	20746f6f 	addi	$s4,$v1,28527
  41ab48:	206c6f6e 	addi	$t4,$v1,28526
  41ab4c:	67000000 	0x67000000
  41ab50:	45786563 	0x45786563
  41ab54:	20666f72 	addi	$a2,$v1,28530
  41ab58:	6d617420 	0x6d617420
  41ab5c:	6572726f 	0x6572726f
  41ab60:	72000000 	0x72000000
  41ab64:	42616420 	c0	0x616420
  41ab68:	66696c65 	0x66696c65
  41ab6c:	206e756d 	addi	$t6,$v1,30061
  41ab70:	62657200 	0x62657200
  41ab74:	4e6f2063 	c3	0x6f2063
  41ab78:	68696c64 	0x68696c64
  41ab7c:	2070726f 	addi	$s0,$v1,29295
  41ab80:	63657373 	0x63657373
  41ab84:	65730000 	0x65730000
  41ab88:	5265736f 	0x5265736f
  41ab8c:	75726365 	jalx	5c98d94 <_gp+0x58733c4>
  41ab90:	2074656d 	addi	$s4,$v1,25965
  41ab94:	706f7261 	0x706f7261
  41ab98:	72696c79 	0x72696c79
  41ab9c:	20756e61 	addi	$s5,$v1,28257
  41aba0:	7661696c 	jalx	985a5b0 <_gp+0x9434be0>
  41aba4:	61626c65 	0x61626c65
  41aba8:	00000000 	nop
  41abac:	4e6f7420 	c3	0x6f7420
  41abb0:	656e6f75 	0x656e6f75
  41abb4:	67682073 	0x67682073
  41abb8:	70616365 	0x70616365
  41abbc:	00000000 	nop
  41abc0:	5065726d 	0x5065726d
  41abc4:	69737369 	0x69737369
  41abc8:	6f6e2064 	0x6f6e2064
  41abcc:	656e6965 	0x656e6965
  41abd0:	64000000 	0x64000000
  41abd4:	42616420 	c0	0x616420
  41abd8:	61646472 	0x61646472
  41abdc:	65737300 	0x65737300
  41abe0:	426c6f63 	c0	0x6c6f63
  41abe4:	6b206465 	0x6b206465
  41abe8:	76696365 	jalx	9a58d94 <_gp+0x96333c4>
  41abec:	20726571 	addi	$s2,$v1,25969
  41abf0:	75697265 	jalx	5a5c994 <_gp+0x5636fc4>
  41abf4:	64000000 	0x64000000
  41abf8:	44657669 	0x44657669
  41abfc:	63652062 	0x63652062
  41ac00:	75737900 	jalx	5cde400 <_gp+0x58b8a30>
  41ac04:	46696c65 	c1	0x696c65
  41ac08:	20657869 	addi	$a1,$v1,30825
  41ac0c:	73747300 	0x73747300
  41ac10:	43726f73 	c0	0x1726f73
  41ac14:	732d6465 	0x732d6465
  41ac18:	76696365 	jalx	9a58d94 <_gp+0x96333c4>
  41ac1c:	206c696e 	addi	$t4,$v1,26990
  41ac20:	6b000000 	0x6b000000
  41ac24:	4e6f2073 	c3	0x6f2073
  41ac28:	75636820 	jalx	58da080 <_gp+0x54b46b0>
  41ac2c:	64657669 	0x64657669
  41ac30:	63650000 	0x63650000
  41ac34:	4e6f7420 	c3	0x6f7420
  41ac38:	61206469 	0x61206469
  41ac3c:	72656374 	0x72656374
  41ac40:	6f727900 	0x6f727900
  41ac44:	49732061 	0x49732061
  41ac48:	20646972 	addi	$a0,$v1,26994
  41ac4c:	6563746f 	0x6563746f
  41ac50:	72790000 	0x72790000
  41ac54:	496e7661 	0x496e7661
  41ac58:	6c696420 	0x6c696420
  41ac5c:	61726775 	0x61726775
  41ac60:	6d656e74 	0x6d656e74
  41ac64:	00000000 	nop
  41ac68:	46696c65 	c1	0x696c65
  41ac6c:	20746162 	addi	$s4,$v1,24930
  41ac70:	6c65206f 	0x6c65206f
  41ac74:	76657266 	jalx	995c998 <_gp+0x9536fc8>
  41ac78:	6c6f7700 	0x6c6f7700
  41ac7c:	546f6f20 	0x546f6f20
  41ac80:	6d616e79 	0x6d616e79
  41ac84:	206f7065 	addi	$t7,$v1,28773
  41ac88:	6e206669 	0x6e206669
  41ac8c:	6c657300 	0x6c657300
  41ac90:	4e6f7420 	c3	0x6f7420
  41ac94:	61207479 	0x61207479
  41ac98:	70657772 	0x70657772
  41ac9c:	69746572 	0x69746572
  41aca0:	00000000 	nop
  41aca4:	54657874 	0x54657874
  41aca8:	2066696c 	addi	$a2,$v1,26988
  41acac:	65206275 	0x65206275
  41acb0:	73790000 	0x73790000
  41acb4:	46696c65 	c1	0x696c65
  41acb8:	20746f6f 	addi	$s4,$v1,28527
  41acbc:	206c6172 	addi	$t4,$v1,24946
  41acc0:	67650000 	0x67650000
  41acc4:	4e6f2073 	c3	0x6f2073
  41acc8:	70616365 	0x70616365
  41accc:	206c6566 	addi	$t4,$v1,25958
  41acd0:	74206f6e 	jalx	81bdb8 <_gp+0x3f63e8>
  41acd4:	20646576 	addi	$a0,$v1,25974
  41acd8:	69636500 	0x69636500
  41acdc:	496c6c65 	0x496c6c65
  41ace0:	67616c20 	0x67616c20
  41ace4:	7365656b 	0x7365656b
  41ace8:	00000000 	nop
  41acec:	52656164 	0x52656164
  41acf0:	2d6f6e6c 	sltiu	$t7,$t3,28268
  41acf4:	79206669 	0x79206669
  41acf8:	6c652073 	0x6c652073
  41acfc:	79737465 	0x79737465
  41ad00:	6d000000 	0x6d000000
  41ad04:	546f6f20 	0x546f6f20
  41ad08:	6d616e79 	0x6d616e79
  41ad0c:	206c696e 	addi	$t4,$v1,26990
  41ad10:	6b730000 	0x6b730000
  41ad14:	42726f6b 	c0	0x726f6b
  41ad18:	656e2070 	0x656e2070
  41ad1c:	69706500 	0x69706500
  41ad20:	41726775 	0x41726775
  41ad24:	6d656e74 	0x6d656e74
  41ad28:	206f7574 	addi	$t7,$v1,30068
  41ad2c:	206f6620 	addi	$t7,$v1,26144
  41ad30:	646f6d61 	0x646f6d61
  41ad34:	696e0000 	0x696e0000
  41ad38:	52657375 	0x52657375
  41ad3c:	6c742074 	0x6c742074
  41ad40:	6f6f206c 	0x6f6f206c
  41ad44:	61726765 	0x61726765
  41ad48:	00000000 	nop
  41ad4c:	4e6f206d 	c3	0x6f206d
  41ad50:	65737361 	0x65737361
  41ad54:	6765206f 	0x6765206f
  41ad58:	66206465 	0x66206465
  41ad5c:	73697265 	0x73697265
  41ad60:	64207479 	0x64207479
  41ad64:	70650000 	0x70650000
  41ad68:	4964656e 	0x4964656e
  41ad6c:	74696669 	jalx	1a599a4 <_gp+0x1633fd4>
  41ad70:	65722072 	0x65722072
  41ad74:	656d6f76 	0x656d6f76
  41ad78:	65640000 	0x65640000
  41ad7c:	4368616e 	c0	0x168616e
  41ad80:	6e656c20 	0x6e656c20
  41ad84:	6e756d62 	0x6e756d62
  41ad88:	6572206f 	0x6572206f
  41ad8c:	7574206f 	jalx	5d081bc <_gp+0x58e27ec>
  41ad90:	66207261 	0x66207261
  41ad94:	6e676500 	0x6e676500
  41ad98:	4c657665 	0x4c657665
  41ad9c:	6c203220 	0x6c203220
  41ada0:	6e6f7420 	0x6e6f7420
  41ada4:	73796e63 	0x73796e63
  41ada8:	68726f6e 	0x68726f6e
  41adac:	697a6564 	0x697a6564
  41adb0:	00000000 	nop
  41adb4:	4c657665 	0x4c657665
  41adb8:	6c203320 	0x6c203320
  41adbc:	68616c74 	0x68616c74
  41adc0:	65640000 	0x65640000
  41adc4:	4c657665 	0x4c657665
  41adc8:	6c203320 	0x6c203320
  41adcc:	72657365 	0x72657365
  41add0:	74000000 	jalx	0 <__istart-0x400fac>
  41add4:	4c696e6b 	0x4c696e6b
  41add8:	206e756d 	addi	$t6,$v1,30061
  41addc:	62657220 	0x62657220
  41ade0:	6f757420 	0x6f757420
  41ade4:	6f662072 	0x6f662072
  41ade8:	616e6765 	0x616e6765
  41adec:	00000000 	nop
  41adf0:	50726f74 	0x50726f74
  41adf4:	6f636f6c 	0x6f636f6c
  41adf8:	20647269 	addi	$a0,$v1,29289
  41adfc:	76657220 	jalx	995c880 <_gp+0x9536eb0>
  41ae00:	6e6f7420 	0x6e6f7420
  41ae04:	61747461 	0x61747461
  41ae08:	63686564 	0x63686564
  41ae0c:	00000000 	nop
  41ae10:	4e6f2043 	c3	0x6f2043
  41ae14:	53492073 	0x53492073
  41ae18:	74727563 	jalx	1c9d58c <_gp+0x1877bbc>
  41ae1c:	74757265 	jalx	1d5c994 <_gp+0x1936fc4>
  41ae20:	20617661 	addi	$at,$v1,30305
  41ae24:	696c6162 	0x696c6162
  41ae28:	6c650000 	0x6c650000
  41ae2c:	4c657665 	0x4c657665
  41ae30:	6c203220 	0x6c203220
  41ae34:	68616c74 	0x68616c74
  41ae38:	65640000 	0x65640000
  41ae3c:	44656164 	0x44656164
  41ae40:	6c6f636b 	0x6c6f636b
  41ae44:	20736974 	addi	$s3,$v1,26996
  41ae48:	75617469 	jalx	585d1a4 <_gp+0x54377d4>
  41ae4c:	6f6e2064 	0x6f6e2064
  41ae50:	65746563 	0x65746563
  41ae54:	7465642f 	jalx	19590bc <_gp+0x15336ec>
  41ae58:	61766f69 	0x61766f69
  41ae5c:	64656400 	0x64656400
  41ae60:	4e6f2072 	c3	0x6f2072
  41ae64:	65636f72 	0x65636f72
  41ae68:	64206c6f 	0x64206c6f
  41ae6c:	636b7320 	0x636b7320
  41ae70:	61766169 	0x61766169
  41ae74:	6c61626c 	0x6c61626c
  41ae78:	65000000 	0x65000000
  41ae7c:	4572726f 	0x4572726f
  41ae80:	72203437 	0x72203437
  41ae84:	00000000 	nop
  41ae88:	4572726f 	0x4572726f
  41ae8c:	72203438 	0x72203438
  41ae90:	00000000 	nop
  41ae94:	4572726f 	0x4572726f
  41ae98:	72203439 	0x72203439
  41ae9c:	00000000 	nop
  41aea0:	42616420 	c0	0x616420
  41aea4:	65786368 	0x65786368
  41aea8:	616e6765 	0x616e6765
  41aeac:	20646573 	addi	$a0,$v1,25971
  41aeb0:	63726970 	0x63726970
  41aeb4:	746f7200 	jalx	1bdc800 <_gp+0x17b6e30>
  41aeb8:	42616420 	c0	0x616420
  41aebc:	72657175 	0x72657175
  41aec0:	65737420 	0x65737420
  41aec4:	64657363 	0x64657363
  41aec8:	72697074 	0x72697074
  41aecc:	6f720000 	0x6f720000
  41aed0:	4d657373 	0x4d657373
  41aed4:	61676520 	0x61676520
  41aed8:	7461626c 	jalx	18589b0 <_gp+0x1432fe0>
  41aedc:	65732066 	0x65732066
  41aee0:	756c6c00 	jalx	5b1b000 <_gp+0x56f5630>
  41aee4:	416e6f64 	0x416e6f64
  41aee8:	65207461 	0x65207461
  41aeec:	626c6520 	0x626c6520
  41aef0:	6f766572 	0x6f766572
  41aef4:	666c6f77 	0x666c6f77
  41aef8:	00000000 	nop
  41aefc:	42616420 	c0	0x616420
  41af00:	72657175 	0x72657175
  41af04:	65737420 	0x65737420
  41af08:	636f6465 	0x636f6465
  41af0c:	00000000 	nop
  41af10:	496e7661 	0x496e7661
  41af14:	6c696420 	0x6c696420
  41af18:	736c6f74 	0x736c6f74
  41af1c:	00000000 	nop
  41af20:	46696c65 	c1	0x696c65
  41af24:	206c6f63 	addi	$t4,$v1,28515
  41af28:	6b696e67 	0x6b696e67
  41af2c:	20646561 	addi	$a0,$v1,25953
  41af30:	646c6f63 	0x646c6f63
  41af34:	6b000000 	0x6b000000
  41af38:	42616420 	c0	0x616420
  41af3c:	666f6e74 	0x666f6e74
  41af40:	2066696c 	addi	$a2,$v1,26988
  41af44:	6520666f 	0x6520666f
  41af48:	726d6174 	0x726d6174
  41af4c:	00000000 	nop
  41af50:	4572726f 	0x4572726f
  41af54:	72203538 	0x72203538
  41af58:	00000000 	nop
  41af5c:	4572726f 	0x4572726f
  41af60:	72203539 	0x72203539
  41af64:	00000000 	nop
  41af68:	4e6f7420 	c3	0x6f7420
  41af6c:	61207374 	0x61207374
  41af70:	7265616d 	0x7265616d
  41af74:	20646576 	addi	$a0,$v1,25974
  41af78:	69636500 	0x69636500
  41af7c:	4e6f2064 	c3	0x6f2064
  41af80:	61746120 	0x61746120
  41af84:	61766169 	0x61766169
  41af88:	6c61626c 	0x6c61626c
  41af8c:	65000000 	0x65000000
  41af90:	54696d65 	0x54696d65
  41af94:	72206578 	0x72206578
  41af98:	70697265 	0x70697265
  41af9c:	64000000 	0x64000000
  41afa0:	4f757420 	c3	0x1757420
  41afa4:	6f662073 	0x6f662073
  41afa8:	74726561 	jalx	1c99584 <_gp+0x1873bb4>
  41afac:	6d207265 	0x6d207265
  41afb0:	736f7572 	0x736f7572
  41afb4:	63657300 	0x63657300
  41afb8:	4d616368 	0x4d616368
  41afbc:	696e6520 	0x696e6520
  41afc0:	6973206e 	0x6973206e
  41afc4:	6f74206f 	0x6f74206f
  41afc8:	6e207468 	0x6e207468
  41afcc:	65206e65 	0x65206e65
  41afd0:	74776f72 	jalx	1ddbdc8 <_gp+0x19b63f8>
  41afd4:	6b000000 	0x6b000000
  41afd8:	5061636b 	0x5061636b
  41afdc:	61676520 	0x61676520
  41afe0:	6e6f7420 	0x6e6f7420
  41afe4:	696e7374 	0x696e7374
  41afe8:	616c6c65 	0x616c6c65
  41afec:	64000000 	0x64000000
  41aff0:	4f626a65 	c3	0x1626a65
  41aff4:	63742069 	0x63742069
  41aff8:	73207265 	0x73207265
  41affc:	6d6f7465 	0x6d6f7465
  41b000:	00000000 	nop
  41b004:	4c696e6b 	0x4c696e6b
  41b008:	20686173 	addi	$t0,$v1,24947
  41b00c:	20626565 	addi	$v0,$v1,25957
  41b010:	6e207365 	0x6e207365
  41b014:	76657265 	jalx	995c994 <_gp+0x9536fc4>
  41b018:	64000000 	0x64000000
  41b01c:	41647665 	0x41647665
  41b020:	72746973 	0x72746973
  41b024:	65206572 	0x65206572
  41b028:	726f7200 	0x726f7200
  41b02c:	53726d6f 	0x53726d6f
  41b030:	756e7420 	jalx	5b9d080 <_gp+0x57776b0>
  41b034:	6572726f 	0x6572726f
  41b038:	72000000 	0x72000000
  41b03c:	436f6d6d 	c0	0x16f6d6d
  41b040:	756e6963 	jalx	5b9a58c <_gp+0x5774bbc>
  41b044:	6174696f 	0x6174696f
  41b048:	6e206572 	0x6e206572
  41b04c:	726f7220 	0x726f7220
  41b050:	6f6e2073 	0x6f6e2073
  41b054:	656e6400 	0x656e6400
  41b058:	50726f74 	0x50726f74
  41b05c:	6f636f6c 	0x6f636f6c
  41b060:	20657272 	addi	$a1,$v1,29298
  41b064:	6f720000 	0x6f720000
  41b068:	4572726f 	0x4572726f
  41b06c:	72203732 	0x72203732
  41b070:	00000000 	nop
  41b074:	4572726f 	0x4572726f
  41b078:	72203733 	0x72203733
  41b07c:	00000000 	nop
  41b080:	4d756c74 	0x4d756c74
  41b084:	69686f70 	0x69686f70
  41b088:	20617474 	addi	$at,$v1,29812
  41b08c:	656d7074 	0x656d7074
  41b090:	65640000 	0x65640000
  41b094:	4572726f 	0x4572726f
  41b098:	72203735 	0x72203735
  41b09c:	00000000 	nop
  41b0a0:	4572726f 	0x4572726f
  41b0a4:	72203736 	0x72203736
  41b0a8:	00000000 	nop
  41b0ac:	4e6f7420 	c3	0x6f7420
  41b0b0:	61206461 	0x61206461
  41b0b4:	7461206d 	jalx	18481b4 <_gp+0x14227e4>
  41b0b8:	65737361 	0x65737361
  41b0bc:	67650000 	0x67650000
  41b0c0:	46696c65 	c1	0x696c65
  41b0c4:	206e616d 	addi	$t6,$v1,24941
  41b0c8:	6520746f 	0x6520746f
  41b0cc:	6f206c6f 	0x6f206c6f
  41b0d0:	6e670000 	0x6e670000
  41b0d4:	56616c75 	0x56616c75
  41b0d8:	6520746f 	0x6520746f
  41b0dc:	6f206c61 	0x6f206c61
  41b0e0:	72676520 	0x72676520
  41b0e4:	666f7220 	0x666f7220
  41b0e8:	64656669 	0x64656669
  41b0ec:	6e656420 	0x6e656420
  41b0f0:	64617461 	0x64617461
  41b0f4:	20747970 	addi	$s4,$v1,31088
  41b0f8:	65000000 	0x65000000
  41b0fc:	4e616d65 	c3	0x616d65
  41b100:	206e6f74 	addi	$t6,$v1,28532
  41b104:	20756e69 	addi	$s5,$v1,28265
  41b108:	71756520 	0x71756520
  41b10c:	6f6e206e 	0x6f6e206e
  41b110:	6574776f 	0x6574776f
  41b114:	726b0000 	0x726b0000
  41b118:	46696c65 	c1	0x696c65
  41b11c:	20646573 	addi	$a0,$v1,25971
  41b120:	63726970 	0x63726970
  41b124:	746f7220 	jalx	1bdc880 <_gp+0x17b6eb0>
  41b128:	696e2062 	0x696e2062
  41b12c:	61642073 	0x61642073
  41b130:	74617465 	jalx	185d194 <_gp+0x14377c4>
  41b134:	00000000 	nop
  41b138:	52656d6f 	0x52656d6f
  41b13c:	74652061 	jalx	1948184 <_gp+0x15227b4>
  41b140:	64647265 	0x64647265
  41b144:	73732063 	0x73732063
  41b148:	68616e67 	0x68616e67
  41b14c:	65640000 	0x65640000
  41b150:	43616e6e 	c0	0x1616e6e
  41b154:	6f742061 	0x6f742061
  41b158:	63636573 	0x63636573
  41b15c:	73206120 	0x73206120
  41b160:	6e656564 	0x6e656564
  41b164:	65642073 	0x65642073
  41b168:	68617265 	0x68617265
  41b16c:	64206c69 	0x64206c69
  41b170:	62726172 	0x62726172
  41b174:	79000000 	0x79000000
  41b178:	41636365 	0x41636365
  41b17c:	7373696e 	0x7373696e
  41b180:	67206120 	0x67206120
  41b184:	636f7272 	0x636f7272
  41b188:	75707465 	jalx	5c1d194 <_gp+0x57f77c4>
  41b18c:	64207368 	0x64207368
  41b190:	61726564 	0x61726564
  41b194:	206c6962 	addi	$t4,$v1,26978
  41b198:	72617279 	0x72617279
  41b19c:	00000000 	nop
  41b1a0:	2e6c6962 	sltiu	$t4,$s3,26978
  41b1a4:	20736563 	addi	$s3,$v1,25955
  41b1a8:	74696f6e 	jalx	1a5bdb8 <_gp+0x16363e8>
  41b1ac:	20696e20 	addi	$t1,$v1,28192
  41b1b0:	612e6f75 	0x612e6f75
  41b1b4:	7420636f 	jalx	818dbc <_gp+0x3f33ec>
  41b1b8:	72727570 	0x72727570
  41b1bc:	74656400 	jalx	1959000 <_gp+0x1533630>
  41b1c0:	41747465 	0x41747465
  41b1c4:	6d707469 	0x6d707469
  41b1c8:	6e672074 	0x6e672074
  41b1cc:	6f206c69 	0x6f206c69
  41b1d0:	6e6b2069 	0x6e6b2069
  41b1d4:	6e206d6f 	0x6e206d6f
  41b1d8:	72652073 	0x72652073
  41b1dc:	68617265 	0x68617265
  41b1e0:	64206c69 	0x64206c69
  41b1e4:	62726172 	0x62726172
  41b1e8:	69657320 	0x69657320
  41b1ec:	7468616e 	jalx	1a185b8 <_gp+0x15f2be8>
  41b1f0:	20737973 	addi	$s3,$v1,31091
  41b1f4:	74656d20 	jalx	195b480 <_gp+0x1535ab0>
  41b1f8:	6c696d69 	0x6c696d69
  41b1fc:	74000000 	jalx	0 <__istart-0x400fac>
  41b200:	43616e6e 	c0	0x1616e6e
  41b204:	6f742065 	0x6f742065
  41b208:	78656320 	0x78656320
  41b20c:	61207368 	0x61207368
  41b210:	61726564 	0x61726564
  41b214:	206c6962 	addi	$t4,$v1,26978
  41b218:	72617279 	0x72617279
  41b21c:	20646972 	addi	$a0,$v1,26994
  41b220:	6563746c 	0x6563746c
  41b224:	79000000 	0x79000000
  41b228:	496c6c65 	0x496c6c65
  41b22c:	67616c20 	0x67616c20
  41b230:	62797465 	0x62797465
  41b234:	20736571 	addi	$s3,$v1,25969
  41b238:	75656e63 	jalx	595b98c <_gp+0x5535fbc>
  41b23c:	65000000 	0x65000000
  41b240:	4f706572 	c3	0x1706572
  41b244:	6174696f 	0x6174696f
  41b248:	6e206e6f 	0x6e206e6f
  41b24c:	74206170 	jalx	8185c0 <_gp+0x3f2bf0>
  41b250:	706c6963 	0x706c6963
  41b254:	61626c65 	0x61626c65
  41b258:	00000000 	nop
  41b25c:	546f6f20 	0x546f6f20
  41b260:	6d616e79 	0x6d616e79
  41b264:	2073796d 	addi	$s3,$v1,31085
  41b268:	626f6c69 	0x626f6c69
  41b26c:	63206c69 	0x63206c69
  41b270:	6e6b7320 	0x6e6b7320
  41b274:	696e2070 	0x696e2070
  41b278:	61746820 	0x61746820
  41b27c:	6e616d65 	0x6e616d65
  41b280:	20747261 	addi	$s4,$v1,29281
  41b284:	76657273 	jalx	995c9cc <_gp+0x9536ffc>
  41b288:	616c0000 	0x616c0000
  41b28c:	52657374 	0x52657374
  41b290:	61727461 	0x61727461
  41b294:	626c6520 	0x626c6520
  41b298:	73797374 	0x73797374
  41b29c:	656d2063 	0x656d2063
  41b2a0:	616c6c00 	0x616c6c00
  41b2a4:	49662070 	0x49662070
  41b2a8:	6970652f 	0x6970652f
  41b2ac:	4649464f 	c1	0x49464f
  41b2b0:	2c20646f 	sltiu	$zero,$at,25711
  41b2b4:	6e277420 	0x6e277420
  41b2b8:	736c6565 	0x736c6565
  41b2bc:	7020696e 	0x7020696e
  41b2c0:	20737472 	addi	$s3,$v1,29810
  41b2c4:	65616d20 	0x65616d20
  41b2c8:	68656164 	0x68656164
  41b2cc:	00000000 	nop
  41b2d0:	44697265 	0x44697265
  41b2d4:	63746f72 	0x63746f72
  41b2d8:	79206e6f 	0x79206e6f
  41b2dc:	7420656d 	jalx	8195b4 <_gp+0x3f3be4>
  41b2e0:	70747900 	0x70747900
  41b2e4:	546f6f20 	0x546f6f20
  41b2e8:	6d616e79 	0x6d616e79
  41b2ec:	20757365 	addi	$s5,$v1,29541
  41b2f0:	72730000 	0x72730000
  41b2f4:	536f636b 	0x536f636b
  41b2f8:	6574206f 	0x6574206f
  41b2fc:	70657261 	0x70657261
  41b300:	74696f6e 	jalx	1a5bdb8 <_gp+0x16363e8>
  41b304:	206f6e20 	addi	$t7,$v1,28192
  41b308:	6e6f6e2d 	0x6e6f6e2d
  41b30c:	736f636b 	0x736f636b
  41b310:	65740000 	0x65740000
  41b314:	44657374 	0x44657374
  41b318:	696e6174 	0x696e6174
  41b31c:	696f6e20 	0x696f6e20
  41b320:	61646472 	0x61646472
  41b324:	65737320 	0x65737320
  41b328:	72657175 	0x72657175
  41b32c:	69726564 	0x69726564
  41b330:	00000000 	nop
  41b334:	4d657373 	0x4d657373
  41b338:	61676520 	0x61676520
  41b33c:	746f6f20 	jalx	1bdbc80 <_gp+0x17b62b0>
  41b340:	6c6f6e67 	0x6c6f6e67
  41b344:	00000000 	nop
  41b348:	50726f74 	0x50726f74
  41b34c:	6f636f6c 	0x6f636f6c
  41b350:	2077726f 	addi	$s7,$v1,29295
  41b354:	6e672074 	0x6e672074
  41b358:	79706520 	0x79706520
  41b35c:	666f7220 	0x666f7220
  41b360:	736f636b 	0x736f636b
  41b364:	65740000 	0x65740000
  41b368:	4f707469 	c3	0x1707469
  41b36c:	6f6e206e 	0x6f6e206e
  41b370:	6f742073 	0x6f742073
  41b374:	7570706f 	jalx	5c1c1bc <_gp+0x57f67ec>
  41b378:	72746564 	0x72746564
  41b37c:	20627920 	addi	$v0,$v1,31008
  41b380:	70726f74 	0x70726f74
  41b384:	6f636f6c 	0x6f636f6c
  41b388:	00000000 	nop
  41b38c:	4572726f 	0x4572726f
  41b390:	72203130 	0x72203130
  41b394:	30000000 	andi	$zero,$zero,0x0
  41b398:	4572726f 	0x4572726f
  41b39c:	72203130 	0x72203130
  41b3a0:	31000000 	andi	$zero,$t0,0x0
  41b3a4:	4572726f 	0x4572726f
  41b3a8:	72203130 	0x72203130
  41b3ac:	32000000 	andi	$zero,$s0,0x0
  41b3b0:	4572726f 	0x4572726f
  41b3b4:	72203130 	0x72203130
  41b3b8:	33000000 	andi	$zero,$t8,0x0
  41b3bc:	4572726f 	0x4572726f
  41b3c0:	72203130 	0x72203130
  41b3c4:	34000000 	li	$zero,0x0
  41b3c8:	4572726f 	0x4572726f
  41b3cc:	72203130 	0x72203130
  41b3d0:	35000000 	ori	$zero,$t0,0x0
  41b3d4:	4572726f 	0x4572726f
  41b3d8:	72203130 	0x72203130
  41b3dc:	36000000 	ori	$zero,$s0,0x0
  41b3e0:	4572726f 	0x4572726f
  41b3e4:	72203130 	0x72203130
  41b3e8:	37000000 	ori	$zero,$t8,0x0
  41b3ec:	4572726f 	0x4572726f
  41b3f0:	72203130 	0x72203130
  41b3f4:	38000000 	xori	$zero,$zero,0x0
  41b3f8:	4572726f 	0x4572726f
  41b3fc:	72203130 	0x72203130
  41b400:	39000000 	xori	$zero,$t0,0x0
  41b404:	4572726f 	0x4572726f
  41b408:	72203131 	0x72203131
  41b40c:	30000000 	andi	$zero,$zero,0x0
  41b410:	4572726f 	0x4572726f
  41b414:	72203131 	0x72203131
  41b418:	31000000 	andi	$zero,$t0,0x0
  41b41c:	4572726f 	0x4572726f
  41b420:	72203131 	0x72203131
  41b424:	32000000 	andi	$zero,$s0,0x0
  41b428:	4572726f 	0x4572726f
  41b42c:	72203131 	0x72203131
  41b430:	33000000 	andi	$zero,$t8,0x0
  41b434:	4572726f 	0x4572726f
  41b438:	72203131 	0x72203131
  41b43c:	34000000 	li	$zero,0x0
  41b440:	4572726f 	0x4572726f
  41b444:	72203131 	0x72203131
  41b448:	35000000 	ori	$zero,$t0,0x0
  41b44c:	4572726f 	0x4572726f
  41b450:	72203131 	0x72203131
  41b454:	36000000 	ori	$zero,$s0,0x0
  41b458:	4572726f 	0x4572726f
  41b45c:	72203131 	0x72203131
  41b460:	37000000 	ori	$zero,$t8,0x0
  41b464:	4572726f 	0x4572726f
  41b468:	72203131 	0x72203131
  41b46c:	38000000 	xori	$zero,$zero,0x0
  41b470:	4572726f 	0x4572726f
  41b474:	72203131 	0x72203131
  41b478:	39000000 	xori	$zero,$t0,0x0
  41b47c:	50726f74 	0x50726f74
  41b480:	6f636f6c 	0x6f636f6c
  41b484:	206e6f74 	addi	$t6,$v1,28532
  41b488:	20737570 	addi	$s3,$v1,30064
  41b48c:	706f7274 	0x706f7274
  41b490:	65640000 	0x65640000
  41b494:	536f636b 	0x536f636b
  41b498:	65742074 	0x65742074
  41b49c:	79706520 	0x79706520
  41b4a0:	6e6f7420 	0x6e6f7420
  41b4a4:	73757070 	0x73757070
  41b4a8:	6f727465 	0x6f727465
  41b4ac:	64000000 	0x64000000
  41b4b0:	4f706572 	c3	0x1706572
  41b4b4:	6174696f 	0x6174696f
  41b4b8:	6e206e6f 	0x6e206e6f
  41b4bc:	74207375 	jalx	81cdd4 <_gp+0x3f7404>
  41b4c0:	70706f72 	0x70706f72
  41b4c4:	74656420 	jalx	1959080 <_gp+0x15336b0>
  41b4c8:	6f6e2074 	0x6f6e2074
  41b4cc:	72616e73 	0x72616e73
  41b4d0:	706f7274 	0x706f7274
  41b4d4:	20656e64 	addi	$a1,$v1,28260
  41b4d8:	706f696e 	0x706f696e
  41b4dc:	74000000 	jalx	0 <__istart-0x400fac>
  41b4e0:	50726f74 	0x50726f74
  41b4e4:	6f636f6c 	0x6f636f6c
  41b4e8:	2066616d 	addi	$a2,$v1,24941
  41b4ec:	696c7920 	0x696c7920
  41b4f0:	6e6f7420 	0x6e6f7420
  41b4f4:	73757070 	0x73757070
  41b4f8:	6f727465 	0x6f727465
  41b4fc:	64000000 	0x64000000
  41b500:	41646472 	0x41646472
  41b504:	65737320 	0x65737320
  41b508:	66616d69 	0x66616d69
  41b50c:	6c79206e 	0x6c79206e
  41b510:	6f742073 	0x6f742073
  41b514:	7570706f 	jalx	5c1c1bc <_gp+0x57f67ec>
  41b518:	72746564 	0x72746564
  41b51c:	20627920 	addi	$v0,$v1,31008
  41b520:	70726f74 	0x70726f74
  41b524:	6f636f6c 	0x6f636f6c
  41b528:	2066616d 	addi	$a2,$v1,24941
  41b52c:	696c7900 	0x696c7900
  41b530:	41646472 	0x41646472
  41b534:	65737320 	0x65737320
  41b538:	616c7265 	0x616c7265
  41b53c:	61647920 	0x61647920
  41b540:	696e2075 	0x696e2075
  41b544:	73650000 	0x73650000
  41b548:	43616e6e 	c0	0x1616e6e
  41b54c:	6f742061 	0x6f742061
  41b550:	73736967 	0x73736967
  41b554:	6e207265 	0x6e207265
  41b558:	71756573 	0x71756573
  41b55c:	74656420 	jalx	1959080 <_gp+0x15336b0>
  41b560:	61646472 	0x61646472
  41b564:	65737300 	0x65737300
  41b568:	4e657477 	c3	0x657477
  41b56c:	6f726b20 	0x6f726b20
  41b570:	69732064 	0x69732064
  41b574:	6f776e00 	0x6f776e00
  41b578:	4e657477 	c3	0x657477
  41b57c:	6f726b20 	0x6f726b20
  41b580:	69732075 	0x69732075
  41b584:	6e726561 	0x6e726561
  41b588:	63686162 	0x63686162
  41b58c:	6c650000 	0x6c650000
  41b590:	4e657477 	c3	0x657477
  41b594:	6f726b20 	0x6f726b20
  41b598:	64726f70 	0x64726f70
  41b59c:	70656420 	0x70656420
  41b5a0:	636f6e6e 	0x636f6e6e
  41b5a4:	65637469 	0x65637469
  41b5a8:	6f6e2062 	0x6f6e2062
  41b5ac:	65636175 	0x65636175
  41b5b0:	7365206f 	0x7365206f
  41b5b4:	66207265 	0x66207265
  41b5b8:	73657400 	0x73657400
  41b5bc:	536f6674 	0x536f6674
  41b5c0:	77617265 	jalx	d85c994 <_gp+0xd436fc4>
  41b5c4:	20636175 	addi	$v1,$v1,24949
  41b5c8:	73656420 	0x73656420
  41b5cc:	636f6e6e 	0x636f6e6e
  41b5d0:	65637469 	0x65637469
  41b5d4:	6f6e2061 	0x6f6e2061
  41b5d8:	626f7274 	0x626f7274
  41b5dc:	00000000 	nop
  41b5e0:	436f6e6e 	c0	0x16f6e6e
  41b5e4:	65637469 	0x65637469
  41b5e8:	6f6e2072 	0x6f6e2072
  41b5ec:	65736574 	0x65736574
  41b5f0:	20627920 	addi	$v0,$v1,31008
  41b5f4:	70656572 	0x70656572
  41b5f8:	00000000 	nop
  41b5fc:	4e6f2062 	c3	0x6f2062
  41b600:	75666665 	jalx	5999994 <_gp+0x5573fc4>
  41b604:	72207370 	0x72207370
  41b608:	61636520 	0x61636520
  41b60c:	61766169 	0x61766169
  41b610:	6c61626c 	0x6c61626c
  41b614:	65000000 	0x65000000
  41b618:	5472616e 	0x5472616e
  41b61c:	73706f72 	0x73706f72
  41b620:	7420656e 	jalx	8195b8 <_gp+0x3f3be8>
  41b624:	64706f69 	0x64706f69
  41b628:	6e742069 	0x6e742069
  41b62c:	7320616c 	0x7320616c
  41b630:	72656164 	0x72656164
  41b634:	7920636f 	0x7920636f
  41b638:	6e6e6563 	0x6e6e6563
  41b63c:	74656400 	jalx	1959000 <_gp+0x1533630>
  41b640:	5472616e 	0x5472616e
  41b644:	73706f72 	0x73706f72
  41b648:	7420656e 	jalx	8195b8 <_gp+0x3f3be8>
  41b64c:	64706f69 	0x64706f69
  41b650:	6e742069 	0x6e742069
  41b654:	73206e6f 	0x73206e6f
  41b658:	7420636f 	jalx	818dbc <_gp+0x3f33ec>
  41b65c:	6e6e6563 	0x6e6e6563
  41b660:	74656400 	jalx	1959000 <_gp+0x1533630>
  41b664:	53747275 	0x53747275
  41b668:	63747572 	0x63747572
  41b66c:	65206e65 	0x65206e65
  41b670:	65647320 	0x65647320
  41b674:	636c6561 	0x636c6561
  41b678:	6e696e67 	0x6e696e67
  41b67c:	00000000 	nop
  41b680:	4572726f 	0x4572726f
  41b684:	72203133 	0x72203133
  41b688:	36000000 	ori	$zero,$s0,0x0
  41b68c:	4e6f7420 	c3	0x6f7420
  41b690:	61206e61 	0x61206e61
  41b694:	6d652066 	0x6d652066
  41b698:	696c6500 	0x696c6500
  41b69c:	4e6f7420 	c3	0x6f7420
  41b6a0:	61766169 	0x61766169
  41b6a4:	6c61626c 	0x6c61626c
  41b6a8:	65000000 	0x65000000
  41b6ac:	49732061 	0x49732061
  41b6b0:	206e616d 	addi	$t6,$v1,24941
  41b6b4:	65206669 	0x65206669
  41b6b8:	6c650000 	0x6c650000
  41b6bc:	52656d6f 	0x52656d6f
  41b6c0:	74652049 	jalx	1948124 <_gp+0x1522754>
  41b6c4:	2f4f2065 	sltiu	$t7,$k0,8293
  41b6c8:	72726f72 	0x72726f72
  41b6cc:	00000000 	nop
  41b6d0:	52657365 	0x52657365
  41b6d4:	72766564 	0x72766564
  41b6d8:	20666f72 	addi	$a2,$v1,28530
  41b6dc:	20667574 	addi	$a2,$v1,30068
  41b6e0:	75726520 	jalx	5c99480 <_gp+0x5873ab0>
  41b6e4:	75736500 	jalx	5cd9400 <_gp+0x58b3a30>
  41b6e8:	4572726f 	0x4572726f
  41b6ec:	72203134 	0x72203134
  41b6f0:	32000000 	andi	$zero,$s0,0x0
  41b6f4:	43616e6e 	c0	0x1616e6e
  41b6f8:	6f742073 	0x6f742073
  41b6fc:	656e6420 	0x656e6420
  41b700:	61667465 	0x61667465
  41b704:	7220736f 	0x7220736f
  41b708:	636b6574 	0x636b6574
  41b70c:	20736875 	addi	$s3,$v1,26741
  41b710:	74646f77 	jalx	191bddc <_gp+0x14f640c>
  41b714:	6e000000 	0x6e000000
  41b718:	546f6f20 	0x546f6f20
  41b71c:	6d616e79 	0x6d616e79
  41b720:	20726566 	addi	$s2,$v1,25958
  41b724:	6572656e 	0x6572656e
  41b728:	6365733a 	0x6365733a
  41b72c:	2063616e 	addi	$v1,$v1,24942
  41b730:	6e6f7420 	0x6e6f7420
  41b734:	73706c69 	0x73706c69
  41b738:	63650000 	0x63650000
  41b73c:	436f6e6e 	c0	0x16f6e6e
  41b740:	65637469 	0x65637469
  41b744:	6f6e2074 	0x6f6e2074
  41b748:	696d6564 	0x696d6564
  41b74c:	206f7574 	addi	$t7,$v1,30068
  41b750:	00000000 	nop
  41b754:	436f6e6e 	c0	0x16f6e6e
  41b758:	65637469 	0x65637469
  41b75c:	6f6e2072 	0x6f6e2072
  41b760:	65667573 	0x65667573
  41b764:	65640000 	0x65640000
  41b768:	486f7374 	0x486f7374
  41b76c:	20697320 	addi	$t1,$v1,29472
  41b770:	646f776e 	0x646f776e
  41b774:	00000000 	nop
  41b778:	4e6f2072 	c3	0x6f2072
  41b77c:	6f757465 	0x6f757465
  41b780:	20746f20 	addi	$s4,$v1,28448
  41b784:	686f7374 	0x686f7374
  41b788:	00000000 	nop
  41b78c:	4f706572 	c3	0x1706572
  41b790:	6174696f 	0x6174696f
  41b794:	6e20616c 	0x6e20616c
  41b798:	72656164 	0x72656164
  41b79c:	7920696e 	0x7920696e
  41b7a0:	2070726f 	addi	$s0,$v1,29295
  41b7a4:	67726573 	0x67726573
  41b7a8:	73000000 	0x73000000
  41b7ac:	4f706572 	c3	0x1706572
  41b7b0:	6174696f 	0x6174696f
  41b7b4:	6e206e6f 	0x6e206e6f
  41b7b8:	7720696e 	jalx	c81a5b8 <_gp+0xc3f4be8>
  41b7bc:	2070726f 	addi	$s0,$v1,29295
  41b7c0:	67726573 	0x67726573
  41b7c4:	73000000 	0x73000000
  41b7c8:	5374616c 	0x5374616c
  41b7cc:	65204e46 	0x65204e46
  41b7d0:	53206669 	0x53206669
  41b7d4:	6c652068 	0x6c652068
  41b7d8:	616e646c 	0x616e646c
  41b7dc:	65000000 	0x65000000
  41b7e0:	75787367 	jalx	5e1cd9c <_gp+0x59f73cc>
  41b7e4:	69657272 	0x69657272
  41b7e8:	00000000 	nop
  41b7ec:	75787379 	jalx	5e1cde4 <_gp+0x59f7414>
  41b7f0:	73657272 	0x73657272
	...

0041b800 <_sys_index>:
  41b800:	00000003 	sra	$zero,$zero,0x0
  41b804:	00000004 	sllv	$zero,$zero,$zero
  41b808:	00000005 	0x5
  41b80c:	00000006 	srlv	$zero,$zero,$zero
  41b810:	00000007 	srav	$zero,$zero,$zero
  41b814:	00000008 	jr	$zero
  41b818:	00000009 	jalr	$zero,$zero
  41b81c:	0000000a 	0xa
  41b820:	0000000b 	0xb
  41b824:	0000000c 	syscall
  41b828:	0000000d 	break
  41b82c:	00010005 	0x10005
  41b830:	0000000f 	0xf
  41b834:	00000010 	mfhi	$zero
  41b838:	00000011 	mthi	$zero
  41b83c:	00000012 	mflo	$zero
  41b840:	00000013 	mtlo	$zero
  41b844:	00000014 	0x14
  41b848:	00000015 	0x15
  41b84c:	00000016 	0x16
  41b850:	00000017 	0x17
  41b854:	00000018 	mult	$zero,$zero
  41b858:	00000019 	multu	$zero,$zero
  41b85c:	0000001a 	div	$zero,$zero,$zero
  41b860:	0000001b 	divu	$zero,$zero,$zero
  41b864:	0000001c 	0x1c
  41b868:	0000001d 	0x1d
  41b86c:	0000001e 	0x1e
  41b870:	0000001f 	0x1f
  41b874:	00000020 	add	$zero,$zero,$zero
  41b878:	00000021 	move	$zero,$zero
  41b87c:	00000022 	neg	$zero,$zero
  41b880:	00000023 	negu	$zero,$zero
  41b884:	00000024 	and	$zero,$zero,$zero
  41b888:	00000025 	move	$zero,$zero
  41b88c:	00000026 	xor	$zero,$zero,$zero
  41b890:	00000027 	nor	$zero,$zero,$zero
  41b894:	00000028 	0x28
  41b898:	00000029 	0x29
  41b89c:	0000002a 	slt	$zero,$zero,$zero
  41b8a0:	0000002b 	sltu	$zero,$zero,$zero
  41b8a4:	0000002c 	0x2c
  41b8a8:	0000002d 	0x2d
  41b8ac:	0000002e 	0x2e
  41b8b0:	0000002f 	0x2f
  41b8b4:	00000030 	0x30
  41b8b8:	00000031 	0x31
  41b8bc:	00000001 	0x1
  41b8c0:	00000001 	0x1
  41b8c4:	00000001 	0x1
  41b8c8:	00000032 	0x32
  41b8cc:	00000033 	0x33
  41b8d0:	00000034 	0x34
  41b8d4:	00000035 	0x35
  41b8d8:	00000036 	0x36
  41b8dc:	00000037 	0x37
  41b8e0:	00000038 	0x38
  41b8e4:	00000039 	0x39
  41b8e8:	00000001 	0x1
  41b8ec:	00000001 	0x1
  41b8f0:	0000003a 	0x3a
  41b8f4:	0000003b 	0x3b
  41b8f8:	0000003c 	0x3c
  41b8fc:	0000003d 	0x3d
  41b900:	0000003e 	0x3e
  41b904:	0000003f 	0x3f
  41b908:	00000040 	sll	$zero,$zero,0x1
  41b90c:	00000041 	0x41
  41b910:	00000042 	srl	$zero,$zero,0x1
  41b914:	00000043 	sra	$zero,$zero,0x1
  41b918:	00000044 	0x44
  41b91c:	00000045 	0x45
  41b920:	00000001 	0x1
  41b924:	00000001 	0x1
  41b928:	00000046 	0x46
  41b92c:	00000001 	0x1
  41b930:	00000001 	0x1
  41b934:	00000047 	0x47
  41b938:	00000048 	0x48
  41b93c:	00000049 	0x49
  41b940:	0000004a 	0x4a
  41b944:	0000004b 	0x4b
  41b948:	0000004c 	syscall	0x1
  41b94c:	0000004d 	break	0x0
  41b950:	0000004e 	0x4e
  41b954:	0000004f 	0x4f
  41b958:	00000050 	0x50
  41b95c:	00000051 	0x51
  41b960:	00000052 	0x52
  41b964:	00000053 	0x53
  41b968:	00000054 	0x54
  41b96c:	00000055 	0x55
  41b970:	00000056 	0x56
  41b974:	00000057 	0x57
  41b978:	00000058 	0x58
  41b97c:	00000059 	0x59
  41b980:	0000005a 	0x5a
  41b984:	0000005b 	0x5b
  41b988:	0000005c 	0x5c
  41b98c:	0000005d 	0x5d
  41b990:	00000001 	0x1
  41b994:	00000001 	0x1
  41b998:	00000001 	0x1
  41b99c:	00000001 	0x1
  41b9a0:	00000001 	0x1
  41b9a4:	00000001 	0x1
  41b9a8:	00000001 	0x1
  41b9ac:	00000001 	0x1
  41b9b0:	00000001 	0x1
  41b9b4:	00000001 	0x1
  41b9b8:	00000001 	0x1
  41b9bc:	00000001 	0x1
  41b9c0:	00000001 	0x1
  41b9c4:	00000001 	0x1
  41b9c8:	00000001 	0x1
  41b9cc:	00000001 	0x1
  41b9d0:	00000001 	0x1
  41b9d4:	00000001 	0x1
  41b9d8:	00000001 	0x1
  41b9dc:	00000001 	0x1
  41b9e0:	0000005e 	0x5e
  41b9e4:	0000005f 	0x5f
  41b9e8:	00000060 	0x60
  41b9ec:	00000061 	0x61
  41b9f0:	00000062 	0x62
  41b9f4:	00000063 	0x63
  41b9f8:	00000064 	0x64
  41b9fc:	00000065 	0x65
  41ba00:	00000066 	0x66
  41ba04:	00000067 	0x67
  41ba08:	00000068 	0x68
  41ba0c:	00000069 	0x69
  41ba10:	0000006a 	0x6a
  41ba14:	0000006b 	0x6b
  41ba18:	0000006c 	0x6c
  41ba1c:	0000006d 	0x6d
  41ba20:	00000001 	0x1
  41ba24:	0000006e 	0x6e
  41ba28:	0000006f 	0x6f
  41ba2c:	00000070 	0x70
  41ba30:	00000071 	0x71
  41ba34:	00000072 	0x72
  41ba38:	00000001 	0x1
  41ba3c:	00000073 	0x73
  41ba40:	00000074 	0x74
  41ba44:	00000075 	0x75
  41ba48:	00000076 	0x76
  41ba4c:	00000077 	0x77
  41ba50:	00000078 	0x78
  41ba54:	00000079 	0x79
  41ba58:	0000007a 	0x7a
  41ba5c:	0000007b 	0x7b
  41ba60:	00000001 	0x1
  41ba64:	43616e63 	c0	0x1616e63
  41ba68:	656c6c65 	0x656c6c65
  41ba6c:	64000000 	0x64000000
  41ba70:	426c6f63 	c0	0x6c6f63
  41ba74:	6b206e6f 	0x6b206e6f
  41ba78:	74206675 	jalx	8199d4 <_gp+0x3f4004>
  41ba7c:	6c6c7920 	0x6c6c7920
  41ba80:	7472616e 	jalx	1c985b8 <_gp+0x1872be8>
  41ba84:	73666572 	0x73666572
  41ba88:	72656400 	0x72656400
  41ba8c:	43616e63 	c0	0x1616e63
  41ba90:	656c6c65 	0x656c6c65
  41ba94:	64000000 	0x64000000
  41ba98:	44697363 	0x44697363
  41ba9c:	2071756f 	addi	$s1,$v1,30063
  41baa0:	74612065 	jalx	1848194 <_gp+0x14227c4>
  41baa4:	78636565 	0x78636565
  41baa8:	64656400 	0x64656400
  41baac:	546f6f20 	0x546f6f20
  41bab0:	6d616e79 	0x6d616e79
  41bab4:	206c6576 	addi	$t4,$v1,25974
  41bab8:	656c7320 	0x656c7320
  41babc:	6f662072 	0x6f662072
  41bac0:	656d6f74 	0x656d6f74
  41bac4:	6520696e 	0x6520696e
  41bac8:	20706174 	addi	$s0,$v1,24948
  41bacc:	68000000 	0x68000000
  41bad0:	4d657373 	0x4d657373
  41bad4:	61676520 	0x61676520
  41bad8:	6e6f7420 	0x6e6f7420
  41badc:	666f756e 	0x666f756e
  41bae0:	6421210a 	0x6421210a
  41bae4:	00000000 	nop
  41bae8:	2f757372 	sltiu	$s5,$k1,29554
  41baec:	2f6c6962 	sltiu	$t4,$k1,26978
  41baf0:	2f6c6f63 	sltiu	$t4,$k1,28515
  41baf4:	616c652f 	0x616c652f
  41baf8:	00000000 	nop
  41bafc:	2f4c435f 	sltiu	$t4,$k0,17247
  41bb00:	4d455353 	0x4d455353
  41bb04:	41474553 	0x41474553
  41bb08:	2f000000 	sltiu	$zero,$t8,0
  41bb0c:	00000000 	nop
  41bb10:	54524143 	0x54524143
  41bb14:	453a2050 	0x453a2050
  41bb18:	726f6365 	0x726f6365
  41bb1c:	73732025 	0x73732025
  41bb20:	64206465 	0x64206465
  41bb24:	6c657465 	0x6c657465
  41bb28:	64206173 	0x64206173
  41bb2c:	20746964 	addi	$s4,$v1,26980
  41bb30:	20256420 	addi	$a1,$at,25632
  41bb34:	66726f6d 	0x66726f6d
  41bb38:	20617265 	addi	$at,$v1,29285
  41bb3c:	6e612025 	0x6e612025
  41bb40:	73202866 	0x73202866
  41bb44:	696c6520 	0x696c6520
  41bb48:	6c6f636b 	0x6c6f636b
  41bb4c:	20676f6e 	addi	$a3,$v1,28526
  41bb50:	65292062 	0x65292062
  41bb54:	79207072 	0x79207072
  41bb58:	6f636573 	0x6f636573
  41bb5c:	73202564 	0x73202564
  41bb60:	00000000 	nop
  41bb64:	4552524f 	0x4552524f
  41bb68:	523a4174 	0x523a4174
  41bb6c:	74656d70 	jalx	195b5c0 <_gp+0x1535bf0>
  41bb70:	74206279 	jalx	8189e4 <_gp+0x3f3014>
  41bb74:	20256420 	addi	$a1,$at,25632
  41bb78:	746f2063 	jalx	1bc818c <_gp+0x17a27bc>
  41bb7c:	6c65616e 	0x6c65616e
  41bb80:	20746964 	addi	$s4,$v1,26980
  41bb84:	7320696e 	0x7320696e
  41bb88:	20617265 	addi	$at,$v1,29285
  41bb8c:	6e612025 	0x6e612025
  41bb90:	73206661 	0x73206661
  41bb94:	696c6564 	0x696c6564
  41bb98:	00000000 	nop
  41bb9c:	4552524f 	0x4552524f
  41bba0:	523a5072 	0x523a5072
  41bba4:	6f636573 	0x6f636573
  41bba8:	73202564 	0x73202564
  41bbac:	20696e20 	addi	$t1,$v1,28192
  41bbb0:	736c6f74 	0x736c6f74
  41bbb4:	20256420 	addi	$a1,$at,25632
  41bbb8:	62757420 	0x62757420
  41bbbc:	70696420 	0x70696420
  41bbc0:	2564206f 	addiu	$a0,$t3,8303
  41bbc4:	776e7320 	jalx	db9cc80 <_gp+0xd7772b0>
  41bbc8:	6c6f636b 	0x6c6f636b
  41bbcc:	2120696e 	addi	$zero,$t1,26990
  41bbd0:	20617265 	addi	$at,$v1,29285
  41bbd4:	6e612025 	0x6e612025
  41bbd8:	73000000 	0x73000000
  41bbdc:	4552524f 	0x4552524f
  41bbe0:	523a5072 	0x523a5072
  41bbe4:	6f636573 	0x6f636573
  41bbe8:	73202564 	0x73202564
  41bbec:	20617265 	addi	$at,$v1,29285
  41bbf0:	6e612030 	0x6e612030
  41bbf4:	78257820 	0x78257820
  41bbf8:	6e657665 	0x6e657665
  41bbfc:	7220696e 	0x7220696e
  41bc00:	69746961 	0x69746961
  41bc04:	6c697a65 	0x6c697a65
  41bc08:	6420285f 	0x6420285f
  41bc0c:	75736765 	jalx	5cd9d94 <_gp+0x58b43c4>
  41bc10:	74746964 	jalx	1d1a590 <_gp+0x18f4bc0>
  41bc14:	29000000 	slti	$zero,$t0,0
  41bc18:	4552524f 	0x4552524f
  41bc1c:	523a5072 	0x523a5072
  41bc20:	6f636573 	0x6f636573
  41bc24:	73202564 	0x73202564
  41bc28:	20617474 	addi	$at,$v1,29812
  41bc2c:	656d7074 	0x656d7074
  41bc30:	20746f20 	addi	$s4,$v1,28448
  41bc34:	67726162 	0x67726162
  41bc38:	20686561 	addi	$t0,$v1,25953
  41bc3c:	64657220 	0x64657220
  41bc40:	66696c65 	0x66696c65
  41bc44:	206c6f63 	addi	$t4,$v1,28515
  41bc48:	6b20666f 	0x6b20666f
  41bc4c:	72206172 	0x72206172
  41bc50:	656e6120 	0x656e6120
  41bc54:	25732066 	addiu	$s3,$t3,8294
  41bc58:	61696c65 	0x61696c65
  41bc5c:	64000000 	0x64000000
  41bc60:	4552524f 	0x4552524f
  41bc64:	523a5072 	0x523a5072
  41bc68:	6f636573 	0x6f636573
  41bc6c:	73202564 	0x73202564
  41bc70:	20617265 	addi	$at,$v1,29285
  41bc74:	6e612040 	0x6e612040
  41bc78:	30782578 	andi	$t8,$v1,0x2578
  41bc7c:	206e6576 	addi	$t6,$v1,25974
  41bc80:	65722069 	0x65722069
  41bc84:	6e697469 	0x6e697469
  41bc88:	616c697a 	0x616c697a
  41bc8c:	65642028 	0x65642028
  41bc90:	5f757363 	0x5f757363
  41bc94:	6c65616e 	0x6c65616e
  41bc98:	5f746964 	0x5f746964
  41bc9c:	6d617029 	0x6d617029
  41bca0:	00000000 	nop
  41bca4:	4552524f 	0x4552524f
  41bca8:	523a5072 	0x523a5072
  41bcac:	6f636573 	0x6f636573
  41bcb0:	73202564 	0x73202564
  41bcb4:	20617474 	addi	$at,$v1,29812
  41bcb8:	656d7074 	0x656d7074
  41bcbc:	20746f20 	addi	$s4,$v1,28448
  41bcc0:	63686563 	0x63686563
  41bcc4:	6b20666f 	0x6b20666f
  41bcc8:	72207469 	0x72207469
  41bccc:	64732069 	0x64732069
  41bcd0:	6e206172 	0x6e206172
  41bcd4:	656e6120 	0x656e6120
  41bcd8:	25732066 	addiu	$s3,$t3,8294
  41bcdc:	61696c65 	0x61696c65
  41bce0:	64000000 	0x64000000
  41bce4:	4552524f 	0x4552524f
  41bce8:	523a5072 	0x523a5072
  41bcec:	6f636573 	0x6f636573
  41bcf0:	73202564 	0x73202564
  41bcf4:	206e6f20 	addi	$t6,$v1,28448
  41bcf8:	74696473 	jalx	1a591cc <_gp+0x16337fc>
  41bcfc:	206c6566 	addi	$t4,$v1,25958
  41bd00:	7420696e 	jalx	81a5b8 <_gp+0x3f4be8>
  41bd04:	20617265 	addi	$at,$v1,29285
  41bd08:	6e612025 	0x6e612025
  41bd0c:	73204030 	0x73204030
  41bd10:	7825782e 	0x7825782e
  41bd14:	20546f6f 	addi	$s4,$v0,28527
  41bd18:	206d616e 	addi	$t5,$v1,24942
  41bd1c:	79207573 	0x79207573
  41bd20:	6572733f 	0x6572733f
  41bd24:	20286d61 	addi	$t0,$at,28001
  41bd28:	78203d20 	0x78203d20
  41bd2c:	25642900 	addiu	$a0,$t3,10496
  41bd30:	4552524f 	0x4552524f
  41bd34:	523a5072 	0x523a5072
  41bd38:	6f636573 	0x6f636573
  41bd3c:	73202564 	0x73202564
  41bd40:	20636f75 	addi	$v1,$v1,28533
  41bd44:	6c64206e 	0x6c64206e
  41bd48:	6f742067 	0x6f742067
  41bd4c:	65742072 	0x65742072
  41bd50:	6567756c 	0x6567756c
  41bd54:	61722073 	0x61722073
  41bd58:	656d6170 	0x656d6170
  41bd5c:	686f7265 	0x686f7265
  41bd60:	20646576 	addi	$a0,$v1,25974
  41bd64:	69636500 	0x69636500
  41bd68:	54524143 	0x54524143
  41bd6c:	453a2050 	0x453a2050
  41bd70:	726f6365 	0x726f6365
  41bd74:	73732025 	0x73732025
  41bd78:	64206164 	0x64206164
  41bd7c:	64656420 	0x64656420
  41bd80:	61732074 	0x61732074
  41bd84:	69642025 	0x69642025
  41bd88:	64207366 	0x64207366
  41bd8c:	64202564 	0x64202564
  41bd90:	20617265 	addi	$at,$v1,29285
  41bd94:	6e612025 	0x6e612025
  41bd98:	73206174 	0x73206174
  41bd9c:	20307825 	addi	$s0,$at,30757
  41bda0:	78000000 	0x78000000
  41bda4:	4552524f 	0x4552524f
  41bda8:	523a5072 	0x523a5072
  41bdac:	6f636573 	0x6f636573
  41bdb0:	73202564 	0x73202564
  41bdb4:	206e6f20 	addi	$t6,$v1,28448
  41bdb8:	74696473 	jalx	1a591cc <_gp+0x16337fc>
  41bdbc:	206c6566 	addi	$t4,$v1,25958
  41bdc0:	7420696e 	jalx	81a5b8 <_gp+0x3f4be8>
  41bdc4:	20617265 	addi	$at,$v1,29285
  41bdc8:	6e612025 	0x6e612025
  41bdcc:	732e2054 	0x732e2054
  41bdd0:	6f6f206d 	0x6f6f206d
  41bdd4:	616e7920 	0x616e7920
  41bdd8:	75736572 	jalx	5cd95c8 <_gp+0x58b3bf8>
  41bddc:	733f2028 	0x733f2028
  41bde0:	6d617820 	0x6d617820
  41bde4:	3d202564 	0x3d202564
  41bde8:	29000000 	slti	$zero,$t0,0
  41bdec:	4552524f 	0x4552524f
  41bdf0:	523a5072 	0x523a5072
  41bdf4:	6f636573 	0x6f636573
  41bdf8:	73202564 	0x73202564
  41bdfc:	20617474 	addi	$at,$v1,29812
  41be00:	656d7074 	0x656d7074
  41be04:	20746f20 	addi	$s4,$v1,28448
  41be08:	61646420 	0x61646420
  41be0c:	746f2061 	jalx	1bc8184 <_gp+0x17a27b4>
  41be10:	72656e61 	0x72656e61
  41be14:	20257320 	addi	$a1,$at,29472
  41be18:	40307825 	0x40307825
  41be1c:	78206661 	0x78206661
  41be20:	696c6564 	0x696c6564
  41be24:	00000000 	nop
  41be28:	7573696e 	jalx	5cda5b8 <_gp+0x58b4be8>
  41be2c:	69743a45 	0x69743a45
  41be30:	52524f52 	0x52524f52
  41be34:	3a756e61 	xori	$s5,$s3,0x6e61
  41be38:	626c6520 	0x626c6520
  41be3c:	746f207a 	jalx	1bc81e8 <_gp+0x17a2818>
  41be40:	65726f20 	0x65726f20
  41be44:	6172656e 	0x6172656e
  41be48:	61206669 	0x61206669
  41be4c:	6c650000 	0x6c650000
  41be50:	7573696e 	jalx	5cda5b8 <_gp+0x58b4be8>
  41be54:	69743a45 	0x69743a45
  41be58:	52524f52 	0x52524f52
  41be5c:	3a756e61 	xori	$s5,$s3,0x6e61
  41be60:	626c6520 	0x626c6520
  41be64:	746f2067 	jalx	1bc819c <_gp+0x17a27cc>
  41be68:	726f7720 	0x726f7720
  41be6c:	6172656e 	0x6172656e
  41be70:	61206669 	0x61206669
  41be74:	6c652074 	0x6c652074
  41be78:	6f202564 	0x6f202564
  41be7c:	20627974 	addi	$v0,$v1,31092
  41be80:	65730000 	0x65730000
  41be84:	7573696e 	jalx	5cda5b8 <_gp+0x58b4be8>
  41be88:	69743a45 	0x69743a45
  41be8c:	52524f52 	0x52524f52
  41be90:	3a50726f 	xori	$s0,$s2,0x726f
  41be94:	63657373 	0x63657373
  41be98:	20256420 	addi	$a1,$at,25632
  41be9c:	6d6d6170 	0x6d6d6170
  41bea0:	20666169 	addi	$a2,$v1,24937
  41bea4:	6c656420 	0x6c656420
  41bea8:	40307825 	0x40307825
  41beac:	78000000 	0x78000000
  41beb0:	7573696e 	jalx	5cda5b8 <_gp+0x58b4be8>
  41beb4:	69743a45 	0x69743a45
  41beb8:	52524f52 	0x52524f52
  41bebc:	3a50726f 	xori	$s0,$s2,0x726f
  41bec0:	63657373 	0x63657373
  41bec4:	20256420 	addi	$a1,$at,25632
  41bec8:	76697274 	jalx	9a5c9d0 <_gp+0x9637000>
  41becc:	75616c20 	jalx	585b080 <_gp+0x54356b0>
  41bed0:	61646472 	0x61646472
  41bed4:	65737320 	0x65737320
  41bed8:	30782578 	andi	$t8,$v1,0x2578
  41bedc:	20616c72 	addi	$at,$v1,27762
  41bee0:	65616479 	0x65616479
  41bee4:	20696e20 	addi	$t1,$v1,28192
  41bee8:	75736500 	jalx	5cd9400 <_gp+0x58b3a30>
  41beec:	7573696e 	jalx	5cda5b8 <_gp+0x58b4be8>
  41bef0:	69743a45 	0x69743a45
  41bef4:	52524f52 	0x52524f52
  41bef8:	3a666169 	xori	$a2,$s3,0x6169
  41befc:	6c656420 	0x6c656420
  41bf00:	746f2069 	jalx	1bc81a4 <_gp+0x17a27d4>
  41bf04:	6e697469 	0x6e697469
  41bf08:	616c697a 	0x616c697a
  41bf0c:	65206865 	0x65206865
  41bf10:	61646572 	0x61646572
  41bf14:	00000000 	nop
  41bf18:	55535452 	0x55535452
  41bf1c:	41434546 	0x41434546
  41bf20:	494c4500 	0x494c4500
  41bf24:	2f646576 	sltiu	$a0,$k1,25974
  41bf28:	2f7a6572 	sltiu	$k0,$k1,25970
  41bf2c:	6f000000 	0x6f000000
  41bf30:	54524143 	0x54524143
  41bf34:	453a2050 	0x453a2050
  41bf38:	726f6365 	0x726f6365
  41bf3c:	73732025 	0x73732025
  41bf40:	6420616c 	0x6420616c
  41bf44:	72656164 	0x72656164
  41bf48:	79206d61 	0x79206d61
  41bf4c:	70706564 	0x70706564
  41bf50:	20746f20 	addi	$s4,$v1,28448
  41bf54:	6172656e 	0x6172656e
  41bf58:	61202573 	0x61202573
  41bf5c:	00000000 	nop
  41bf60:	2f646576 	sltiu	$a0,$k1,25974
  41bf64:	2f7a6572 	sltiu	$k0,$k1,25970
  41bf68:	6f000000 	0x6f000000
  41bf6c:	7573696e 	jalx	5cda5b8 <_gp+0x58b4be8>
  41bf70:	69743a45 	0x69743a45
  41bf74:	52524f52 	0x52524f52
  41bf78:	3a50726f 	xori	$s0,$s2,0x726f
  41bf7c:	63657373 	0x63657373
  41bf80:	20256420 	addi	$a1,$at,25632
  41bf84:	6f70656e 	0x6f70656e
  41bf88:	206f6e20 	addi	$t7,$v1,28192
  41bf8c:	25732066 	addiu	$s3,$t3,8294
  41bf90:	61696c65 	0x61696c65
  41bf94:	64000000 	0x64000000
  41bf98:	7573696e 	jalx	5cda5b8 <_gp+0x58b4be8>
  41bf9c:	69743a45 	0x69743a45
  41bfa0:	52524f52 	0x52524f52
  41bfa4:	3a50726f 	xori	$s0,$s2,0x726f
  41bfa8:	63657373 	0x63657373
  41bfac:	20256420 	addi	$a1,$at,25632
  41bfb0:	6f70656e 	0x6f70656e
  41bfb4:	206f6e20 	addi	$t7,$v1,28192
  41bfb8:	25732066 	addiu	$s3,$t3,8294
  41bfbc:	61696c65 	0x61696c65
  41bfc0:	64000000 	0x64000000
  41bfc4:	7573696e 	jalx	5cda5b8 <_gp+0x58b4be8>
  41bfc8:	69743a45 	0x69743a45
  41bfcc:	52524f52 	0x52524f52
  41bfd0:	3a50726f 	xori	$s0,$s2,0x726f
  41bfd4:	63657373 	0x63657373
  41bfd8:	20256420 	addi	$a1,$at,25632
  41bfdc:	66696c65 	0x66696c65
  41bfe0:	206c6f63 	addi	$t4,$v1,28515
  41bfe4:	6b206f6e 	0x6b206f6e
  41bfe8:	20257320 	addi	$a1,$at,29472
  41bfec:	6661696c 	0x6661696c
  41bff0:	65640000 	0x65640000
  41bff4:	54524143 	0x54524143
  41bff8:	453a2050 	0x453a2050
  41bffc:	726f6365 	0x726f6365
  41c000:	73732025 	0x73732025
  41c004:	64206a6f 	0x64206a6f
  41c008:	696e696e 	0x696e696e
  41c00c:	67206578 	0x67206578
  41c010:	69737469 	0x69737469
  41c014:	6e672061 	0x6e672061
  41c018:	72656e61 	0x72656e61
  41c01c:	20257320 	addi	$a1,$at,29472
  41c020:	40203078 	0x40203078
  41c024:	25780000 	addiu	$t8,$t3,0
  41c028:	7573696e 	jalx	5cda5b8 <_gp+0x58b4be8>
  41c02c:	69743a45 	0x69743a45
  41c030:	52524f52 	0x52524f52
  41c034:	3a566572 	xori	$s6,$s2,0x6572
  41c038:	73696f6e 	0x73696f6e
  41c03c:	204d6973 	addi	$t5,$v0,26995
  41c040:	6d617463 	0x6d617463
  41c044:	68000000 	0x68000000
  41c048:	7573696e 	jalx	5cda5b8 <_gp+0x58b4be8>
  41c04c:	69743a45 	0x69743a45
  41c050:	52524f52 	0x52524f52
  41c054:	3a6d6d61 	xori	$t5,$s3,0x6d61
  41c058:	70206661 	0x70206661
  41c05c:	696c6564 	0x696c6564
  41c060:	20402030 	addi	$zero,$v0,8240
  41c064:	78257800 	0x78257800
  41c068:	7573696e 	jalx	5cda5b8 <_gp+0x58b4be8>
  41c06c:	69743a45 	0x69743a45
  41c070:	52524f52 	0x52524f52
  41c074:	3a50726f 	xori	$s0,$s2,0x726f
  41c078:	63657373 	0x63657373
  41c07c:	20256420 	addi	$a1,$at,25632
  41c080:	76697274 	jalx	9a5c9d0 <_gp+0x9637000>
  41c084:	75616c20 	jalx	585b080 <_gp+0x54356b0>
  41c088:	61646472 	0x61646472
  41c08c:	65737320 	0x65737320
  41c090:	30782578 	andi	$t8,$v1,0x2578
  41c094:	20616c72 	addi	$at,$v1,27762
  41c098:	65616479 	0x65616479
  41c09c:	20696e20 	addi	$t1,$v1,28192
  41c0a0:	75736500 	jalx	5cd9400 <_gp+0x58b3a30>
  41c0a4:	7573696e 	jalx	5cda5b8 <_gp+0x58b4be8>
  41c0a8:	69743a45 	0x69743a45
  41c0ac:	52524f52 	0x52524f52
  41c0b0:	3a617265 	xori	$at,$s3,0x7265
  41c0b4:	6e61206e 	0x6e61206e
  41c0b8:	6f742073 	0x6f742073
  41c0bc:	65742063 	0x65742063
  41c0c0:	6f727265 	0x6f727265
  41c0c4:	63746c79 	0x63746c79
  41c0c8:	20666f72 	addi	$a2,$v1,28530
  41c0cc:	2072756e 	addi	$s2,$v1,30062
  41c0d0:	6e696e67 	0x6e696e67
  41c0d4:	206f6e20 	addi	$t7,$v1,28192
  41c0d8:	616e2052 	0x616e2052
  41c0dc:	33303030 	andi	$s0,$t9,0x3030
  41c0e0:	204d5000 	addi	$t5,$v0,20480
  41c0e4:	7573696e 	jalx	5cda5b8 <_gp+0x58b4be8>
  41c0e8:	69743a45 	0x69743a45
  41c0ec:	52524f52 	0x52524f52
  41c0f0:	3a6e6f6e 	xori	$t6,$s3,0x6f6e
  41c0f4:	2d646562 	sltiu	$a0,$t3,25954
  41c0f8:	75672061 	jalx	59c8184 <_gp+0x55a27b4>
  41c0fc:	6e642064 	0x6e642064
  41c100:	65627567 	0x65627567
  41c104:	206c6f63 	addi	$t4,$v1,28515
  41c108:	6b732063 	0x6b732063
  41c10c:	616e6e6f 	0x616e6e6f
  41c110:	74206265 	jalx	818994 <_gp+0x3f2fc4>
  41c114:	206d6978 	addi	$t5,$v1,27000
  41c118:	6564206f 	0x6564206f
  41c11c:	6e20616e 	0x6e20616e
  41c120:	20523330 	addi	$s2,$v0,13104
  41c124:	3030204d 	andi	$s0,$at,0x204d
  41c128:	50000000 	0x50000000
  41c12c:	54524143 	0x54524143
  41c130:	453a2050 	0x453a2050
  41c134:	726f6365 	0x726f6365
  41c138:	73732025 	0x73732025
  41c13c:	64206172 	0x64206172
  41c140:	656e6120 	0x656e6120
  41c144:	77656e74 	jalx	d95b9d0 <_gp+0xd536000>
  41c148:	20656d70 	addi	$a1,$v1,28016
  41c14c:	74792064 	jalx	1e48190 <_gp+0x1a227c0>
  41c150:	7572696e 	jalx	5c9a5b8 <_gp+0x5874be8>
  41c154:	67206861 	0x67206861
  41c158:	72646c6f 	0x72646c6f
  41c15c:	636b2061 	0x636b2061
  41c160:	74746163 	jalx	1d1858c <_gp+0x18f2bbc>
  41c164:	68000000 	0x68000000
  41c168:	54524143 	0x54524143
  41c16c:	453a2050 	0x453a2050
  41c170:	726f6365 	0x726f6365
  41c174:	73732025 	0x73732025
  41c178:	64206372 	0x64206372
  41c17c:	65617469 	0x65617469
  41c180:	6e67206e 	0x6e67206e
  41c184:	65772061 	0x65772061
  41c188:	72656e61 	0x72656e61
  41c18c:	2025733a 	addi	$a1,$at,29498
  41c190:	6c6f636b 	0x6c6f636b
  41c194:	74797065 	jalx	1e5c194 <_gp+0x1a367c4>
  41c198:	20256420 	addi	$a1,$at,25632
  41c19c:	6d617875 	0x6d617875
  41c1a0:	73657273 	0x73657273
  41c1a4:	20256400 	addi	$a1,$at,25600
  41c1a8:	54524143 	0x54524143
  41c1ac:	453a2050 	0x453a2050
  41c1b0:	726f6365 	0x726f6365
  41c1b4:	73732025 	0x73732025
  41c1b8:	64206172 	0x64206172
  41c1bc:	656e6120 	0x656e6120
  41c1c0:	6e6f7420 	0x6e6f7420
  41c1c4:	6f776e65 	0x6f776e65
  41c1c8:	64206279 	0x64206279
  41c1cc:	20796f75 	addi	$t9,$v1,28533
  41c1d0:	2e205265 	sltiu	$zero,$s1,21093
  41c1d4:	6d6f7669 	0x6d6f7669
  41c1d8:	6e672025 	0x6e672025
  41c1dc:	7320616e 	0x7320616e
  41c1e0:	64207374 	0x64207374
  41c1e4:	61727469 	0x61727469
  41c1e8:	6e67206f 	0x6e67206f
  41c1ec:	7665722e 	jalx	995c8b8 <_gp+0x9536ee8>
  41c1f0:	00000000 	nop
  41c1f4:	4552524f 	0x4552524f
  41c1f8:	523a7573 	0x523a7573
  41c1fc:	696e6974 	0x696e6974
  41c200:	3a6e6f74 	xori	$t6,$s3,0x6f74
  41c204:	206f776e 	addi	$t7,$v1,30574
  41c208:	65722061 	0x65722061
  41c20c:	6e642063 	0x6e642063
  41c210:	616e6e6f 	0x616e6e6f
  41c214:	7420756e 	jalx	81d5b8 <_gp+0x3f7be8>
  41c218:	6c696e6b 	0x6c696e6b
  41c21c:	20257300 	addi	$a1,$at,29440
  41c220:	2f646576 	sltiu	$a0,$k1,25974
  41c224:	2f686c2f 	sltiu	$t0,$k1,27695
  41c228:	686c6f63 	0x686c6f63
  41c22c:	6b303030 	0x6b303030
  41c230:	00000000 	nop
  41c234:	4552524f 	0x4552524f
  41c238:	523a7573 	0x523a7573
  41c23c:	696e6974 	0x696e6974
  41c240:	3a63616e 	xori	$v1,$s3,0x616e
  41c244:	6e6f7420 	0x6e6f7420
  41c248:	6f70656e 	0x6f70656e
  41c24c:	202f6465 	addi	$t7,$at,25701
  41c250:	762f686c 	jalx	8bda1b0 <_gp+0x87b47e0>
  41c254:	2f686c6f 	sltiu	$t0,$k1,27759
  41c258:	636b3030 	0x636b3030
  41c25c:	30000000 	andi	$zero,$zero,0x0
  41c260:	7573696e 	jalx	5cda5b8 <_gp+0x58b4be8>
  41c264:	69743a45 	0x69743a45
  41c268:	52524f52 	0x52524f52
  41c26c:	3a6e6f6e 	xori	$t6,$s3,0x6f6e
  41c270:	2d646562 	sltiu	$a0,$t3,25954
  41c274:	75672061 	jalx	59c8184 <_gp+0x55a27b4>
  41c278:	6e642064 	0x6e642064
  41c27c:	65627567 	0x65627567
  41c280:	206c6f63 	addi	$t4,$v1,28515
  41c284:	6b732063 	0x6b732063
  41c288:	616e6e6f 	0x616e6e6f
  41c28c:	74206265 	jalx	818994 <_gp+0x3f2fc4>
  41c290:	206d6978 	addi	$t5,$v1,27000
  41c294:	6564206f 	0x6564206f
  41c298:	6e20616e 	0x6e20616e
  41c29c:	20523330 	addi	$s2,$v0,13104
  41c2a0:	3030204d 	andi	$s0,$at,0x204d
  41c2a4:	50000000 	0x50000000
  41c2a8:	54524143 	0x54524143
  41c2ac:	453a2050 	0x453a2050
  41c2b0:	726f6365 	0x726f6365
  41c2b4:	73732025 	0x73732025
  41c2b8:	6420496e 	0x6420496e
  41c2bc:	69746961 	0x69746961
  41c2c0:	6c697a69 	0x6c697a69
  41c2c4:	6e672048 	0x6e672048
  41c2c8:	41524457 	0x41524457
  41c2cc:	41524520 	0x41524520
  41c2d0:	4c4f434b 	0x4c4f434b
  41c2d4:	53000000 	0x53000000
  41c2d8:	54524143 	0x54524143
  41c2dc:	453a2050 	0x453a2050
  41c2e0:	726f6365 	0x726f6365
  41c2e4:	73732025 	0x73732025
  41c2e8:	6420496e 	0x6420496e
  41c2ec:	69746961 	0x69746961
  41c2f0:	6c697a69 	0x6c697a69
  41c2f4:	6e672053 	0x6e672053
  41c2f8:	4f465457 	c3	0x1465457
  41c2fc:	41524520 	0x41524520
  41c300:	4c4f434b 	0x4c4f434b
  41c304:	53000000 	0x53000000
  41c308:	54524143 	0x54524143
  41c30c:	453a2050 	0x453a2050
  41c310:	726f6365 	0x726f6365
  41c314:	73732025 	0x73732025
  41c318:	6420496e 	0x6420496e
  41c31c:	69746961 	0x69746961
  41c320:	6c697a69 	0x6c697a69
  41c324:	6e672052 	0x6e672052
  41c328:	34303030 	ori	$s0,$at,0x3030
  41c32c:	20257320 	addi	$a1,$at,29472
  41c330:	4c4f434b 	0x4c4f434b
  41c334:	53000000 	0x53000000
  41c338:	54524143 	0x54524143
  41c33c:	453a2050 	0x453a2050
  41c340:	726f6365 	0x726f6365
  41c344:	73732025 	0x73732025
  41c348:	6420496e 	0x6420496e
  41c34c:	69746961 	0x69746961
  41c350:	6c697a69 	0x6c697a69
  41c354:	6e672052 	0x6e672052
  41c358:	34303030 	ori	$s0,$at,0x3030
  41c35c:	204d502d 	addi	$t5,$v0,20525
  41c360:	4c4c5741 	0x4c4c5741
  41c364:	52204c4f 	0x52204c4f
  41c368:	434b5300 	c0	0x14b5300
  41c36c:	54524143 	0x54524143
  41c370:	453a2050 	0x453a2050
  41c374:	726f6365 	0x726f6365
  41c378:	73732025 	0x73732025
  41c37c:	64207573 	0x64207573
  41c380:	696e6974 	0x696e6974
  41c384:	20737563 	addi	$s3,$v1,30051
  41c388:	63656465 	0x63656465
  41c38c:	6420666f 	0x6420666f
  41c390:	72206172 	0x72206172
  41c394:	656e6120 	0x656e6120
  41c398:	25732040 	addiu	$s3,$t3,8256
  41c39c:	20307825 	addi	$s0,$at,30757
  41c3a0:	78000000 	0x78000000
  41c3a4:	75736164 	jalx	5cd8590 <_gp+0x58b2bc0>
  41c3a8:	643a4552 	0x643a4552
  41c3ac:	524f523a 	0x524f523a
  41c3b0:	50726f63 	0x50726f63
  41c3b4:	65737320 	0x65737320
  41c3b8:	25642066 	addiu	$a0,$t3,8294
  41c3bc:	61696c65 	0x61696c65
  41c3c0:	6420746f 	0x6420746f
  41c3c4:	20616464 	addi	$at,$v1,25700
  41c3c8:	20746f20 	addi	$s4,$v1,28448
  41c3cc:	6172656e 	0x6172656e
  41c3d0:	61204030 	0x61204030
  41c3d4:	78257800 	0x78257800
  41c3d8:	75736164 	jalx	5cd8590 <_gp+0x58b2bc0>
  41c3dc:	643a4552 	0x643a4552
  41c3e0:	524f523a 	0x524f523a
  41c3e4:	50726f63 	0x50726f63
  41c3e8:	65737320 	0x65737320
  41c3ec:	25642066 	addiu	$a0,$t3,8294
  41c3f0:	61696c65 	0x61696c65
  41c3f4:	6420746f 	0x6420746f
  41c3f8:	20616464 	addi	$at,$v1,25700
  41c3fc:	20746f20 	addi	$s4,$v1,28448
  41c400:	6172656e 	0x6172656e
  41c404:	61204030 	0x61204030
  41c408:	78257800 	0x78257800
  41c40c:	2f646576 	sltiu	$a0,$k1,25974
  41c410:	2f757365 	sltiu	$s5,$k1,29541
  41c414:	6d61636c 	0x6d61636c
  41c418:	6f6e6500 	0x6f6e6500
  41c41c:	7573696e 	jalx	5cda5b8 <_gp+0x58b4be8>
  41c420:	69743a45 	0x69743a45
  41c424:	52524f52 	0x52524f52
  41c428:	3a43616e 	xori	$v1,$s2,0x616e
  41c42c:	6e6f7420 	0x6e6f7420
  41c430:	6f70656e 	0x6f70656e
  41c434:	20257300 	addi	$a1,$at,29440
  41c438:	2f646576 	sltiu	$a0,$k1,25974
  41c43c:	2f757365 	sltiu	$s5,$k1,29541
  41c440:	6d61636c 	0x6d61636c
  41c444:	6f6e6500 	0x6f6e6500
  41c448:	7573696e 	jalx	5cda5b8 <_gp+0x58b4be8>
  41c44c:	69743a45 	0x69743a45
  41c450:	52524f52 	0x52524f52
  41c454:	3a43616e 	xori	$v1,$s2,0x616e
  41c458:	6e6f7420 	0x6e6f7420
  41c45c:	616c6c6f 	0x616c6c6f
  41c460:	63617465 	0x63617465
  41c464:	20646576 	addi	$a0,$v1,25974
  41c468:	69636520 	0x69636520
  41c46c:	73656d61 	0x73656d61
  41c470:	70686f72 	0x70686f72
  41c474:	65000000 	0x65000000
  41c478:	54524143 	0x54524143
  41c47c:	453a2061 	0x453a2061
  41c480:	72656e61 	0x72656e61
  41c484:	20402030 	addi	$zero,$v0,8240
  41c488:	78257820 	0x78257820
  41c48c:	67657473 	0x67657473
  41c490:	2073656d 	addi	$s3,$v1,25965
  41c494:	6170686f 	0x6170686f
  41c498:	72652064 	0x72652064
  41c49c:	65766963 	0x65766963
  41c4a0:	65203078 	0x65203078
  41c4a4:	25782073 	addiu	$t8,$t3,8307
  41c4a8:	66642025 	0x66642025
  41c4ac:	64000000 	0x64000000
  41c4b0:	2f646576 	sltiu	$a0,$k1,25974
  41c4b4:	2f757365 	sltiu	$s5,$k1,29541
  41c4b8:	6d610000 	0x6d610000
  41c4bc:	7573696e 	jalx	5cda5b8 <_gp+0x58b4be8>
  41c4c0:	69743a45 	0x69743a45
  41c4c4:	52524f52 	0x52524f52
  41c4c8:	3a43616e 	xori	$v1,$s2,0x616e
  41c4cc:	6e6f7420 	0x6e6f7420
  41c4d0:	6f70656e 	0x6f70656e
  41c4d4:	20257300 	addi	$a1,$at,29440
  41c4d8:	2f646576 	sltiu	$a0,$k1,25974
  41c4dc:	2f757365 	sltiu	$s5,$k1,29541
  41c4e0:	6d610000 	0x6d610000
  41c4e4:	54524143 	0x54524143
  41c4e8:	453a2050 	0x453a2050
  41c4ec:	726f6365 	0x726f6365
  41c4f0:	73732025 	0x73732025
  41c4f4:	64206172 	0x64206172
  41c4f8:	656e6120 	0x656e6120
  41c4fc:	77656e74 	jalx	d95b9d0 <_gp+0xd536000>
  41c500:	20656d70 	addi	$a1,$v1,28016
  41c504:	74792077 	jalx	1e481dc <_gp+0x1a2280c>
  41c508:	68696c65 	0x68696c65
  41c50c:	20616464 	addi	$at,$v1,25700
  41c510:	696e6720 	0x696e6720
  41c514:	74696400 	jalx	1a59000 <_gp+0x1633630>
  41c518:	7573696e 	jalx	5cda5b8 <_gp+0x58b4be8>
  41c51c:	69743a45 	0x69743a45
  41c520:	52524f52 	0x52524f52
  41c524:	3a43616e 	xori	$v1,$s2,0x616e
  41c528:	6e6f7420 	0x6e6f7420
  41c52c:	61747461 	0x61747461
  41c530:	63682074 	0x63682074
  41c534:	6f207365 	0x6f207365
  41c538:	6d612030 	0x6d612030
  41c53c:	78257820 	0x78257820
  41c540:	63757272 	0x63757272
  41c544:	656e7420 	0x656e7420
  41c548:	76616c69 	jalx	985b1a4 <_gp+0x94357d4>
  41c54c:	64207469 	0x64207469
  41c550:	64202564 	0x64202564
  41c554:	00000000 	nop
  41c558:	54524143 	0x54524143
  41c55c:	453a2050 	0x453a2050
  41c560:	726f6365 	0x726f6365
  41c564:	73732025 	0x73732025
  41c568:	64206865 	0x64206865
  41c56c:	61646572 	0x61646572
  41c570:	2073697a 	addi	$s3,$v1,27002
  41c574:	65202564 	0x65202564
  41c578:	206d616c 	addi	$t5,$v1,24940
  41c57c:	6c6f6320 	0x6c6f6320
  41c580:	6172656e 	0x6172656e
  41c584:	61207369 	0x61207369
  41c588:	7a652025 	0x7a652025
  41c58c:	64000000 	0x64000000
  41c590:	7573696e 	jalx	5cda5b8 <_gp+0x58b4be8>
  41c594:	69743a45 	0x69743a45
  41c598:	52524f52 	0x52524f52
  41c59c:	3a756e61 	xori	$s5,$s3,0x6e61
  41c5a0:	626c6520 	0x626c6520
  41c5a4:	746f2063 	jalx	1bc818c <_gp+0x17a27bc>
  41c5a8:	72656174 	0x72656174
  41c5ac:	65207573 	0x65207573
  41c5b0:	6d616c6c 	0x6d616c6c
  41c5b4:	6f632061 	0x6f632061
  41c5b8:	72656e61 	0x72656e61
  41c5bc:	00000000 	nop
  41c5c0:	7573696e 	jalx	5cda5b8 <_gp+0x58b4be8>
  41c5c4:	69743a45 	0x69743a45
  41c5c8:	52524f52 	0x52524f52
  41c5cc:	3a756e61 	xori	$s5,$s3,0x6e61
  41c5d0:	626c6520 	0x626c6520
  41c5d4:	746f2073 	jalx	1bc81cc <_gp+0x17a27fc>
  41c5d8:	6574206f 	0x6574206f
  41c5dc:	7074696f 	0x7074696f
  41c5e0:	6e73206f 	0x6e73206f
  41c5e4:	6e207573 	0x6e207573
  41c5e8:	6d616c6c 	0x6d616c6c
  41c5ec:	6f632061 	0x6f632061
  41c5f0:	72656e61 	0x72656e61
  41c5f4:	00000000 	nop
  41c5f8:	7573696e 	jalx	5cda5b8 <_gp+0x58b4be8>
  41c5fc:	69743a45 	0x69743a45
  41c600:	52524f52 	0x52524f52
  41c604:	3a756e61 	xori	$s5,$s3,0x6e61
  41c608:	626c6520 	0x626c6520
  41c60c:	746f2061 	jalx	1bc8184 <_gp+0x17a27b4>
  41c610:	6c6c6f63 	0x6c6c6f63
  41c614:	61746520 	0x61746520
  41c618:	75736d61 	jalx	5cdb584 <_gp+0x58b5bb4>
  41c61c:	6c6c6f63 	0x6c6c6f63
  41c620:	206c6f63 	addi	$t4,$v1,28515
  41c624:	6b000000 	0x6b000000
  41c628:	75736465 	jalx	5cd9194 <_gp+0x58b37c4>
  41c62c:	74616368 	jalx	1858da0 <_gp+0x14333d0>
  41c630:	3a455252 	xori	$a1,$s2,0x5252
  41c634:	4f523a75 	c3	0x1523a75
  41c638:	6e61626c 	0x6e61626c
  41c63c:	6520746f 	0x6520746f
  41c640:	20756e6d 	addi	$s5,$v1,28269
  41c644:	61702061 	0x61702061
  41c648:	72656e61 	0x72656e61
  41c64c:	00000000 	nop
  41c650:	00410008 	0x410008
  41c654:	00410048 	0x410048
  41c658:	00410088 	0x410088
  41c65c:	004100a8 	0x4100a8
  41c660:	004100c8 	0x4100c8
  41c664:	004100f0 	0x4100f0
  41c668:	00410144 	0x410144
  41c66c:	004101a4 	0x4101a4
  41c670:	0040ffd0 	0x40ffd0
  41c674:	004101fc 	0x4101fc
  41c678:	0041021c 	0x41021c
  41c67c:	00410234 	0x410234
  41c680:	00410254 	0x410254
  41c684:	0041026c 	0x41026c
  41c688:	0041028c 	syscall	0x1040a
  41c68c:	004102a4 	0x4102a4
  41c690:	004102e4 	0x4102e4
  41c694:	00410118 	0x410118
  41c698:	004103a4 	0x4103a4
  41c69c:	004103c4 	0x4103c4
  41c6a0:	004103e4 	0x4103e4
	...
  41c6b0:	54524143 	0x54524143
  41c6b4:	453a206c 	0x453a206c
  41c6b8:	6c776172 	0x6c776172
  41c6bc:	6c6f6373 	0x6c6f6373
  41c6c0:	20402030 	addi	$zero,$v0,8240
  41c6c4:	78257820 	0x78257820
  41c6c8:	30782578 	andi	$t8,$v1,0x2578
  41c6cc:	20307825 	addi	$s0,$at,30757
  41c6d0:	78203078 	0x78203078
  41c6d4:	25780000 	addiu	$t8,$t3,0
	...
  41c6e0:	4552524f 	0x4552524f
  41c6e4:	523a2075 	0x523a2075
  41c6e8:	6e6c6f63 	0x6e6c6f63
  41c6ec:	6b206664 	0x6b206664
  41c6f0:	20256420 	addi	$a1,$at,25632
  41c6f4:	6f666673 	0x6f666673
  41c6f8:	65742025 	0x65742025
  41c6fc:	64207069 	0x64207069
  41c700:	64202564 	0x64202564
  41c704:	00000000 	nop
  41c708:	4552524f 	0x4552524f
  41c70c:	523a2067 	0x523a2067
  41c710:	65746c6f 	0x65746c6f
  41c714:	636b2066 	0x636b2066
  41c718:	64202564 	0x64202564
  41c71c:	206f6666 	addi	$t7,$v1,26214
  41c720:	73657420 	0x73657420
  41c724:	25642070 	addiu	$a0,$t3,8304
  41c728:	69642025 	0x69642025
  41c72c:	64000000 	0x64000000
  41c730:	7573696e 	jalx	5cda5b8 <_gp+0x58b4be8>
  41c734:	69743a45 	0x69743a45
  41c738:	52524f52 	0x52524f52
  41c73c:	3a556e6b 	xori	$s5,$s2,0x6e6b
  41c740:	6e6f776e 	0x6e6f776e
  41c744:	2070726f 	addi	$s0,$v1,29295
  41c748:	63657373 	0x63657373
  41c74c:	6f722074 	0x6f722074
  41c750:	79706521 	0x79706521
  41c754:	00000000 	nop
  41c758:	00412bc4 	0x412bc4
  41c75c:	00412bc4 	0x412bc4
  41c760:	00412bc4 	0x412bc4
  41c764:	00412c48 	0x412c48
  41c768:	00412be8 	0x412be8
  41c76c:	00412c48 	0x412c48
  41c770:	00412c48 	0x412c48
  41c774:	00412c48 	0x412c48
  41c778:	00412c48 	0x412c48
  41c77c:	00412c48 	0x412c48
  41c780:	00412c48 	0x412c48
  41c784:	00412c48 	0x412c48
  41c788:	00412c48 	0x412c48
  41c78c:	00412c48 	0x412c48
  41c790:	00412c48 	0x412c48
  41c794:	00412c48 	0x412c48
  41c798:	00412c24 	0x412c24
  41c79c:	00412c48 	0x412c48
  41c7a0:	00412c48 	0x412c48
  41c7a4:	00412c48 	0x412c48
  41c7a8:	00412c48 	0x412c48
  41c7ac:	00412c48 	0x412c48
  41c7b0:	00412c48 	0x412c48
  41c7b4:	00412c48 	0x412c48
  41c7b8:	00412c48 	0x412c48
  41c7bc:	00412c48 	0x412c48
  41c7c0:	00412c48 	0x412c48
  41c7c4:	00412c48 	0x412c48
  41c7c8:	00412c48 	0x412c48
  41c7cc:	00412c48 	0x412c48
  41c7d0:	00412c48 	0x412c48
  41c7d4:	00412c48 	0x412c48
  41c7d8:	00412c1c 	0x412c1c
  41c7dc:	00000000 	nop
  41c7e0:	54524143 	0x54524143
  41c7e4:	453a2050 	0x453a2050
  41c7e8:	726f6365 	0x726f6365
  41c7ec:	73732025 	0x73732025
  41c7f0:	64206861 	0x64206861
  41c7f4:	64206361 	0x64206361
  41c7f8:	73206172 	0x73206172
  41c7fc:	656e6120 	0x656e6120
  41c800:	64697361 	0x64697361
  41c804:	70706561 	0x70706561
  41c808:	72210000 	0x72210000
  41c80c:	54524143 	0x54524143
  41c810:	453a2050 	0x453a2050
  41c814:	726f6365 	0x726f6365
  41c818:	73732025 	0x73732025
  41c81c:	64206164 	0x64206164
  41c820:	64656420 	0x64656420
  41c824:	746f2063 	jalx	1bc818c <_gp+0x17a27bc>
  41c828:	61732061 	0x61732061
  41c82c:	72656e61 	0x72656e61
  41c830:	20257300 	addi	$a1,$at,29440
  41c834:	4552524f 	0x4552524f
  41c838:	523a4361 	0x523a4361
  41c83c:	6e6e6f74 	0x6e6e6f74
  41c840:	20616464 	addi	$at,$v1,25700
  41c844:	20706964 	addi	$s0,$v1,26980
  41c848:	20256420 	addi	$a1,$at,25632
  41c84c:	746f2063 	jalx	1bc818c <_gp+0x17a27bc>
  41c850:	61732061 	0x61732061
  41c854:	72656e61 	0x72656e61
  41c858:	20257300 	addi	$a1,$at,29440
  41c85c:	4d555445 	0x4d555445
  41c860:	585f4944 	0x585f4944
  41c864:	00000000 	nop
  41c868:	2f757372 	sltiu	$s5,$k1,29554
  41c86c:	2f746d70 	sltiu	$s4,$k1,28016
  41c870:	2f757363 	sltiu	$s5,$k1,29539
  41c874:	61730000 	0x61730000
  41c878:	25732573 	addiu	$s3,$t3,9587
  41c87c:	252e3973 	addiu	$t6,$t1,14707
  41c880:	00000000 	nop
  41c884:	4d555445 	0x4d555445
  41c888:	585f5045 	0x585f5045
  41c88c:	524d4953 	0x524d4953
  41c890:	53494f4e 	0x53494f4e
  41c894:	00000000 	nop
  41c898:	2f746d70 	sltiu	$s4,$k1,28016
  41c89c:	2f757363 	sltiu	$s5,$k1,29539
  41c8a0:	61730000 	0x61730000
  41c8a4:	75736361 	jalx	5cd8d84 <_gp+0x58b33b4>
  41c8a8:	73617265 	0x73617265
  41c8ac:	6e61696e 	0x6e61696e
  41c8b0:	69743a45 	0x69743a45
  41c8b4:	52524f52 	0x52524f52
  41c8b8:	3a6f7065 	xori	$t7,$s3,0x7065
  41c8bc:	6e206f6e 	0x6e206f6e
  41c8c0:	20257320 	addi	$a1,$at,29472
  41c8c4:	6661696c 	0x6661696c
  41c8c8:	65640000 	0x65640000
  41c8cc:	75736361 	jalx	5cd8d84 <_gp+0x58b33b4>
  41c8d0:	73617265 	0x73617265
  41c8d4:	6e61696e 	0x6e61696e
  41c8d8:	69743a45 	0x69743a45
  41c8dc:	52524f52 	0x52524f52
  41c8e0:	3a66696c 	xori	$a2,$s3,0x696c
  41c8e4:	65206c6f 	0x65206c6f
  41c8e8:	636b206f 	0x636b206f
  41c8ec:	6e202573 	0x6e202573
  41c8f0:	20666169 	addi	$a2,$v1,24937
  41c8f4:	6c656400 	0x6c656400
  41c8f8:	54524143 	0x54524143
  41c8fc:	453a2050 	0x453a2050
  41c900:	726f6365 	0x726f6365
  41c904:	73732025 	0x73732025
  41c908:	64206a6f 	0x64206a6f
  41c90c:	696e696e 	0x696e696e
  41c910:	67206578 	0x67206578
  41c914:	69737469 	0x69737469
  41c918:	6e672061 	0x6e672061
  41c91c:	72656e61 	0x72656e61
  41c920:	20257300 	addi	$a1,$at,29440
  41c924:	75736361 	jalx	5cd8d84 <_gp+0x58b33b4>
  41c928:	73617265 	0x73617265
  41c92c:	6e61696e 	0x6e61696e
  41c930:	69743a45 	0x69743a45
  41c934:	52524f52 	0x52524f52
  41c938:	3a566572 	xori	$s6,$s2,0x6572
  41c93c:	73696f6e 	0x73696f6e
  41c940:	204d6973 	addi	$t5,$v0,26995
  41c944:	6d617463 	0x6d617463
  41c948:	68000000 	0x68000000
  41c94c:	75736361 	jalx	5cd8d84 <_gp+0x58b33b4>
  41c950:	73617265 	0x73617265
  41c954:	6e61696e 	0x6e61696e
  41c958:	69743a45 	0x69743a45
  41c95c:	52524f52 	0x52524f52
  41c960:	3a536f6d 	xori	$s3,$s2,0x6f6d
  41c964:	656f6e65 	0x656f6e65
  41c968:	20757369 	addi	$s5,$v1,29545
  41c96c:	6e672025 	0x6e672025
  41c970:	73000000 	0x73000000
  41c974:	75736361 	jalx	5cd8d84 <_gp+0x58b33b4>
  41c978:	73617265 	0x73617265
  41c97c:	6e61696e 	0x6e61696e
  41c980:	69743a45 	0x69743a45
  41c984:	52524f52 	0x52524f52
  41c988:	3a6d6d61 	xori	$t5,$s3,0x6d61
  41c98c:	70206661 	0x70206661
  41c990:	696c6564 	0x696c6564
  41c994:	00000000 	nop
  41c998:	54524143 	0x54524143
  41c99c:	453a2050 	0x453a2050
  41c9a0:	726f6365 	0x726f6365
  41c9a4:	73732025 	0x73732025
  41c9a8:	64206172 	0x64206172
  41c9ac:	656e6120 	0x656e6120
  41c9b0:	77656e74 	jalx	d95b9d0 <_gp+0xd536000>
  41c9b4:	20656d70 	addi	$a1,$v1,28016
  41c9b8:	74792064 	jalx	1e48190 <_gp+0x1a227c0>
  41c9bc:	7572696e 	jalx	5c9a5b8 <_gp+0x5874be8>
  41c9c0:	67206861 	0x67206861
  41c9c4:	72646c6f 	0x72646c6f
  41c9c8:	636b2061 	0x636b2061
  41c9cc:	74746163 	jalx	1d1858c <_gp+0x18f2bbc>
  41c9d0:	68000000 	0x68000000
  41c9d4:	54524143 	0x54524143
  41c9d8:	453a2050 	0x453a2050
  41c9dc:	726f6365 	0x726f6365
  41c9e0:	73732025 	0x73732025
  41c9e4:	64206372 	0x64206372
  41c9e8:	65617469 	0x65617469
  41c9ec:	6e67206e 	0x6e67206e
  41c9f0:	65772061 	0x65772061
  41c9f4:	72656e61 	0x72656e61
  41c9f8:	20257300 	addi	$a1,$at,29440
  41c9fc:	54524143 	0x54524143
  41ca00:	453a2050 	0x453a2050
  41ca04:	726f6365 	0x726f6365
  41ca08:	73732025 	0x73732025
  41ca0c:	64206172 	0x64206172
  41ca10:	656e6120 	0x656e6120
  41ca14:	6e6f7420 	0x6e6f7420
  41ca18:	6f776e65 	0x6f776e65
  41ca1c:	64206279 	0x64206279
  41ca20:	20796f75 	addi	$t9,$v1,28533
  41ca24:	2e205265 	sltiu	$zero,$s1,21093
  41ca28:	6d6f7669 	0x6d6f7669
  41ca2c:	6e672025 	0x6e672025
  41ca30:	7320616e 	0x7320616e
  41ca34:	64207374 	0x64207374
  41ca38:	61727469 	0x61727469
  41ca3c:	6e67206f 	0x6e67206f
  41ca40:	7665722e 	jalx	995c8b8 <_gp+0x9536ee8>
  41ca44:	00000000 	nop
  41ca48:	4552524f 	0x4552524f
  41ca4c:	523a7573 	0x523a7573
  41ca50:	63617361 	0x63617361
  41ca54:	72656e61 	0x72656e61
  41ca58:	696e6974 	0x696e6974
  41ca5c:	3a6e6f74 	xori	$t6,$s3,0x6f74
  41ca60:	206f776e 	addi	$t7,$v1,30574
  41ca64:	65722061 	0x65722061
  41ca68:	6e642063 	0x6e642063
  41ca6c:	616e6e6f 	0x616e6e6f
  41ca70:	7420756e 	jalx	81d5b8 <_gp+0x3f7be8>
  41ca74:	6c696e6b 	0x6c696e6b
  41ca78:	20257300 	addi	$a1,$at,29440
  41ca7c:	2f646576 	sltiu	$a0,$k1,25974
  41ca80:	2f686c2f 	sltiu	$t0,$k1,27695
  41ca84:	686c6f63 	0x686c6f63
  41ca88:	6b303030 	0x6b303030
  41ca8c:	00000000 	nop
  41ca90:	4552524f 	0x4552524f
  41ca94:	523a7573 	0x523a7573
  41ca98:	63617361 	0x63617361
  41ca9c:	72656e61 	0x72656e61
  41caa0:	696e6974 	0x696e6974
  41caa4:	3a63616e 	xori	$v1,$s3,0x616e
  41caa8:	6e6f7420 	0x6e6f7420
  41caac:	6f70656e 	0x6f70656e
  41cab0:	202f6465 	addi	$t7,$at,25701
  41cab4:	762f686c 	jalx	8bda1b0 <_gp+0x87b47e0>
  41cab8:	2f686c6f 	sltiu	$t0,$k1,27759
  41cabc:	636b3030 	0x636b3030
  41cac0:	30000000 	andi	$zero,$zero,0x0
  41cac4:	54524143 	0x54524143
  41cac8:	453a2050 	0x453a2050
  41cacc:	726f6365 	0x726f6365
  41cad0:	73732025 	0x73732025
  41cad4:	6420496e 	0x6420496e
  41cad8:	69746961 	0x69746961
  41cadc:	6c697a69 	0x6c697a69
  41cae0:	6e672048 	0x6e672048
  41cae4:	41524457 	0x41524457
  41cae8:	41524520 	0x41524520
  41caec:	4c4f434b 	0x4c4f434b
  41caf0:	53000000 	0x53000000
  41caf4:	54524143 	0x54524143
  41caf8:	453a2050 	0x453a2050
  41cafc:	726f6365 	0x726f6365
  41cb00:	73732025 	0x73732025
  41cb04:	6420496e 	0x6420496e
  41cb08:	69746961 	0x69746961
  41cb0c:	6c697a69 	0x6c697a69
  41cb10:	6e672053 	0x6e672053
  41cb14:	4f465457 	c3	0x1465457
  41cb18:	41524520 	0x41524520
  41cb1c:	4c4f434b 	0x4c4f434b
  41cb20:	53000000 	0x53000000
  41cb24:	54524143 	0x54524143
  41cb28:	453a2050 	0x453a2050
  41cb2c:	726f6365 	0x726f6365
  41cb30:	73732025 	0x73732025
  41cb34:	6420496e 	0x6420496e
  41cb38:	69746961 	0x69746961
  41cb3c:	6c697a69 	0x6c697a69
  41cb40:	6e672052 	0x6e672052
  41cb44:	34303030 	ori	$s0,$at,0x3030
  41cb48:	204d502d 	addi	$t5,$v0,20525
  41cb4c:	4c4c5741 	0x4c4c5741
  41cb50:	52204c4f 	0x52204c4f
  41cb54:	434b5300 	c0	0x14b5300
  41cb58:	54524143 	0x54524143
  41cb5c:	453a2050 	0x453a2050
  41cb60:	726f6365 	0x726f6365
  41cb64:	73732025 	0x73732025
  41cb68:	64207573 	0x64207573
  41cb6c:	63617361 	0x63617361
  41cb70:	72656e61 	0x72656e61
  41cb74:	696e6974 	0x696e6974
  41cb78:	20737563 	addi	$s3,$v1,30051
  41cb7c:	63656465 	0x63656465
  41cb80:	6420666f 	0x6420666f
  41cb84:	72206172 	0x72206172
  41cb88:	656e6120 	0x656e6120
  41cb8c:	25732040 	addiu	$s3,$t3,8256
  41cb90:	20307825 	addi	$s0,$at,30757
  41cb94:	78000000 	0x78000000
	...
  41cba4:	0000000a 	0xa
  41cba8:	00000000 	nop
  41cbac:	00000064 	0x64
  41cbb0:	00000000 	nop
  41cbb4:	000003e8 	0x3e8
  41cbb8:	00000000 	nop
  41cbbc:	00002710 	0x2710
  41cbc0:	00000000 	nop
  41cbc4:	000186a0 	0x186a0
  41cbc8:	00000000 	nop
  41cbcc:	000f4240 	sll	$t0,$t7,0x9
  41cbd0:	00000000 	nop
  41cbd4:	00989680 	0x989680
  41cbd8:	00000000 	nop
  41cbdc:	05f5e100 	0x5f5e100
  41cbe0:	00000000 	nop
  41cbe4:	3b9aca00 	xori	$k0,$gp,0xca00
  41cbe8:	00000002 	srl	$zero,$zero,0x0
  41cbec:	540be400 	0x540be400
  41cbf0:	00000017 	0x17
  41cbf4:	4876e800 	0x4876e800
  41cbf8:	000000e8 	0xe8
  41cbfc:	d4a51000 	0xd4a51000
  41cc00:	00000918 	0x918
  41cc04:	4e72a000 	c3	0x72a000
  41cc08:	00005af3 	0x5af3
  41cc0c:	107a4000 	beq	$v1,$k0,42cc10 <_gp+0x7240>
  41cc10:	00038d7e 	0x38d7e
  41cc14:	a4c68000 	sh	$a2,-32768($a2)
  41cc18:	002386f2 	0x2386f2
  41cc1c:	6fc10000 	0x6fc10000
  41cc20:	01634578 	0x1634578
  41cc24:	5d8a0000 	0x5d8a0000
  41cc28:	0de0b6b3 	jal	782dacc <_gp+0x74080fc>
  41cc2c:	a7640000 	sh	$a0,0($k1)
  41cc30:	0000000a 	0xa
  41cc34:	00000064 	0x64
  41cc38:	000003e8 	0x3e8
  41cc3c:	00002710 	0x2710
  41cc40:	000186a0 	0x186a0
  41cc44:	000f4240 	sll	$t0,$t7,0x9
  41cc48:	00989680 	0x989680
  41cc4c:	05f5e100 	0x5f5e100
  41cc50:	3b9aca00 	xori	$k0,$gp,0xca00
  41cc54:	20202020 	addi	$zero,$at,8224
  41cc58:	20202020 	addi	$zero,$at,8224
  41cc5c:	20202020 	addi	$zero,$at,8224
  41cc60:	20202020 	addi	$zero,$at,8224
  41cc64:	20202020 	addi	$zero,$at,8224
  41cc68:	00000000 	nop
  41cc6c:	30303030 	andi	$s0,$at,0x3030
  41cc70:	30303030 	andi	$s0,$at,0x3030
  41cc74:	30303030 	andi	$s0,$at,0x3030
  41cc78:	30303030 	andi	$s0,$at,0x3030
  41cc7c:	30303030 	andi	$s0,$at,0x3030
  41cc80:	00000000 	nop
  41cc84:	30313233 	andi	$s1,$at,0x3233
  41cc88:	34353637 	ori	$s5,$at,0x3637
  41cc8c:	38394142 	xori	$t9,$at,0x4142
  41cc90:	43444546 	c0	0x1444546
  41cc94:	00000000 	nop
  41cc98:	30313233 	andi	$s1,$at,0x3233
  41cc9c:	34353637 	ori	$s5,$at,0x3637
  41cca0:	38396162 	xori	$t9,$at,0x6162
  41cca4:	63646566 	0x63646566
  41cca8:	00000000 	nop
  41ccac:	30313233 	andi	$s1,$at,0x3233
  41ccb0:	34353637 	ori	$s5,$at,0x3637
  41ccb4:	38393000 	xori	$t9,$at,0x3000
  41ccb8:	23202b2d 	addi	$zero,$t9,11053
  41ccbc:	2e303132 	sltiu	$s0,$s1,12594
  41ccc0:	33343536 	andi	$s4,$t9,0x3536
  41ccc4:	37383968 	ori	$t8,$t9,0x3968
  41ccc8:	4c240000 	0x4c240000
  41cccc:	30313233 	andi	$s1,$at,0x3233
  41ccd0:	34353637 	ori	$s5,$at,0x3637
  41ccd4:	38390000 	xori	$t9,$at,0x0
  41ccd8:	23202b2d 	addi	$zero,$t9,11053
  41ccdc:	2e303132 	sltiu	$s0,$s1,12594
  41cce0:	33343536 	andi	$s4,$t9,0x3536
  41cce4:	37383968 	ori	$t8,$t9,0x3968
  41cce8:	24000000 	li	$zero,0
  41ccec:	00413da4 	0x413da4
  41ccf0:	004156d4 	0x4156d4
  41ccf4:	004156d4 	0x4156d4
  41ccf8:	00413db4 	0x413db4
  41ccfc:	00413e94 	0x413e94
  41cd00:	0041523c 	0x41523c
  41cd04:	004156d4 	0x4156d4
  41cd08:	004156d4 	0x4156d4
  41cd0c:	004156d4 	0x4156d4
  41cd10:	004156d4 	0x4156d4
  41cd14:	00413dd8 	0x413dd8
  41cd18:	00413d80 	0x413d80
  41cd1c:	004156d4 	0x4156d4
  41cd20:	00413d90 	0x413d90
  41cd24:	00413dc4 	0x413dc4
  41cd28:	004156d4 	0x4156d4
  41cd2c:	00413fc8 	0x413fc8
  41cd30:	00413fd8 	0x413fd8
  41cd34:	00413fd8 	0x413fd8
  41cd38:	00413fd8 	0x413fd8
  41cd3c:	00413fd8 	0x413fd8
  41cd40:	00413fd8 	0x413fd8
  41cd44:	00413fd8 	0x413fd8
  41cd48:	00413fd8 	0x413fd8
  41cd4c:	00413fd8 	0x413fd8
  41cd50:	00413fd8 	0x413fd8
  41cd54:	004156d4 	0x4156d4
  41cd58:	004156d4 	0x4156d4
  41cd5c:	004156d4 	0x4156d4
  41cd60:	004156d4 	0x4156d4
  41cd64:	004156d4 	0x4156d4
  41cd68:	004156d4 	0x4156d4
  41cd6c:	004156d4 	0x4156d4
  41cd70:	004156d4 	0x4156d4
  41cd74:	004156d4 	0x4156d4
  41cd78:	00415274 	0x415274
  41cd7c:	004156d4 	0x4156d4
  41cd80:	004148d4 	0x4148d4
  41cd84:	004156d4 	0x4156d4
  41cd88:	00414fc8 	0x414fc8
  41cd8c:	004156d4 	0x4156d4
  41cd90:	004156d4 	0x4156d4
  41cd94:	004156d4 	0x4156d4
  41cd98:	004156d4 	0x4156d4
  41cd9c:	00414088 	0x414088
  41cda0:	004156d4 	0x4156d4
  41cda4:	004156d4 	0x4156d4
  41cda8:	004156d4 	0x4156d4
  41cdac:	004156d4 	0x4156d4
  41cdb0:	004156d4 	0x4156d4
  41cdb4:	004156d4 	0x4156d4
  41cdb8:	00415350 	0x415350
  41cdbc:	004156d4 	0x4156d4
  41cdc0:	004156d4 	0x4156d4
  41cdc4:	004156d4 	0x4156d4
  41cdc8:	004156d4 	0x4156d4
  41cdcc:	00414630 	0x414630
  41cdd0:	004156d4 	0x4156d4
  41cdd4:	004156d4 	0x4156d4
  41cdd8:	004156d4 	0x4156d4
  41cddc:	004156d4 	0x4156d4
  41cde0:	004156d4 	0x4156d4
  41cde4:	004156d4 	0x4156d4
  41cde8:	004156d4 	0x4156d4
  41cdec:	004156d4 	0x4156d4
  41cdf0:	004156d4 	0x4156d4
  41cdf4:	004156d4 	0x4156d4
  41cdf8:	0041524c 	syscall	0x10549
  41cdfc:	00414094 	0x414094
  41ce00:	004148d4 	0x4148d4
  41ce04:	00414cc4 	0x414cc4
  41ce08:	00414fc8 	0x414fc8
  41ce0c:	00414078 	0x414078
  41ce10:	00414094 	0x414094
  41ce14:	004156d4 	0x4156d4
  41ce18:	004156d4 	0x4156d4
  41ce1c:	0041404c 	syscall	0x10501
  41ce20:	004156d4 	0x4156d4
  41ce24:	00415618 	0x415618
  41ce28:	00414618 	0x414618
  41ce2c:	00414630 	0x414630
  41ce30:	004156d4 	0x4156d4
  41ce34:	004156d4 	0x4156d4
  41ce38:	004152b4 	0x4152b4
  41ce3c:	004156d4 	0x4156d4
  41ce40:	004144f4 	0x4144f4
  41ce44:	004156d4 	0x4156d4
  41ce48:	004156d4 	0x4156d4
  41ce4c:	00414630 	0x414630
  41ce50:	00415ebc 	0x415ebc
  41ce54:	00415e5c 	0x415e5c
  41ce58:	00415e5c 	0x415e5c
  41ce5c:	00415e5c 	0x415e5c
  41ce60:	00415e5c 	0x415e5c
  41ce64:	00415d84 	0x415d84
  41ce68:	00415e5c 	0x415e5c
  41ce6c:	00415e5c 	0x415e5c
  41ce70:	00415e5c 	0x415e5c
  41ce74:	00415e5c 	0x415e5c
  41ce78:	00415e5c 	0x415e5c
  41ce7c:	00415e5c 	0x415e5c
  41ce80:	00415e5c 	0x415e5c
  41ce84:	00415e5c 	0x415e5c
  41ce88:	00415e5c 	0x415e5c
  41ce8c:	00415e5c 	0x415e5c
  41ce90:	00415e5c 	0x415e5c
  41ce94:	00415e5c 	0x415e5c
  41ce98:	00415e5c 	0x415e5c
  41ce9c:	00415e5c 	0x415e5c
  41cea0:	00415e5c 	0x415e5c
  41cea4:	00415e5c 	0x415e5c
  41cea8:	00415e5c 	0x415e5c
  41ceac:	00415e5c 	0x415e5c
  41ceb0:	00415e5c 	0x415e5c
  41ceb4:	00415e5c 	0x415e5c
  41ceb8:	00415e5c 	0x415e5c
  41cebc:	00415e5c 	0x415e5c
  41cec0:	00415e5c 	0x415e5c
  41cec4:	00415e5c 	0x415e5c
  41cec8:	00415e4c 	syscall	0x10579
  41cecc:	00415e5c 	0x415e5c
  41ced0:	00415e08 	0x415e08
  41ced4:	00415e5c 	0x415e5c
  41ced8:	00415e08 	0x415e08
  41cedc:	00415e5c 	0x415e5c
  41cee0:	00415e5c 	0x415e5c
  41cee4:	00415e5c 	0x415e5c
  41cee8:	00415e5c 	0x415e5c
  41ceec:	00415e5c 	0x415e5c
  41cef0:	00415e5c 	0x415e5c
  41cef4:	00415e5c 	0x415e5c
  41cef8:	00415e5c 	0x415e5c
  41cefc:	00415e5c 	0x415e5c
  41cf00:	00415e5c 	0x415e5c
  41cf04:	00415e5c 	0x415e5c
  41cf08:	00415e54 	0x415e54
  41cf0c:	00415e5c 	0x415e5c
  41cf10:	00415e5c 	0x415e5c
  41cf14:	00415e5c 	0x415e5c
  41cf18:	00415e5c 	0x415e5c
  41cf1c:	00415e5c 	0x415e5c
  41cf20:	00415e5c 	0x415e5c
  41cf24:	00415e5c 	0x415e5c
  41cf28:	00415e5c 	0x415e5c
  41cf2c:	00415e5c 	0x415e5c
  41cf30:	00415e5c 	0x415e5c
  41cf34:	00415e5c 	0x415e5c
  41cf38:	00415e5c 	0x415e5c
  41cf3c:	00415e5c 	0x415e5c
  41cf40:	00415e5c 	0x415e5c
  41cf44:	00415e5c 	0x415e5c
  41cf48:	00415e5c 	0x415e5c
  41cf4c:	00415e5c 	0x415e5c
  41cf50:	00415e08 	0x415e08
  41cf54:	00415e08 	0x415e08
  41cf58:	00415e08 	0x415e08
  41cf5c:	00415e5c 	0x415e5c
  41cf60:	00415e5c 	0x415e5c
  41cf64:	00415e5c 	0x415e5c
  41cf68:	00415e5c 	0x415e5c
  41cf6c:	00415d64 	0x415d64
  41cf70:	00415e5c 	0x415e5c
  41cf74:	00415e20 	0x415e20
  41cf78:	00415e5c 	0x415e5c
  41cf7c:	00415e18 	0x415e18
  41cf80:	00415e5c 	0x415e5c
  41cf84:	00415e5c 	0x415e5c
  41cf88:	00415e10 	0x415e10
  41cf8c:	00415f48 	0x415f48
  41cf90:	00415f78 	0x415f78
  41cf94:	00415f88 	0x415f88
  41cf98:	00415f98 	0x415f98
  41cf9c:	00415fc8 	0x415fc8
  41cfa0:	00415ff8 	0x415ff8
  41cfa4:	00416008 	0x416008
  41cfa8:	00416018 	0x416018
  41cfac:	00416038 	0x416038
  41cfb0:	00416028 	0x416028
  41cfb4:	00415f58 	0x415f58
  41cfb8:	00415f68 	0x415f68
  41cfbc:	00416408 	0x416408
  41cfc0:	00416388 	0x416388
  41cfc4:	00416388 	0x416388
  41cfc8:	00416388 	0x416388
  41cfcc:	00416388 	0x416388
  41cfd0:	004161b4 	0x4161b4
  41cfd4:	00416388 	0x416388
  41cfd8:	00416388 	0x416388
  41cfdc:	00416388 	0x416388
  41cfe0:	00416388 	0x416388
  41cfe4:	00416388 	0x416388
  41cfe8:	00416388 	0x416388
  41cfec:	00416388 	0x416388
  41cff0:	00416388 	0x416388
  41cff4:	00416388 	0x416388
  41cff8:	00416388 	0x416388
  41cffc:	00416388 	0x416388
  41d000:	00416388 	0x416388
  41d004:	00416388 	0x416388
  41d008:	00416388 	0x416388
  41d00c:	00416388 	0x416388
  41d010:	00416388 	0x416388
  41d014:	00416388 	0x416388
  41d018:	00416388 	0x416388
  41d01c:	00416388 	0x416388
  41d020:	00416388 	0x416388
  41d024:	00416388 	0x416388
  41d028:	00416388 	0x416388
  41d02c:	00416388 	0x416388
  41d030:	00416388 	0x416388
  41d034:	00416350 	0x416350
  41d038:	00416388 	0x416388
  41d03c:	00416214 	0x416214
  41d040:	00416388 	0x416388
  41d044:	00416214 	0x416214
  41d048:	00416388 	0x416388
  41d04c:	00416388 	0x416388
  41d050:	00416388 	0x416388
  41d054:	00416388 	0x416388
  41d058:	00416388 	0x416388
  41d05c:	00416388 	0x416388
  41d060:	00416388 	0x416388
  41d064:	00416388 	0x416388
  41d068:	00416388 	0x416388
  41d06c:	00416388 	0x416388
  41d070:	00416388 	0x416388
  41d074:	0041636c 	0x41636c
  41d078:	00416388 	0x416388
  41d07c:	00416388 	0x416388
  41d080:	00416388 	0x416388
  41d084:	00416388 	0x416388
  41d088:	00416388 	0x416388
  41d08c:	00416388 	0x416388
  41d090:	00416388 	0x416388
  41d094:	00416388 	0x416388
  41d098:	00416388 	0x416388
  41d09c:	00416388 	0x416388
  41d0a0:	00416388 	0x416388
  41d0a4:	00416388 	0x416388
  41d0a8:	00416388 	0x416388
  41d0ac:	00416388 	0x416388
  41d0b0:	00416388 	0x416388
  41d0b4:	00416388 	0x416388
  41d0b8:	00416388 	0x416388
  41d0bc:	00416214 	0x416214
  41d0c0:	00416214 	0x416214
  41d0c4:	00416214 	0x416214
  41d0c8:	00416388 	0x416388
  41d0cc:	00416388 	0x416388
  41d0d0:	00416388 	0x416388
  41d0d4:	00416388 	0x416388
  41d0d8:	00416194 	0x416194
  41d0dc:	00416388 	0x416388
  41d0e0:	004162e8 	0x4162e8
  41d0e4:	00416388 	0x416388
  41d0e8:	004162cc 	syscall	0x1058b
  41d0ec:	00416388 	0x416388
  41d0f0:	00416388 	0x416388
  41d0f4:	004162b0 	0x4162b0
	...
  41d100:	00417ab4 	0x417ab4
  41d104:	00417abc 	0x417abc
  41d108:	00417b40 	0x417b40
  41d10c:	00417aec 	0x417aec
  41d110:	00417b24 	0x417b24
  41d114:	00417b40 	0x417b40
  41d118:	00417b40 	0x417b40
  41d11c:	00417afc 	0x417afc
  41d120:	00417b04 	0x417b04
  41d124:	00417b14 	0x417b14
  41d128:	00417b2c 	0x417b2c
  41d12c:	00417af4 	0x417af4
  41d130:	00417adc 	0x417adc
  41d134:	00417ad4 	0x417ad4
  41d138:	00417ae4 	0x417ae4
  41d13c:	00417b40 	0x417b40
  41d140:	00417ac4 	0x417ac4
  41d144:	00417acc 	syscall	0x105eb
	...
  41d150:	696e6600 	0x696e6600
  41d154:	6e616e00 	0x6e616e00
	...
  41d160:	fbd14d6e 	0xfbd14d6e
  41d164:	e1afa13a 	swc0	$15,-24262($t5)
  41d168:	4d8d98b8 	0x4d8d98b8
  41d16c:	e3e27a44 	swc0	$2,31300($ra)
  41d170:	3d1a45df 	0x3d1a45df
  41d174:	e61acf03 	swc1	$f26,-12541($s0)
  41d178:	8f5c22ca 	lw	$gp,8906($k0)
  41d17c:	e858ad24 	swc2	$24,-21212($v0)
  41d180:	23ee8bcb 	addi	$t6,$ra,-29749
  41d184:	ea9c2277 	swc2	$28,8823($s4)
  41d188:	4a314ebe 	c2	0x314ebe
  41d18c:	ece53cec 	swc3	$5,15596($a3)
  41d190:	172aace5 	bne	$t9,$t2,408528 <_dscsetlock+0x98>
  41d194:	ef340a98 	swc3	$20,2712($t9)
  41d198:	bc3f8ca2 	0xbc3f8ca2
  41d19c:	f18899b1 	0xf18899b1
  41d1a0:	dec3f126 	0xdec3f126
  41d1a4:	f3e2f893 	0xf3e2f893
  41d1a8:	f065d37d 	0xf065d37d
  41d1ac:	f64335bc 	0xf64335bc
  41d1b0:	88747d94 	lwl	$s4,32148($v1)
  41d1b4:	f8a95fcf 	0xf8a95fcf
  41d1b8:	be068d2f 	0xbe068d2f
  41d1bc:	fb158592 	0xfb158592
  41d1c0:	8300ca0e 	lb	$zero,-13810($t8)
  41d1c4:	fd87b5f2 	0xfd87b5f2
  41d1c8:	00000000 	nop
  41d1cc:	80000000 	lb	$zero,0($zero)
  41d1d0:	00000000 	nop
  41d1d4:	a0000000 	sb	$zero,0($zero)
  41d1d8:	00000000 	nop
  41d1dc:	c8000000 	lwc2	$0,0($zero)
  41d1e0:	00000000 	nop
  41d1e4:	fa000000 	0xfa000000
  41d1e8:	00000000 	nop
  41d1ec:	9c400000 	0x9c400000
  41d1f0:	00000000 	nop
  41d1f4:	c3500000 	lwc0	$16,0($k0)
  41d1f8:	00000000 	nop
  41d1fc:	f4240000 	0xf4240000
  41d200:	00000000 	nop
  41d204:	98968000 	lwr	$s6,-32768($a0)
  41d208:	00000000 	nop
  41d20c:	bebc2000 	0xbebc2000
  41d210:	00000000 	nop
  41d214:	ee6b2800 	swc3	$11,10240($s3)
  41d218:	00000000 	nop
  41d21c:	9502f900 	lhu	$v0,-1792($t0)
  41d220:	00000000 	nop
  41d224:	ba43b740 	swr	$v1,-18624($s2)
  41d228:	00000000 	nop
  41d22c:	e8d4a510 	swc2	$20,-23280($a2)
  41d230:	00000000 	nop
  41d234:	9184e72a 	lbu	$a0,-6358($t4)
  41d238:	80000000 	lb	$zero,0($zero)
  41d23c:	b5e620f4 	0xb5e620f4
  41d240:	a0000000 	sb	$zero,0($zero)
  41d244:	e35fa931 	swc0	$31,-22223($k0)
  41d248:	04000000 	bltz	$zero,41d24c <_sys_index+0x1a4c>
  41d24c:	8e1bc9bf 	lw	$k1,-13889($s0)
  41d250:	c5000000 	lwc1	$f0,0($t0)
  41d254:	b1a2bc2e 	0xb1a2bc2e
  41d258:	76400000 	jalx	9000000 <_gp+0x8bda630>
  41d25c:	de0b6b3a 	0xde0b6b3a
  41d260:	89e80000 	lwl	$t0,0($t7)
  41d264:	8ac72304 	lwl	$a3,8964($s6)
  41d268:	ac620000 	sw	$v0,0($v1)
  41d26c:	ad78ebc5 	sw	$t8,-5179($t3)
  41d270:	177a8000 	bne	$k1,$k0,3fd274 <__istart-0x3d38>
  41d274:	d8d726b7 	0xd8d726b7
  41d278:	6eac9000 	0x6eac9000
  41d27c:	87867832 	lh	$a2,30770($gp)
  41d280:	0a57b400 	j	95ed000 <_gp+0x91c7630>
  41d284:	a968163f 	swl	$t0,5695($t3)
  41d288:	cceda100 	lwc3	$13,-24320($a3)
  41d28c:	d3c21bce 	0xd3c21bce
  41d290:	401484a0 	0x401484a0
  41d294:	84595161 	lh	$t9,20833($v0)
  41d298:	9019a5c8 	lbu	$t9,-23096($zero)
  41d29c:	a56fa5b9 	sh	$t7,-23111($t3)
  41d2a0:	f4200f3a 	0xf4200f3a
  41d2a4:	cecb8f27 	lwc3	$11,-28889($s6)
  41d2a8:	cfe20766 	lwc3	$2,1894($ra)
  41d2ac:	d0cf4b50 	0xd0cf4b50
  41d2b0:	2aabd62c 	slti	$t3,$s5,-10708
  41d2b4:	d2d80db0 	0xd2d80db0
  41d2b8:	c1d1ea96 	lwc0	$17,-5482($t6)
  41d2bc:	d4e5e2cd 	0xd4e5e2cd
  41d2c0:	9292d603 	lbu	$s2,-10749($s4)
  41d2c4:	d6f8d750 	0xd6f8d750
  41d2c8:	28069da4 	slti	$a2,$zero,-25180
  41d2cc:	d910f7ff 	0xd910f7ff
  41d2d0:	e9d0696a 	swc2	$16,26986($t6)
  41d2d4:	db2e51bf 	0xdb2e51bf
  41d2d8:	6b947519 	0x6b947519
  41d2dc:	dd50f199 	0xdd50f199
  41d2e0:	bd342cf7 	0xbd342cf7
  41d2e4:	df78e4b2 	0xdf78e4b2
  41d2e8:	bbd26451 	swr	$s2,25681($s8)
  41d2ec:	e1a63853 	swc0	$6,14419($t5)
  41d2f0:	63a198e5 	0x63a198e5
  41d2f4:	e3d8f9e5 	swc0	$24,-1563($s8)
  41d2f8:	000000cc 	syscall	0x3
  41d2fc:	00000000 	nop
  41d300:	00000014 	0x14
  41d304:	45010004 	bc1t	41d318 <_sys_index+0x1b18>
  41d308:	01000000 	0x1000000
  41d30c:	030cc0cc 	syscall	0xc3303
  41d310:	30011010 	andi	$at,$zero,0x1010
  41d314:	00040444 	0x40444
  41d318:	030300c0 	0x30300c0
  41d31c:	3c3c0c03 	0x3c3c0c03
  41d320:	cf30cf0c 	lwc3	$16,-12532($t9)
  41d324:	00c00c00 	0xc00c00
  41d328:	00000000 	nop
  41d32c:	00005001 	0x5001
  41d330:	44000010 	0x44000010
  41d334:	00100400 	sll	$zero,$s0,0x10
  41d338:	00040100 	sll	$zero,$a0,0x4
  41d33c:	00140001 	0x140001
  41d340:	10000000 	b	41d344 <_sys_index+0x1b44>
  41d344:	00300300 	0x300300
  41d348:	00333c30 	0x333c30
  41d34c:	cf00303c 	lwc3	$0,12348($t8)
	...
  41d35c:	00003000 	sll	$a2,$zero,0x0
  41d360:	03000000 	0x3000000
  41d364:	00050010 	0x50010
  41d368:	11554000 	beq	$t2,$s5,42d36c <_gp+0x799c>
  41d36c:	04000401 	bltz	$zero,41e374 <_bufdirtytab+0x5c>
  41d370:	44400100 	0x44400100
  41d374:	04001104 	bltz	$zero,421788 <_end+0xc18>
  41d378:	04100000 	bltzal	$zero,41d37c <_sys_index+0x1b7c>
  41d37c:	00000000 	nop
  41d380:	000cf000 	sll	$s8,$t4,0x0
  41d384:	00000003 	sra	$zero,$zero,0x0
  41d388:	00cc30c0 	0xcc30c0
  41d38c:	0030c004 	sllv	$t8,$s0,$at
  41d390:	44010141 	0x44010141
  41d394:	40000001 	0x40000001
  41d398:	40000000 	mfc0	$zero,$0
  41d39c:	fb46fba3 	0xfb46fba3
  41d3a0:	fc00fc5d 	0xfc00fc5d
  41d3a4:	fcbafd17 	0xfcbafd17
  41d3a8:	fd74fdd1 	0xfd74fdd1
  41d3ac:	fe2efe8b 	0xfe2efe8b
  41d3b0:	fee8ff45 	0xfee8ff45
  41d3b4:	ffa20000 	0xffa20000
  41d3b8:	00030006 	srlv	$zero,$v1,$zero
  41d3bc:	0009000d 	break	0x9
  41d3c0:	00100013 	0x100013
  41d3c4:	0017001a 	div	$zero,$zero,$s7
  41d3c8:	001d0021 	addu	$zero,$zero,$sp
  41d3cc:	00240027 	nor	$zero,$at,$a0
  41d3d0:	002b002e 	0x2b002e
  41d3d4:	00310035 	0x310035
  41d3d8:	0038003b 	0x38003b
  41d3dc:	003f0042 	0x3f0042
  41d3e0:	00450049 	0x450049
  41d3e4:	004c004f 	0x4c004f
  41d3e8:	00530056 	0x530056
  41d3ec:	005900b6 	0x5900b6
  41d3f0:	01130170 	0x1130170
  41d3f4:	01cd022a 	0x1cd022a
  41d3f8:	028702e4 	0x28702e4
  41d3fc:	0341039e 	0x341039e
  41d400:	03fb0000 	0x3fb0000
	...
Disassembly of section .data:

0041d410 <_fdata>:
  41d410:	0041da54 	0x41da54
  41d414:	0041da58 	0x41da58
  41d418:	0041da60 	0x41da60
  41d41c:	0041da68 	0x41da68
  41d420:	0041da70 	0x41da70
  41d424:	0041da78 	0x41da78
  41d428:	0041da80 	0x41da80
  41d42c:	0041da88 	0x41da88

0041d430 <_sys_errlist>:
  41d430:	0041e3d0 	0x41e3d0
  41d434:	0041aac0 	0x41aac0
  41d438:	0041aad0 	0x41aad0
  41d43c:	0041aaec 	0x41aaec
  41d440:	0041aafc 	0x41aafc
  41d444:	0041ab14 	0x41ab14
  41d448:	0041ab20 	0x41ab20
  41d44c:	0041ab3c 	0x41ab3c
  41d450:	0041ab50 	0x41ab50
  41d454:	0041ab64 	0x41ab64
  41d458:	0041ab74 	0x41ab74
  41d45c:	0041ab88 	0x41ab88
  41d460:	0041abac 	0x41abac
  41d464:	0041abc0 	0x41abc0
  41d468:	0041abd4 	0x41abd4
  41d46c:	0041abe0 	0x41abe0
  41d470:	0041abf8 	0x41abf8
  41d474:	0041ac04 	0x41ac04
  41d478:	0041ac10 	0x41ac10
  41d47c:	0041ac24 	0x41ac24
  41d480:	0041ac34 	0x41ac34
  41d484:	0041ac44 	0x41ac44
  41d488:	0041ac54 	0x41ac54
  41d48c:	0041ac68 	0x41ac68
  41d490:	0041ac7c 	0x41ac7c
  41d494:	0041ac90 	0x41ac90
  41d498:	0041aca4 	0x41aca4
  41d49c:	0041acb4 	0x41acb4
  41d4a0:	0041acc4 	0x41acc4
  41d4a4:	0041acdc 	0x41acdc
  41d4a8:	0041acec 	0x41acec
  41d4ac:	0041ad04 	0x41ad04
  41d4b0:	0041ad14 	0x41ad14
  41d4b4:	0041ad20 	0x41ad20
  41d4b8:	0041ad38 	0x41ad38
  41d4bc:	0041ad4c 	syscall	0x106b5
  41d4c0:	0041ad68 	0x41ad68
  41d4c4:	0041ad7c 	0x41ad7c
  41d4c8:	0041ad98 	0x41ad98
  41d4cc:	0041adb4 	0x41adb4
  41d4d0:	0041adc4 	0x41adc4
  41d4d4:	0041add4 	0x41add4
  41d4d8:	0041adf0 	0x41adf0
  41d4dc:	0041ae10 	0x41ae10
  41d4e0:	0041ae2c 	0x41ae2c
  41d4e4:	0041ae3c 	0x41ae3c
  41d4e8:	0041ae60 	0x41ae60
  41d4ec:	0041ae7c 	0x41ae7c
  41d4f0:	0041ae88 	0x41ae88
  41d4f4:	0041ae94 	0x41ae94
  41d4f8:	0041aea0 	0x41aea0
  41d4fc:	0041aeb8 	0x41aeb8
  41d500:	0041aed0 	0x41aed0
  41d504:	0041aee4 	0x41aee4
  41d508:	0041aefc 	0x41aefc
  41d50c:	0041af10 	0x41af10
  41d510:	0041af20 	0x41af20
  41d514:	0041af38 	0x41af38
  41d518:	0041af50 	0x41af50
  41d51c:	0041af5c 	0x41af5c
  41d520:	0041af68 	0x41af68
  41d524:	0041af7c 	0x41af7c
  41d528:	0041af90 	0x41af90
  41d52c:	0041afa0 	0x41afa0
  41d530:	0041afb8 	0x41afb8
  41d534:	0041afd8 	0x41afd8
  41d538:	0041aff0 	0x41aff0
  41d53c:	0041b004 	sllv	$s6,$at,$v0
  41d540:	0041b01c 	0x41b01c
  41d544:	0041b02c 	0x41b02c
  41d548:	0041b03c 	0x41b03c
  41d54c:	0041b058 	0x41b058
  41d550:	0041b068 	0x41b068
  41d554:	0041b074 	0x41b074
  41d558:	0041b080 	0x41b080
  41d55c:	0041b094 	0x41b094
  41d560:	0041b0a0 	0x41b0a0
  41d564:	0041b0ac 	0x41b0ac
  41d568:	0041b0c0 	0x41b0c0
  41d56c:	0041b0d4 	0x41b0d4
  41d570:	0041b0fc 	0x41b0fc
  41d574:	0041b118 	0x41b118
  41d578:	0041b138 	0x41b138
  41d57c:	0041b150 	0x41b150
  41d580:	0041b178 	0x41b178
  41d584:	0041b1a0 	0x41b1a0
  41d588:	0041b1c0 	0x41b1c0
  41d58c:	0041b200 	0x41b200
  41d590:	0041b228 	0x41b228
  41d594:	0041b240 	0x41b240
  41d598:	0041b25c 	0x41b25c
  41d59c:	0041b28c 	syscall	0x106ca
  41d5a0:	0041b2a4 	0x41b2a4
  41d5a4:	0041b2d0 	0x41b2d0
  41d5a8:	0041b2e4 	0x41b2e4
  41d5ac:	0041b2f4 	0x41b2f4
  41d5b0:	0041b314 	0x41b314
  41d5b4:	0041b334 	0x41b334
  41d5b8:	0041b348 	0x41b348
  41d5bc:	0041b368 	0x41b368
  41d5c0:	0041b38c 	syscall	0x106ce
  41d5c4:	0041b398 	0x41b398
  41d5c8:	0041b3a4 	0x41b3a4
  41d5cc:	0041b3b0 	0x41b3b0
  41d5d0:	0041b3bc 	0x41b3bc
  41d5d4:	0041b3c8 	0x41b3c8
  41d5d8:	0041b3d4 	0x41b3d4
  41d5dc:	0041b3e0 	0x41b3e0
  41d5e0:	0041b3ec 	0x41b3ec
  41d5e4:	0041b3f8 	0x41b3f8
  41d5e8:	0041b404 	0x41b404
  41d5ec:	0041b410 	0x41b410
  41d5f0:	0041b41c 	0x41b41c
  41d5f4:	0041b428 	0x41b428
  41d5f8:	0041b434 	0x41b434
  41d5fc:	0041b440 	0x41b440
  41d600:	0041b44c 	syscall	0x106d1
  41d604:	0041b458 	0x41b458
  41d608:	0041b464 	0x41b464
  41d60c:	0041b470 	0x41b470
  41d610:	0041b47c 	0x41b47c
  41d614:	0041b494 	0x41b494
  41d618:	0041b4b0 	0x41b4b0
  41d61c:	0041b4e0 	0x41b4e0
  41d620:	0041b500 	0x41b500
  41d624:	0041b530 	0x41b530
  41d628:	0041b548 	0x41b548
  41d62c:	0041b568 	0x41b568
  41d630:	0041b578 	0x41b578
  41d634:	0041b590 	0x41b590
  41d638:	0041b5bc 	0x41b5bc
  41d63c:	0041b5e0 	0x41b5e0
  41d640:	0041b5fc 	0x41b5fc
  41d644:	0041b618 	0x41b618
  41d648:	0041b640 	0x41b640
  41d64c:	0041b664 	0x41b664
  41d650:	0041b680 	0x41b680
  41d654:	0041b68c 	syscall	0x106da
  41d658:	0041b69c 	0x41b69c
  41d65c:	0041b6ac 	0x41b6ac
  41d660:	0041b6bc 	0x41b6bc
  41d664:	0041b6d0 	0x41b6d0
  41d668:	0041b6e8 	0x41b6e8
  41d66c:	0041b6f4 	0x41b6f4
  41d670:	0041b718 	0x41b718
  41d674:	0041b73c 	0x41b73c
  41d678:	0041b754 	0x41b754
  41d67c:	0041b768 	0x41b768
  41d680:	0041b778 	0x41b778
  41d684:	0041b78c 	syscall	0x106de
  41d688:	0041b7ac 	0x41b7ac
  41d68c:	0041b7c8 	0x41b7c8

0041d690 <_sys_errtable>:
  41d690:	0000009e 	0x9e
  41d694:	00000006 	srlv	$zero,$zero,$zero
  41d698:	0041ba64 	0x41ba64
  41d69c:	000001f4 	0x1f4
  41d6a0:	0000007c 	0x7c
  41d6a4:	0041ba70 	0x41ba70
	...

0041d6b4 <_sgi_errtable>:
  41d6b4:	000003e8 	0x3e8
  41d6b8:	00000002 	srl	$zero,$zero,0x0
  41d6bc:	0041ba8c 	syscall	0x106ea
  41d6c0:	0000046d 	0x46d
  41d6c4:	00000003 	sra	$zero,$zero,0x0
  41d6c8:	0041ba98 	0x41ba98
  41d6cc:	0000046f 	0x46f
  41d6d0:	00000004 	sllv	$zero,$zero,$zero
  41d6d4:	0041baac 	0x41baac
	...
  41d6f0:	75737365 	jalx	5cdcd94 <_gp+0x58b73c4>
  41d6f4:	746c6f63 	jalx	1b1bd8c <_gp+0x16f63bc>
  41d6f8:	6b007573 	0x6b007573
  41d6fc:	756e7365 	jalx	5b9cd94 <_gp+0x57773c4>
  41d700:	746c6f63 	jalx	1b1bd8c <_gp+0x16f63bc>
  41d704:	6b000000 	0x6b000000
	...

0041d710 <__uscasdata>:
  41d710:	00000000 	nop
  41d714:	ffffffff 	0xffffffff
  41d718:	ffffffff 	0xffffffff
  41d71c:	ffffffff 	0xffffffff
	...
  41d740:	00400100 	0x400100
	...

0041d750 <__ctype>:
  41d750:	00202020 	add	$a0,$at,$zero
  41d754:	20202020 	addi	$zero,$at,8224
  41d758:	20202828 	addi	$zero,$at,10280
  41d75c:	28282820 	slti	$t0,$at,10272
  41d760:	20202020 	addi	$zero,$at,8224
  41d764:	20202020 	addi	$zero,$at,8224
  41d768:	20202020 	addi	$zero,$at,8224
  41d76c:	20202020 	addi	$zero,$at,8224
  41d770:	20481010 	addi	$t0,$v0,4112
  41d774:	10101010 	beq	$zero,$s0,4217b8 <_end+0xc48>
  41d778:	10101010 	beq	$zero,$s0,4217bc <_end+0xc4c>
  41d77c:	10101010 	beq	$zero,$s0,4217c0 <_end+0xc50>
  41d780:	10848484 	beq	$a0,$a0,3fe994 <__istart-0x2618>
  41d784:	84848484 	lh	$a0,-31612($a0)
  41d788:	84848410 	lh	$a0,-31728($a0)
  41d78c:	10101010 	beq	$zero,$s0,4217d0 <_end+0xc60>
  41d790:	10108181 	beq	$zero,$s0,3fdd98 <__istart-0x3214>
  41d794:	81818181 	lb	$at,-32383($t4)
  41d798:	01010101 	0x1010101
  41d79c:	01010101 	0x1010101
  41d7a0:	01010101 	0x1010101
  41d7a4:	01010101 	0x1010101
  41d7a8:	01010101 	0x1010101
  41d7ac:	10101010 	beq	$zero,$s0,4217f0 <_end+0xc80>
  41d7b0:	10108282 	beq	$zero,$s0,3fe1bc <__istart-0x2df0>
  41d7b4:	82828282 	lb	$v0,-32126($s4)
  41d7b8:	02020202 	0x2020202
  41d7bc:	02020202 	0x2020202
  41d7c0:	02020202 	0x2020202
  41d7c4:	02020202 	0x2020202
  41d7c8:	02020202 	0x2020202
  41d7cc:	10101010 	beq	$zero,$s0,421810 <_end+0xca0>
  41d7d0:	20000000 	addi	$zero,$zero,0
	...
  41d850:	00000001 	0x1
  41d854:	02030405 	0x2030405
  41d858:	06070809 	0x6070809
  41d85c:	0a0b0c0d 	j	82c3034 <_gp+0x7e9d664>
  41d860:	0e0f1011 	jal	83c4044 <_gp+0x7f9e674>
  41d864:	12131415 	beq	$s0,$s3,4228bc <_end+0x1d4c>
  41d868:	16171819 	bne	$s0,$s7,4238d0 <_end+0x2d60>
  41d86c:	1a1b1c1d 	0x1a1b1c1d
  41d870:	1e1f2021 	0x1e1f2021
  41d874:	22232425 	addi	$v1,$s1,9253
  41d878:	26272829 	addiu	$a3,$s1,10281
  41d87c:	2a2b2c2d 	slti	$t3,$s1,11309
  41d880:	2e2f3031 	sltiu	$t7,$s1,12337
  41d884:	32333435 	andi	$s3,$s1,0x3435
  41d888:	36373839 	ori	$s7,$s1,0x3839
  41d88c:	3a3b3c3d 	xori	$k1,$s1,0x3c3d
  41d890:	3e3f4061 	0x3e3f4061
  41d894:	62636465 	0x62636465
  41d898:	66676869 	0x66676869
  41d89c:	6a6b6c6d 	0x6a6b6c6d
  41d8a0:	6e6f7071 	0x6e6f7071
  41d8a4:	72737475 	0x72737475
  41d8a8:	76777879 	jalx	9dde1e4 <_gp+0x99b8814>
  41d8ac:	7a5b5c5d 	0x7a5b5c5d
  41d8b0:	5e5f6041 	0x5e5f6041
  41d8b4:	42434445 	c0	0x434445
  41d8b8:	46474849 	c1	0x474849
  41d8bc:	4a4b4c4d 	c2	0x4b4c4d
  41d8c0:	4e4f5051 	c3	0x4f5051
  41d8c4:	52535455 	0x52535455
  41d8c8:	56575859 	0x56575859
  41d8cc:	5a7b7c7d 	0x5a7b7c7d
  41d8d0:	7e7f0000 	0x7e7f0000
	...
  41d950:	00000100 	sll	$zero,$zero,0x4
  41d954:	00010000 	sll	$zero,$at,0x0
  41d958:	01000000 	0x1000000
  41d95c:	00000000 	nop

0041d960 <_cur_locale>:
  41d960:	43000000 	c0	0x1000000
	...
  41d96c:	00000043 	sra	$zero,$zero,0x1
	...
  41d97c:	00004300 	sll	$t0,$zero,0xc
	...
  41d98c:	00430000 	0x430000
	...
  41d99c:	43000000 	c0	0x1000000
	...
  41d9a8:	00000043 	sra	$zero,$zero,0x1
	...
  41d9c0:	75737365 	jalx	5cdcd94 <_gp+0x58b73c4>
  41d9c4:	746c6f63 	jalx	1b1bd8c <_gp+0x16f63bc>
  41d9c8:	6b007573 	0x6b007573
  41d9cc:	756e7365 	jalx	5b9cd94 <_gp+0x57773c4>
  41d9d0:	746c6f63 	jalx	1b1bd8c <_gp+0x16f63bc>
  41d9d4:	6b000000 	0x6b000000
	...
Disassembly of section .sdata:

0041d9e0 <__trap_fpe_override>:
	...

0041d9f0 <_environ>:
	...

0041da00 <__first_link>:
  41da00:	0041dc64 	0x41dc64
  41da04:	0041dad0 	0x41dad0
  41da08:	0041e2b0 	0x41e2b0
  41da0c:	0041e318 	0x41e318
  41da10:	00000064 	0x64
	...

0041da30 <__errnoaddr>:
  41da30:	0042093c 	0x42093c
	...
  41da40:	75737073 	jalx	5cdc1cc <_gp+0x58b67fc>
  41da44:	656d6100 	0x656d6100
  41da48:	75737673 	jalx	5cdd9cc <_gp+0x58b7ffc>
  41da4c:	656d6100 	0x656d6100
  41da50:	0a000000 	j	8000000 <_gp+0x7bda630>
  41da54:	554e4b00 	0x554e4b00
  41da58:	50484954 	0x50484954
  41da5c:	20200000 	addi	$zero,$at,0
  41da60:	50534c45 	0x50534c45
  41da64:	45500000 	0x45500000
  41da68:	50574f4b 	0x50574f4b
  41da6c:	45200000 	0x45200000
  41da70:	56484954 	0x56484954
  41da74:	20200000 	addi	$zero,$at,0
  41da78:	5657414b 	0x5657414b
  41da7c:	45200000 	0x45200000
  41da80:	50494e54 	0x50494e54
  41da84:	52200000 	0x52200000
  41da88:	504d4953 	0x504d4953
  41da8c:	53200000 	0x53200000
  41da90:	696f0000 	0x696f0000
	...

0041daa0 <__us_sthread_stdio>:
  41daa0:	00000001 	0x1

0041daa4 <__us_rsthread_stdio>:
  41daa4:	00000000 	nop

0041daa8 <__us_sthread_misc>:
  41daa8:	00000001 	0x1

0041daac <__us_rsthread_misc>:
  41daac:	00000000 	nop

0041dab0 <__us_sthread_malloc>:
  41dab0:	00000001 	0x1

0041dab4 <__us_rsthread_malloc>:
	...

0041dac0 <_ushlockdefspin>:
  41dac0:	00000258 	0x258

0041dac4 <_usyieldcnt>:
  41dac4:	0000000a 	0xa
	...

0041dad0 <_bufendtab>:
  41dad0:	004208e0 	0x4208e0
  41dad4:	0041f8d0 	0x41f8d0
  41dad8:	0041e5b8 	0x41e5b8
	...

0041dc64 <__iob>:
	...
  41dc70:	01000000 	0x1000000
	...
  41dc80:	02010000 	0x2010000
  41dc84:	00000000 	nop
  41dc88:	0041e5b0 	0x41e5b0
  41dc8c:	0041e5b0 	0x41e5b0
  41dc90:	06020000 	0x6020000
	...

0041e2a4 <_lastbuf>:
  41e2a4:	0041e2a4 	0x41e2a4
	...

0041e2b0 <_bufendadj>:
	...

0041e318 <_bufdirtytab>:
	...
  41e380:	41414100 	0x41414100
  41e384:	544d5044 	0x544d5044
  41e388:	49520000 	0x49520000
  41e38c:	2f766172 	sltiu	$s6,$k1,24946
  41e390:	2f746d70 	sltiu	$s4,$k1,28016
  41e394:	2f000000 	sltiu	$zero,$t8,0
  41e398:	2f746d70 	sltiu	$s4,$k1,28016
  41e39c:	00000000 	nop
  41e3a0:	2f000000 	sltiu	$zero,$t8,0
  41e3a4:	58585858 	0x58585858
  41e3a8:	58580000 	0x58580000
  41e3ac:	00000000 	nop

0041e3b0 <_minbrk>:
  41e3b0:	00420b70 	0x420b70

0041e3b4 <_curbrk>:
  41e3b4:	00420b70 	0x420b70
	...
  41e3d0:	4572726f 	0x4572726f
  41e3d4:	72203000 	0x72203000

0041e3d8 <_sys_nerr>:
  41e3d8:	00000098 	0x98
  41e3dc:	00000000 	nop

0041e3e0 <_sys_num_err>:
  41e3e0:	000001f4 	0x1f4

0041e3e4 <_sgi_num_err>:
  41e3e4:	0000046f 	0x46f
	...
  41e3f0:	0041bad0 	0x41bad0
  41e3f4:	43000000 	c0	0x1000000
  41e3f8:	43000000 	c0	0x1000000
  41e3fc:	00000000 	nop

0041e400 <_uerror>:
  41e400:	00000000 	nop

0041e404 <_utracefd>:
  41e404:	00000002 	srl	$zero,$zero,0x0
  41e408:	00000000 	nop
  41e40c:	55535452 	0x55535452
  41e410:	41434500 	0x41434500
  41e414:	55534552 	0x55534552
  41e418:	524f5200 	0x524f5200
  41e41c:	75736c6f 	jalx	5cdb1bc <_gp+0x58b57ec>
  41e420:	636b0000 	0x636b0000
  41e424:	55500000 	0x55500000
  41e428:	4d500000 	0x4d500000
  41e42c:	00000001 	0x1
  41e430:	203a2000 	addi	$k0,$at,8192
  41e434:	0a000000 	j	8000000 <_gp+0x7bda630>
  41e438:	00000001 	0x1
  41e43c:	00000000 	nop

0041e440 <_us_mapsize>:
  41e440:	00010000 	sll	$zero,$at,0x0

0041e444 <_us_maxusers>:
  41e444:	00000008 	jr	$zero

0041e448 <_us_locktype>:
  41e448:	00000000 	nop

0041e44c <_us_arenatype>:
  41e44c:	00000000 	nop

0041e450 <_us_attachaddr>:
  41e450:	ffffffff 	0xffffffff

0041e454 <_us_autogrow>:
  41e454:	00000001 	0x1

0041e458 <_us_autoresv>:
	...
  41e460:	55535452 	0x55535452
  41e464:	41434500 	0x41434500
  41e468:	55534552 	0x55534552
  41e46c:	524f5200 	0x524f5200
  41e470:	4d000000 	bc3f	41e474 <_us_autoresv+0x1c>
  41e474:	25732564 	addiu	$s3,$t3,9572
	...
  41e480:	6e616e30 	0x6e616e30
  41e484:	78000000 	0x78000000
  41e488:	4e414e30 	c3	0x414e30
  41e48c:	58000000 	0x58000000
  41e490:	696e6600 	0x696e6600
  41e494:	494e4600 	0x494e4600
  41e498:	00000000 	nop
  41e49c:	2d000000 	sltiu	$zero,$t0,0
  41e4a0:	2b000000 	slti	$zero,$t8,0
  41e4a4:	20000000 	addi	$zero,$zero,0
  41e4a8:	2d000000 	sltiu	$zero,$t0,0
  41e4ac:	2b000000 	slti	$zero,$t8,0
  41e4b0:	20000000 	addi	$zero,$zero,0
  41e4b4:	30780000 	andi	$t8,$v1,0x0
  41e4b8:	30580000 	andi	$t8,$v0,0x0
  41e4bc:	2d000000 	sltiu	$zero,$t0,0
  41e4c0:	2b000000 	slti	$zero,$t8,0
  41e4c4:	20000000 	addi	$zero,$zero,0
  41e4c8:	2d000000 	sltiu	$zero,$t0,0
  41e4cc:	2b000000 	slti	$zero,$t8,0
  41e4d0:	20000000 	addi	$zero,$zero,0
  41e4d4:	286e756c 	slti	$t6,$v1,30060
  41e4d8:	6c290000 	0x6c290000
  41e4dc:	2d000000 	sltiu	$zero,$t0,0
  41e4e0:	2b000000 	slti	$zero,$t8,0
  41e4e4:	20000000 	addi	$zero,$zero,0
	...

0041e500 <_numeric>:
  41e500:	2e000000 	sltiu	$zero,$s0,0
	...
Disassembly of section .lit8:

0041e510 <.lit8>:
  41e510:	41f00000 	0x41f00000
  41e514:	00000000 	nop
  41e518:	43300000 	c0	0x1300000
  41e51c:	00000000 	nop
